
Station.elf:     file format elf32-littlearm

Sections:
Idx Name          Size      VMA       LMA       File off  Algn
  0 .isr_vector   0000010c  08000000  08000000  00010000  2**0
                  CONTENTS, ALLOC, LOAD, READONLY, DATA
  1 .text         00008dc0  0800010c  0800010c  0001010c  2**2
                  CONTENTS, ALLOC, LOAD, READONLY, CODE
  2 .rodata       00000134  08008ecc  08008ecc  00018ecc  2**2
                  CONTENTS, ALLOC, LOAD, READONLY, DATA
  3 .ARM.extab    00000000  08009000  08009000  000204d8  2**0
                  CONTENTS
  4 .ARM          00000000  08009000  08009000  000204d8  2**0
                  CONTENTS
  5 .preinit_array 00000000  08009000  08009000  000204d8  2**0
                  CONTENTS, ALLOC, LOAD, DATA
  6 .init_array   00000004  08009000  08009000  00019000  2**2
                  CONTENTS, ALLOC, LOAD, DATA
  7 .fini_array   00000004  08009004  08009004  00019004  2**2
                  CONTENTS, ALLOC, LOAD, DATA
  8 .data         000004d8  20000000  08009008  00020000  2**2
                  CONTENTS, ALLOC, LOAD, DATA
  9 .bss          000006a0  200004d8  080094e0  000204d8  2**3
                  ALLOC
 10 ._user_heap_stack 00000600  20000b78  080094e0  00020b78  2**0
                  ALLOC
 11 .ARM.attributes 00000029  00000000  00000000  000204d8  2**0
                  CONTENTS, READONLY
 12 .comment      00000043  00000000  00000000  00020501  2**0
                  CONTENTS, READONLY
 13 .debug_info   00014144  00000000  00000000  00020544  2**0
                  CONTENTS, READONLY, DEBUGGING, OCTETS
 14 .debug_abbrev 000036af  00000000  00000000  00034688  2**0
                  CONTENTS, READONLY, DEBUGGING, OCTETS
 15 .debug_aranges 00001468  00000000  00000000  00037d38  2**3
                  CONTENTS, READONLY, DEBUGGING, OCTETS
 16 .debug_rnglists 00000fd5  00000000  00000000  000391a0  2**0
                  CONTENTS, READONLY, DEBUGGING, OCTETS
 17 .debug_macro  0001a18d  00000000  00000000  0003a175  2**0
                  CONTENTS, READONLY, DEBUGGING, OCTETS
 18 .debug_line   0001941a  00000000  00000000  00054302  2**0
                  CONTENTS, READONLY, DEBUGGING, OCTETS
 19 .debug_str    0009152a  00000000  00000000  0006d71c  2**0
                  CONTENTS, READONLY, DEBUGGING, OCTETS
 20 .debug_frame  00005914  00000000  00000000  000fec48  2**2
                  CONTENTS, READONLY, DEBUGGING, OCTETS
 21 .debug_line_str 00000062  00000000  00000000  0010455c  2**0
                  CONTENTS, READONLY, DEBUGGING, OCTETS

Disassembly of section .text:

0800010c <__do_global_dtors_aux>:
 800010c:	b510      	push	{r4, lr}
 800010e:	4c05      	ldr	r4, [pc, #20]	; (8000124 <__do_global_dtors_aux+0x18>)
 8000110:	7823      	ldrb	r3, [r4, #0]
 8000112:	b933      	cbnz	r3, 8000122 <__do_global_dtors_aux+0x16>
 8000114:	4b04      	ldr	r3, [pc, #16]	; (8000128 <__do_global_dtors_aux+0x1c>)
 8000116:	b113      	cbz	r3, 800011e <__do_global_dtors_aux+0x12>
 8000118:	4804      	ldr	r0, [pc, #16]	; (800012c <__do_global_dtors_aux+0x20>)
 800011a:	f3af 8000 	nop.w
 800011e:	2301      	movs	r3, #1
 8000120:	7023      	strb	r3, [r4, #0]
 8000122:	bd10      	pop	{r4, pc}
 8000124:	200004d8 	.word	0x200004d8
 8000128:	00000000 	.word	0x00000000
 800012c:	08008eb4 	.word	0x08008eb4

08000130 <frame_dummy>:
 8000130:	b508      	push	{r3, lr}
 8000132:	4b03      	ldr	r3, [pc, #12]	; (8000140 <frame_dummy+0x10>)
 8000134:	b11b      	cbz	r3, 800013e <frame_dummy+0xe>
 8000136:	4903      	ldr	r1, [pc, #12]	; (8000144 <frame_dummy+0x14>)
 8000138:	4803      	ldr	r0, [pc, #12]	; (8000148 <frame_dummy+0x18>)
 800013a:	f3af 8000 	nop.w
 800013e:	bd08      	pop	{r3, pc}
 8000140:	00000000 	.word	0x00000000
 8000144:	200004dc 	.word	0x200004dc
 8000148:	08008eb4 	.word	0x08008eb4

0800014c <strlen>:
 800014c:	4603      	mov	r3, r0
 800014e:	f813 2b01 	ldrb.w	r2, [r3], #1
 8000152:	2a00      	cmp	r2, #0
 8000154:	d1fb      	bne.n	800014e <strlen+0x2>
 8000156:	1a18      	subs	r0, r3, r0
 8000158:	3801      	subs	r0, #1
 800015a:	4770      	bx	lr

0800015c <__aeabi_frsub>:
 800015c:	f080 4000 	eor.w	r0, r0, #2147483648	; 0x80000000
 8000160:	e002      	b.n	8000168 <__addsf3>
 8000162:	bf00      	nop

08000164 <__aeabi_fsub>:
 8000164:	f081 4100 	eor.w	r1, r1, #2147483648	; 0x80000000

08000168 <__addsf3>:
 8000168:	0042      	lsls	r2, r0, #1
 800016a:	bf1f      	itttt	ne
 800016c:	ea5f 0341 	movsne.w	r3, r1, lsl #1
 8000170:	ea92 0f03 	teqne	r2, r3
 8000174:	ea7f 6c22 	mvnsne.w	ip, r2, asr #24
 8000178:	ea7f 6c23 	mvnsne.w	ip, r3, asr #24
 800017c:	d06a      	beq.n	8000254 <__addsf3+0xec>
 800017e:	ea4f 6212 	mov.w	r2, r2, lsr #24
 8000182:	ebd2 6313 	rsbs	r3, r2, r3, lsr #24
 8000186:	bfc1      	itttt	gt
 8000188:	18d2      	addgt	r2, r2, r3
 800018a:	4041      	eorgt	r1, r0
 800018c:	4048      	eorgt	r0, r1
 800018e:	4041      	eorgt	r1, r0
 8000190:	bfb8      	it	lt
 8000192:	425b      	neglt	r3, r3
 8000194:	2b19      	cmp	r3, #25
 8000196:	bf88      	it	hi
 8000198:	4770      	bxhi	lr
 800019a:	f010 4f00 	tst.w	r0, #2147483648	; 0x80000000
 800019e:	f440 0000 	orr.w	r0, r0, #8388608	; 0x800000
 80001a2:	f020 407f 	bic.w	r0, r0, #4278190080	; 0xff000000
 80001a6:	bf18      	it	ne
 80001a8:	4240      	negne	r0, r0
 80001aa:	f011 4f00 	tst.w	r1, #2147483648	; 0x80000000
 80001ae:	f441 0100 	orr.w	r1, r1, #8388608	; 0x800000
 80001b2:	f021 417f 	bic.w	r1, r1, #4278190080	; 0xff000000
 80001b6:	bf18      	it	ne
 80001b8:	4249      	negne	r1, r1
 80001ba:	ea92 0f03 	teq	r2, r3
 80001be:	d03f      	beq.n	8000240 <__addsf3+0xd8>
 80001c0:	f1a2 0201 	sub.w	r2, r2, #1
 80001c4:	fa41 fc03 	asr.w	ip, r1, r3
 80001c8:	eb10 000c 	adds.w	r0, r0, ip
 80001cc:	f1c3 0320 	rsb	r3, r3, #32
 80001d0:	fa01 f103 	lsl.w	r1, r1, r3
 80001d4:	f000 4300 	and.w	r3, r0, #2147483648	; 0x80000000
 80001d8:	d502      	bpl.n	80001e0 <__addsf3+0x78>
 80001da:	4249      	negs	r1, r1
 80001dc:	eb60 0040 	sbc.w	r0, r0, r0, lsl #1
 80001e0:	f5b0 0f00 	cmp.w	r0, #8388608	; 0x800000
 80001e4:	d313      	bcc.n	800020e <__addsf3+0xa6>
 80001e6:	f1b0 7f80 	cmp.w	r0, #16777216	; 0x1000000
 80001ea:	d306      	bcc.n	80001fa <__addsf3+0x92>
 80001ec:	0840      	lsrs	r0, r0, #1
 80001ee:	ea4f 0131 	mov.w	r1, r1, rrx
 80001f2:	f102 0201 	add.w	r2, r2, #1
 80001f6:	2afe      	cmp	r2, #254	; 0xfe
 80001f8:	d251      	bcs.n	800029e <__addsf3+0x136>
 80001fa:	f1b1 4f00 	cmp.w	r1, #2147483648	; 0x80000000
 80001fe:	eb40 50c2 	adc.w	r0, r0, r2, lsl #23
 8000202:	bf08      	it	eq
 8000204:	f020 0001 	biceq.w	r0, r0, #1
 8000208:	ea40 0003 	orr.w	r0, r0, r3
 800020c:	4770      	bx	lr
 800020e:	0049      	lsls	r1, r1, #1
 8000210:	eb40 0000 	adc.w	r0, r0, r0
 8000214:	3a01      	subs	r2, #1
 8000216:	bf28      	it	cs
 8000218:	f5b0 0f00 	cmpcs.w	r0, #8388608	; 0x800000
 800021c:	d2ed      	bcs.n	80001fa <__addsf3+0x92>
 800021e:	fab0 fc80 	clz	ip, r0
 8000222:	f1ac 0c08 	sub.w	ip, ip, #8
 8000226:	ebb2 020c 	subs.w	r2, r2, ip
 800022a:	fa00 f00c 	lsl.w	r0, r0, ip
 800022e:	bfaa      	itet	ge
 8000230:	eb00 50c2 	addge.w	r0, r0, r2, lsl #23
 8000234:	4252      	neglt	r2, r2
 8000236:	4318      	orrge	r0, r3
 8000238:	bfbc      	itt	lt
 800023a:	40d0      	lsrlt	r0, r2
 800023c:	4318      	orrlt	r0, r3
 800023e:	4770      	bx	lr
 8000240:	f092 0f00 	teq	r2, #0
 8000244:	f481 0100 	eor.w	r1, r1, #8388608	; 0x800000
 8000248:	bf06      	itte	eq
 800024a:	f480 0000 	eoreq.w	r0, r0, #8388608	; 0x800000
 800024e:	3201      	addeq	r2, #1
 8000250:	3b01      	subne	r3, #1
 8000252:	e7b5      	b.n	80001c0 <__addsf3+0x58>
 8000254:	ea4f 0341 	mov.w	r3, r1, lsl #1
 8000258:	ea7f 6c22 	mvns.w	ip, r2, asr #24
 800025c:	bf18      	it	ne
 800025e:	ea7f 6c23 	mvnsne.w	ip, r3, asr #24
 8000262:	d021      	beq.n	80002a8 <__addsf3+0x140>
 8000264:	ea92 0f03 	teq	r2, r3
 8000268:	d004      	beq.n	8000274 <__addsf3+0x10c>
 800026a:	f092 0f00 	teq	r2, #0
 800026e:	bf08      	it	eq
 8000270:	4608      	moveq	r0, r1
 8000272:	4770      	bx	lr
 8000274:	ea90 0f01 	teq	r0, r1
 8000278:	bf1c      	itt	ne
 800027a:	2000      	movne	r0, #0
 800027c:	4770      	bxne	lr
 800027e:	f012 4f7f 	tst.w	r2, #4278190080	; 0xff000000
 8000282:	d104      	bne.n	800028e <__addsf3+0x126>
 8000284:	0040      	lsls	r0, r0, #1
 8000286:	bf28      	it	cs
 8000288:	f040 4000 	orrcs.w	r0, r0, #2147483648	; 0x80000000
 800028c:	4770      	bx	lr
 800028e:	f112 7200 	adds.w	r2, r2, #33554432	; 0x2000000
 8000292:	bf3c      	itt	cc
 8000294:	f500 0000 	addcc.w	r0, r0, #8388608	; 0x800000
 8000298:	4770      	bxcc	lr
 800029a:	f000 4300 	and.w	r3, r0, #2147483648	; 0x80000000
 800029e:	f043 40fe 	orr.w	r0, r3, #2130706432	; 0x7f000000
 80002a2:	f440 0000 	orr.w	r0, r0, #8388608	; 0x800000
 80002a6:	4770      	bx	lr
 80002a8:	ea7f 6222 	mvns.w	r2, r2, asr #24
 80002ac:	bf16      	itet	ne
 80002ae:	4608      	movne	r0, r1
 80002b0:	ea7f 6323 	mvnseq.w	r3, r3, asr #24
 80002b4:	4601      	movne	r1, r0
 80002b6:	0242      	lsls	r2, r0, #9
 80002b8:	bf06      	itte	eq
 80002ba:	ea5f 2341 	movseq.w	r3, r1, lsl #9
 80002be:	ea90 0f01 	teqeq	r0, r1
 80002c2:	f440 0080 	orrne.w	r0, r0, #4194304	; 0x400000
 80002c6:	4770      	bx	lr

080002c8 <__aeabi_ui2f>:
 80002c8:	f04f 0300 	mov.w	r3, #0
 80002cc:	e004      	b.n	80002d8 <__aeabi_i2f+0x8>
 80002ce:	bf00      	nop

080002d0 <__aeabi_i2f>:
 80002d0:	f010 4300 	ands.w	r3, r0, #2147483648	; 0x80000000
 80002d4:	bf48      	it	mi
 80002d6:	4240      	negmi	r0, r0
 80002d8:	ea5f 0c00 	movs.w	ip, r0
 80002dc:	bf08      	it	eq
 80002de:	4770      	bxeq	lr
 80002e0:	f043 4396 	orr.w	r3, r3, #1258291200	; 0x4b000000
 80002e4:	4601      	mov	r1, r0
 80002e6:	f04f 0000 	mov.w	r0, #0
 80002ea:	e01c      	b.n	8000326 <__aeabi_l2f+0x2a>

080002ec <__aeabi_ul2f>:
 80002ec:	ea50 0201 	orrs.w	r2, r0, r1
 80002f0:	bf08      	it	eq
 80002f2:	4770      	bxeq	lr
 80002f4:	f04f 0300 	mov.w	r3, #0
 80002f8:	e00a      	b.n	8000310 <__aeabi_l2f+0x14>
 80002fa:	bf00      	nop

080002fc <__aeabi_l2f>:
 80002fc:	ea50 0201 	orrs.w	r2, r0, r1
 8000300:	bf08      	it	eq
 8000302:	4770      	bxeq	lr
 8000304:	f011 4300 	ands.w	r3, r1, #2147483648	; 0x80000000
 8000308:	d502      	bpl.n	8000310 <__aeabi_l2f+0x14>
 800030a:	4240      	negs	r0, r0
 800030c:	eb61 0141 	sbc.w	r1, r1, r1, lsl #1
 8000310:	ea5f 0c01 	movs.w	ip, r1
 8000314:	bf02      	ittt	eq
 8000316:	4684      	moveq	ip, r0
 8000318:	4601      	moveq	r1, r0
 800031a:	2000      	moveq	r0, #0
 800031c:	f043 43b6 	orr.w	r3, r3, #1526726656	; 0x5b000000
 8000320:	bf08      	it	eq
 8000322:	f1a3 5380 	subeq.w	r3, r3, #268435456	; 0x10000000
 8000326:	f5a3 0300 	sub.w	r3, r3, #8388608	; 0x800000
 800032a:	fabc f28c 	clz	r2, ip
 800032e:	3a08      	subs	r2, #8
 8000330:	eba3 53c2 	sub.w	r3, r3, r2, lsl #23
 8000334:	db10      	blt.n	8000358 <__aeabi_l2f+0x5c>
 8000336:	fa01 fc02 	lsl.w	ip, r1, r2
 800033a:	4463      	add	r3, ip
 800033c:	fa00 fc02 	lsl.w	ip, r0, r2
 8000340:	f1c2 0220 	rsb	r2, r2, #32
 8000344:	f1bc 4f00 	cmp.w	ip, #2147483648	; 0x80000000
 8000348:	fa20 f202 	lsr.w	r2, r0, r2
 800034c:	eb43 0002 	adc.w	r0, r3, r2
 8000350:	bf08      	it	eq
 8000352:	f020 0001 	biceq.w	r0, r0, #1
 8000356:	4770      	bx	lr
 8000358:	f102 0220 	add.w	r2, r2, #32
 800035c:	fa01 fc02 	lsl.w	ip, r1, r2
 8000360:	f1c2 0220 	rsb	r2, r2, #32
 8000364:	ea50 004c 	orrs.w	r0, r0, ip, lsl #1
 8000368:	fa21 f202 	lsr.w	r2, r1, r2
 800036c:	eb43 0002 	adc.w	r0, r3, r2
 8000370:	bf08      	it	eq
 8000372:	ea20 70dc 	biceq.w	r0, r0, ip, lsr #31
 8000376:	4770      	bx	lr

08000378 <__aeabi_fmul>:
 8000378:	f04f 0cff 	mov.w	ip, #255	; 0xff
 800037c:	ea1c 52d0 	ands.w	r2, ip, r0, lsr #23
 8000380:	bf1e      	ittt	ne
 8000382:	ea1c 53d1 	andsne.w	r3, ip, r1, lsr #23
 8000386:	ea92 0f0c 	teqne	r2, ip
 800038a:	ea93 0f0c 	teqne	r3, ip
 800038e:	d06f      	beq.n	8000470 <__aeabi_fmul+0xf8>
 8000390:	441a      	add	r2, r3
 8000392:	ea80 0c01 	eor.w	ip, r0, r1
 8000396:	0240      	lsls	r0, r0, #9
 8000398:	bf18      	it	ne
 800039a:	ea5f 2141 	movsne.w	r1, r1, lsl #9
 800039e:	d01e      	beq.n	80003de <__aeabi_fmul+0x66>
 80003a0:	f04f 6300 	mov.w	r3, #134217728	; 0x8000000
 80003a4:	ea43 1050 	orr.w	r0, r3, r0, lsr #5
 80003a8:	ea43 1151 	orr.w	r1, r3, r1, lsr #5
 80003ac:	fba0 3101 	umull	r3, r1, r0, r1
 80003b0:	f00c 4000 	and.w	r0, ip, #2147483648	; 0x80000000
 80003b4:	f5b1 0f00 	cmp.w	r1, #8388608	; 0x800000
 80003b8:	bf3e      	ittt	cc
 80003ba:	0049      	lslcc	r1, r1, #1
 80003bc:	ea41 71d3 	orrcc.w	r1, r1, r3, lsr #31
 80003c0:	005b      	lslcc	r3, r3, #1
 80003c2:	ea40 0001 	orr.w	r0, r0, r1
 80003c6:	f162 027f 	sbc.w	r2, r2, #127	; 0x7f
 80003ca:	2afd      	cmp	r2, #253	; 0xfd
 80003cc:	d81d      	bhi.n	800040a <__aeabi_fmul+0x92>
 80003ce:	f1b3 4f00 	cmp.w	r3, #2147483648	; 0x80000000
 80003d2:	eb40 50c2 	adc.w	r0, r0, r2, lsl #23
 80003d6:	bf08      	it	eq
 80003d8:	f020 0001 	biceq.w	r0, r0, #1
 80003dc:	4770      	bx	lr
 80003de:	f090 0f00 	teq	r0, #0
 80003e2:	f00c 4c00 	and.w	ip, ip, #2147483648	; 0x80000000
 80003e6:	bf08      	it	eq
 80003e8:	0249      	lsleq	r1, r1, #9
 80003ea:	ea4c 2050 	orr.w	r0, ip, r0, lsr #9
 80003ee:	ea40 2051 	orr.w	r0, r0, r1, lsr #9
 80003f2:	3a7f      	subs	r2, #127	; 0x7f
 80003f4:	bfc2      	ittt	gt
 80003f6:	f1d2 03ff 	rsbsgt	r3, r2, #255	; 0xff
 80003fa:	ea40 50c2 	orrgt.w	r0, r0, r2, lsl #23
 80003fe:	4770      	bxgt	lr
 8000400:	f440 0000 	orr.w	r0, r0, #8388608	; 0x800000
 8000404:	f04f 0300 	mov.w	r3, #0
 8000408:	3a01      	subs	r2, #1
 800040a:	dc5d      	bgt.n	80004c8 <__aeabi_fmul+0x150>
 800040c:	f112 0f19 	cmn.w	r2, #25
 8000410:	bfdc      	itt	le
 8000412:	f000 4000 	andle.w	r0, r0, #2147483648	; 0x80000000
 8000416:	4770      	bxle	lr
 8000418:	f1c2 0200 	rsb	r2, r2, #0
 800041c:	0041      	lsls	r1, r0, #1
 800041e:	fa21 f102 	lsr.w	r1, r1, r2
 8000422:	f1c2 0220 	rsb	r2, r2, #32
 8000426:	fa00 fc02 	lsl.w	ip, r0, r2
 800042a:	ea5f 0031 	movs.w	r0, r1, rrx
 800042e:	f140 0000 	adc.w	r0, r0, #0
 8000432:	ea53 034c 	orrs.w	r3, r3, ip, lsl #1
 8000436:	bf08      	it	eq
 8000438:	ea20 70dc 	biceq.w	r0, r0, ip, lsr #31
 800043c:	4770      	bx	lr
 800043e:	f092 0f00 	teq	r2, #0
 8000442:	f000 4c00 	and.w	ip, r0, #2147483648	; 0x80000000
 8000446:	bf02      	ittt	eq
 8000448:	0040      	lsleq	r0, r0, #1
 800044a:	f410 0f00 	tsteq.w	r0, #8388608	; 0x800000
 800044e:	3a01      	subeq	r2, #1
 8000450:	d0f9      	beq.n	8000446 <__aeabi_fmul+0xce>
 8000452:	ea40 000c 	orr.w	r0, r0, ip
 8000456:	f093 0f00 	teq	r3, #0
 800045a:	f001 4c00 	and.w	ip, r1, #2147483648	; 0x80000000
 800045e:	bf02      	ittt	eq
 8000460:	0049      	lsleq	r1, r1, #1
 8000462:	f411 0f00 	tsteq.w	r1, #8388608	; 0x800000
 8000466:	3b01      	subeq	r3, #1
 8000468:	d0f9      	beq.n	800045e <__aeabi_fmul+0xe6>
 800046a:	ea41 010c 	orr.w	r1, r1, ip
 800046e:	e78f      	b.n	8000390 <__aeabi_fmul+0x18>
 8000470:	ea0c 53d1 	and.w	r3, ip, r1, lsr #23
 8000474:	ea92 0f0c 	teq	r2, ip
 8000478:	bf18      	it	ne
 800047a:	ea93 0f0c 	teqne	r3, ip
 800047e:	d00a      	beq.n	8000496 <__aeabi_fmul+0x11e>
 8000480:	f030 4c00 	bics.w	ip, r0, #2147483648	; 0x80000000
 8000484:	bf18      	it	ne
 8000486:	f031 4c00 	bicsne.w	ip, r1, #2147483648	; 0x80000000
 800048a:	d1d8      	bne.n	800043e <__aeabi_fmul+0xc6>
 800048c:	ea80 0001 	eor.w	r0, r0, r1
 8000490:	f000 4000 	and.w	r0, r0, #2147483648	; 0x80000000
 8000494:	4770      	bx	lr
 8000496:	f090 0f00 	teq	r0, #0
 800049a:	bf17      	itett	ne
 800049c:	f090 4f00 	teqne	r0, #2147483648	; 0x80000000
 80004a0:	4608      	moveq	r0, r1
 80004a2:	f091 0f00 	teqne	r1, #0
 80004a6:	f091 4f00 	teqne	r1, #2147483648	; 0x80000000
 80004aa:	d014      	beq.n	80004d6 <__aeabi_fmul+0x15e>
 80004ac:	ea92 0f0c 	teq	r2, ip
 80004b0:	d101      	bne.n	80004b6 <__aeabi_fmul+0x13e>
 80004b2:	0242      	lsls	r2, r0, #9
 80004b4:	d10f      	bne.n	80004d6 <__aeabi_fmul+0x15e>
 80004b6:	ea93 0f0c 	teq	r3, ip
 80004ba:	d103      	bne.n	80004c4 <__aeabi_fmul+0x14c>
 80004bc:	024b      	lsls	r3, r1, #9
 80004be:	bf18      	it	ne
 80004c0:	4608      	movne	r0, r1
 80004c2:	d108      	bne.n	80004d6 <__aeabi_fmul+0x15e>
 80004c4:	ea80 0001 	eor.w	r0, r0, r1
 80004c8:	f000 4000 	and.w	r0, r0, #2147483648	; 0x80000000
 80004cc:	f040 40fe 	orr.w	r0, r0, #2130706432	; 0x7f000000
 80004d0:	f440 0000 	orr.w	r0, r0, #8388608	; 0x800000
 80004d4:	4770      	bx	lr
 80004d6:	f040 40fe 	orr.w	r0, r0, #2130706432	; 0x7f000000
 80004da:	f440 0040 	orr.w	r0, r0, #12582912	; 0xc00000
 80004de:	4770      	bx	lr

080004e0 <__aeabi_fdiv>:
 80004e0:	f04f 0cff 	mov.w	ip, #255	; 0xff
 80004e4:	ea1c 52d0 	ands.w	r2, ip, r0, lsr #23
 80004e8:	bf1e      	ittt	ne
 80004ea:	ea1c 53d1 	andsne.w	r3, ip, r1, lsr #23
 80004ee:	ea92 0f0c 	teqne	r2, ip
 80004f2:	ea93 0f0c 	teqne	r3, ip
 80004f6:	d069      	beq.n	80005cc <__aeabi_fdiv+0xec>
 80004f8:	eba2 0203 	sub.w	r2, r2, r3
 80004fc:	ea80 0c01 	eor.w	ip, r0, r1
 8000500:	0249      	lsls	r1, r1, #9
 8000502:	ea4f 2040 	mov.w	r0, r0, lsl #9
 8000506:	d037      	beq.n	8000578 <__aeabi_fdiv+0x98>
 8000508:	f04f 5380 	mov.w	r3, #268435456	; 0x10000000
 800050c:	ea43 1111 	orr.w	r1, r3, r1, lsr #4
 8000510:	ea43 1310 	orr.w	r3, r3, r0, lsr #4
 8000514:	f00c 4000 	and.w	r0, ip, #2147483648	; 0x80000000
 8000518:	428b      	cmp	r3, r1
 800051a:	bf38      	it	cc
 800051c:	005b      	lslcc	r3, r3, #1
 800051e:	f142 027d 	adc.w	r2, r2, #125	; 0x7d
 8000522:	f44f 0c00 	mov.w	ip, #8388608	; 0x800000
 8000526:	428b      	cmp	r3, r1
 8000528:	bf24      	itt	cs
 800052a:	1a5b      	subcs	r3, r3, r1
 800052c:	ea40 000c 	orrcs.w	r0, r0, ip
 8000530:	ebb3 0f51 	cmp.w	r3, r1, lsr #1
 8000534:	bf24      	itt	cs
 8000536:	eba3 0351 	subcs.w	r3, r3, r1, lsr #1
 800053a:	ea40 005c 	orrcs.w	r0, r0, ip, lsr #1
 800053e:	ebb3 0f91 	cmp.w	r3, r1, lsr #2
 8000542:	bf24      	itt	cs
 8000544:	eba3 0391 	subcs.w	r3, r3, r1, lsr #2
 8000548:	ea40 009c 	orrcs.w	r0, r0, ip, lsr #2
 800054c:	ebb3 0fd1 	cmp.w	r3, r1, lsr #3
 8000550:	bf24      	itt	cs
 8000552:	eba3 03d1 	subcs.w	r3, r3, r1, lsr #3
 8000556:	ea40 00dc 	orrcs.w	r0, r0, ip, lsr #3
 800055a:	011b      	lsls	r3, r3, #4
 800055c:	bf18      	it	ne
 800055e:	ea5f 1c1c 	movsne.w	ip, ip, lsr #4
 8000562:	d1e0      	bne.n	8000526 <__aeabi_fdiv+0x46>
 8000564:	2afd      	cmp	r2, #253	; 0xfd
 8000566:	f63f af50 	bhi.w	800040a <__aeabi_fmul+0x92>
 800056a:	428b      	cmp	r3, r1
 800056c:	eb40 50c2 	adc.w	r0, r0, r2, lsl #23
 8000570:	bf08      	it	eq
 8000572:	f020 0001 	biceq.w	r0, r0, #1
 8000576:	4770      	bx	lr
 8000578:	f00c 4c00 	and.w	ip, ip, #2147483648	; 0x80000000
 800057c:	ea4c 2050 	orr.w	r0, ip, r0, lsr #9
 8000580:	327f      	adds	r2, #127	; 0x7f
 8000582:	bfc2      	ittt	gt
 8000584:	f1d2 03ff 	rsbsgt	r3, r2, #255	; 0xff
 8000588:	ea40 50c2 	orrgt.w	r0, r0, r2, lsl #23
 800058c:	4770      	bxgt	lr
 800058e:	f440 0000 	orr.w	r0, r0, #8388608	; 0x800000
 8000592:	f04f 0300 	mov.w	r3, #0
 8000596:	3a01      	subs	r2, #1
 8000598:	e737      	b.n	800040a <__aeabi_fmul+0x92>
 800059a:	f092 0f00 	teq	r2, #0
 800059e:	f000 4c00 	and.w	ip, r0, #2147483648	; 0x80000000
 80005a2:	bf02      	ittt	eq
 80005a4:	0040      	lsleq	r0, r0, #1
 80005a6:	f410 0f00 	tsteq.w	r0, #8388608	; 0x800000
 80005aa:	3a01      	subeq	r2, #1
 80005ac:	d0f9      	beq.n	80005a2 <__aeabi_fdiv+0xc2>
 80005ae:	ea40 000c 	orr.w	r0, r0, ip
 80005b2:	f093 0f00 	teq	r3, #0
 80005b6:	f001 4c00 	and.w	ip, r1, #2147483648	; 0x80000000
 80005ba:	bf02      	ittt	eq
 80005bc:	0049      	lsleq	r1, r1, #1
 80005be:	f411 0f00 	tsteq.w	r1, #8388608	; 0x800000
 80005c2:	3b01      	subeq	r3, #1
 80005c4:	d0f9      	beq.n	80005ba <__aeabi_fdiv+0xda>
 80005c6:	ea41 010c 	orr.w	r1, r1, ip
 80005ca:	e795      	b.n	80004f8 <__aeabi_fdiv+0x18>
 80005cc:	ea0c 53d1 	and.w	r3, ip, r1, lsr #23
 80005d0:	ea92 0f0c 	teq	r2, ip
 80005d4:	d108      	bne.n	80005e8 <__aeabi_fdiv+0x108>
 80005d6:	0242      	lsls	r2, r0, #9
 80005d8:	f47f af7d 	bne.w	80004d6 <__aeabi_fmul+0x15e>
 80005dc:	ea93 0f0c 	teq	r3, ip
 80005e0:	f47f af70 	bne.w	80004c4 <__aeabi_fmul+0x14c>
 80005e4:	4608      	mov	r0, r1
 80005e6:	e776      	b.n	80004d6 <__aeabi_fmul+0x15e>
 80005e8:	ea93 0f0c 	teq	r3, ip
 80005ec:	d104      	bne.n	80005f8 <__aeabi_fdiv+0x118>
 80005ee:	024b      	lsls	r3, r1, #9
 80005f0:	f43f af4c 	beq.w	800048c <__aeabi_fmul+0x114>
 80005f4:	4608      	mov	r0, r1
 80005f6:	e76e      	b.n	80004d6 <__aeabi_fmul+0x15e>
 80005f8:	f030 4c00 	bics.w	ip, r0, #2147483648	; 0x80000000
 80005fc:	bf18      	it	ne
 80005fe:	f031 4c00 	bicsne.w	ip, r1, #2147483648	; 0x80000000
 8000602:	d1ca      	bne.n	800059a <__aeabi_fdiv+0xba>
 8000604:	f030 4200 	bics.w	r2, r0, #2147483648	; 0x80000000
 8000608:	f47f af5c 	bne.w	80004c4 <__aeabi_fmul+0x14c>
 800060c:	f031 4300 	bics.w	r3, r1, #2147483648	; 0x80000000
 8000610:	f47f af3c 	bne.w	800048c <__aeabi_fmul+0x114>
 8000614:	e75f      	b.n	80004d6 <__aeabi_fmul+0x15e>
 8000616:	bf00      	nop

08000618 <__gesf2>:
 8000618:	f04f 3cff 	mov.w	ip, #4294967295
 800061c:	e006      	b.n	800062c <__cmpsf2+0x4>
 800061e:	bf00      	nop

08000620 <__lesf2>:
 8000620:	f04f 0c01 	mov.w	ip, #1
 8000624:	e002      	b.n	800062c <__cmpsf2+0x4>
 8000626:	bf00      	nop

08000628 <__cmpsf2>:
 8000628:	f04f 0c01 	mov.w	ip, #1
 800062c:	f84d cd04 	str.w	ip, [sp, #-4]!
 8000630:	ea4f 0240 	mov.w	r2, r0, lsl #1
 8000634:	ea4f 0341 	mov.w	r3, r1, lsl #1
 8000638:	ea7f 6c22 	mvns.w	ip, r2, asr #24
 800063c:	bf18      	it	ne
 800063e:	ea7f 6c23 	mvnsne.w	ip, r3, asr #24
 8000642:	d011      	beq.n	8000668 <__cmpsf2+0x40>
 8000644:	b001      	add	sp, #4
 8000646:	ea52 0c53 	orrs.w	ip, r2, r3, lsr #1
 800064a:	bf18      	it	ne
 800064c:	ea90 0f01 	teqne	r0, r1
 8000650:	bf58      	it	pl
 8000652:	ebb2 0003 	subspl.w	r0, r2, r3
 8000656:	bf88      	it	hi
 8000658:	17c8      	asrhi	r0, r1, #31
 800065a:	bf38      	it	cc
 800065c:	ea6f 70e1 	mvncc.w	r0, r1, asr #31
 8000660:	bf18      	it	ne
 8000662:	f040 0001 	orrne.w	r0, r0, #1
 8000666:	4770      	bx	lr
 8000668:	ea7f 6c22 	mvns.w	ip, r2, asr #24
 800066c:	d102      	bne.n	8000674 <__cmpsf2+0x4c>
 800066e:	ea5f 2c40 	movs.w	ip, r0, lsl #9
 8000672:	d105      	bne.n	8000680 <__cmpsf2+0x58>
 8000674:	ea7f 6c23 	mvns.w	ip, r3, asr #24
 8000678:	d1e4      	bne.n	8000644 <__cmpsf2+0x1c>
 800067a:	ea5f 2c41 	movs.w	ip, r1, lsl #9
 800067e:	d0e1      	beq.n	8000644 <__cmpsf2+0x1c>
 8000680:	f85d 0b04 	ldr.w	r0, [sp], #4
 8000684:	4770      	bx	lr
 8000686:	bf00      	nop

08000688 <__aeabi_cfrcmple>:
 8000688:	4684      	mov	ip, r0
 800068a:	4608      	mov	r0, r1
 800068c:	4661      	mov	r1, ip
 800068e:	e7ff      	b.n	8000690 <__aeabi_cfcmpeq>

08000690 <__aeabi_cfcmpeq>:
 8000690:	b50f      	push	{r0, r1, r2, r3, lr}
 8000692:	f7ff ffc9 	bl	8000628 <__cmpsf2>
 8000696:	2800      	cmp	r0, #0
 8000698:	bf48      	it	mi
 800069a:	f110 0f00 	cmnmi.w	r0, #0
 800069e:	bd0f      	pop	{r0, r1, r2, r3, pc}

080006a0 <__aeabi_fcmpeq>:
 80006a0:	f84d ed08 	str.w	lr, [sp, #-8]!
 80006a4:	f7ff fff4 	bl	8000690 <__aeabi_cfcmpeq>
 80006a8:	bf0c      	ite	eq
 80006aa:	2001      	moveq	r0, #1
 80006ac:	2000      	movne	r0, #0
 80006ae:	f85d fb08 	ldr.w	pc, [sp], #8
 80006b2:	bf00      	nop

080006b4 <__aeabi_fcmplt>:
 80006b4:	f84d ed08 	str.w	lr, [sp, #-8]!
 80006b8:	f7ff ffea 	bl	8000690 <__aeabi_cfcmpeq>
 80006bc:	bf34      	ite	cc
 80006be:	2001      	movcc	r0, #1
 80006c0:	2000      	movcs	r0, #0
 80006c2:	f85d fb08 	ldr.w	pc, [sp], #8
 80006c6:	bf00      	nop

080006c8 <__aeabi_fcmple>:
 80006c8:	f84d ed08 	str.w	lr, [sp, #-8]!
 80006cc:	f7ff ffe0 	bl	8000690 <__aeabi_cfcmpeq>
 80006d0:	bf94      	ite	ls
 80006d2:	2001      	movls	r0, #1
 80006d4:	2000      	movhi	r0, #0
 80006d6:	f85d fb08 	ldr.w	pc, [sp], #8
 80006da:	bf00      	nop

080006dc <__aeabi_fcmpge>:
 80006dc:	f84d ed08 	str.w	lr, [sp, #-8]!
 80006e0:	f7ff ffd2 	bl	8000688 <__aeabi_cfrcmple>
 80006e4:	bf94      	ite	ls
 80006e6:	2001      	movls	r0, #1
 80006e8:	2000      	movhi	r0, #0
 80006ea:	f85d fb08 	ldr.w	pc, [sp], #8
 80006ee:	bf00      	nop

080006f0 <__aeabi_fcmpgt>:
 80006f0:	f84d ed08 	str.w	lr, [sp, #-8]!
 80006f4:	f7ff ffc8 	bl	8000688 <__aeabi_cfrcmple>
 80006f8:	bf34      	ite	cc
 80006fa:	2001      	movcc	r0, #1
 80006fc:	2000      	movcs	r0, #0
 80006fe:	f85d fb08 	ldr.w	pc, [sp], #8
 8000702:	bf00      	nop

08000704 <__aeabi_f2iz>:
 8000704:	ea4f 0240 	mov.w	r2, r0, lsl #1
 8000708:	f1b2 4ffe 	cmp.w	r2, #2130706432	; 0x7f000000
 800070c:	d30f      	bcc.n	800072e <__aeabi_f2iz+0x2a>
 800070e:	f04f 039e 	mov.w	r3, #158	; 0x9e
 8000712:	ebb3 6212 	subs.w	r2, r3, r2, lsr #24
 8000716:	d90d      	bls.n	8000734 <__aeabi_f2iz+0x30>
 8000718:	ea4f 2300 	mov.w	r3, r0, lsl #8
 800071c:	f043 4300 	orr.w	r3, r3, #2147483648	; 0x80000000
 8000720:	f010 4f00 	tst.w	r0, #2147483648	; 0x80000000
 8000724:	fa23 f002 	lsr.w	r0, r3, r2
 8000728:	bf18      	it	ne
 800072a:	4240      	negne	r0, r0
 800072c:	4770      	bx	lr
 800072e:	f04f 0000 	mov.w	r0, #0
 8000732:	4770      	bx	lr
 8000734:	f112 0f61 	cmn.w	r2, #97	; 0x61
 8000738:	d101      	bne.n	800073e <__aeabi_f2iz+0x3a>
 800073a:	0242      	lsls	r2, r0, #9
 800073c:	d105      	bne.n	800074a <__aeabi_f2iz+0x46>
 800073e:	f010 4000 	ands.w	r0, r0, #2147483648	; 0x80000000
 8000742:	bf08      	it	eq
 8000744:	f06f 4000 	mvneq.w	r0, #2147483648	; 0x80000000
 8000748:	4770      	bx	lr
 800074a:	f04f 0000 	mov.w	r0, #0
 800074e:	4770      	bx	lr

08000750 <__aeabi_f2uiz>:
 8000750:	0042      	lsls	r2, r0, #1
 8000752:	d20e      	bcs.n	8000772 <__aeabi_f2uiz+0x22>
 8000754:	f1b2 4ffe 	cmp.w	r2, #2130706432	; 0x7f000000
 8000758:	d30b      	bcc.n	8000772 <__aeabi_f2uiz+0x22>
 800075a:	f04f 039e 	mov.w	r3, #158	; 0x9e
 800075e:	ebb3 6212 	subs.w	r2, r3, r2, lsr #24
 8000762:	d409      	bmi.n	8000778 <__aeabi_f2uiz+0x28>
 8000764:	ea4f 2300 	mov.w	r3, r0, lsl #8
 8000768:	f043 4300 	orr.w	r3, r3, #2147483648	; 0x80000000
 800076c:	fa23 f002 	lsr.w	r0, r3, r2
 8000770:	4770      	bx	lr
 8000772:	f04f 0000 	mov.w	r0, #0
 8000776:	4770      	bx	lr
 8000778:	f112 0f61 	cmn.w	r2, #97	; 0x61
 800077c:	d101      	bne.n	8000782 <__aeabi_f2uiz+0x32>
 800077e:	0242      	lsls	r2, r0, #9
 8000780:	d102      	bne.n	8000788 <__aeabi_f2uiz+0x38>
 8000782:	f04f 30ff 	mov.w	r0, #4294967295
 8000786:	4770      	bx	lr
 8000788:	f04f 0000 	mov.w	r0, #0
 800078c:	4770      	bx	lr
 800078e:	bf00      	nop

08000790 <Rotary_Switch_Handler>:
 *  Created on: Jul 30, 2024
 *      Author: I
 */

//---------------------------------------------------------------------------------
void Rotary_Switch_Handler(struct Rotary_Switch *self){
 8000790:	b580      	push	{r7, lr}
 8000792:	b082      	sub	sp, #8
 8000794:	af00      	add	r7, sp, #0
 8000796:	6078      	str	r0, [r7, #4]
	self->event=1;
 8000798:	687a      	ldr	r2, [r7, #4]
 800079a:	7853      	ldrb	r3, [r2, #1]
 800079c:	f043 0302 	orr.w	r3, r3, #2
 80007a0:	7053      	strb	r3, [r2, #1]
	Incoder_Handler(self->base);
 80007a2:	687b      	ldr	r3, [r7, #4]
 80007a4:	68db      	ldr	r3, [r3, #12]
 80007a6:	4618      	mov	r0, r3
 80007a8:	f000 fbba 	bl	8000f20 <Incoder_Handler>
	self->event=0;
 80007ac:	687a      	ldr	r2, [r7, #4]
 80007ae:	7853      	ldrb	r3, [r2, #1]
 80007b0:	f36f 0341 	bfc	r3, #1, #1
 80007b4:	7053      	strb	r3, [r2, #1]
}
 80007b6:	bf00      	nop
 80007b8:	3708      	adds	r7, #8
 80007ba:	46bd      	mov	sp, r7
 80007bc:	bd80      	pop	{r7, pc}

080007be <Rotary_Switch_EXTI>:
//---------------------------------------------------------------------------------
void Rotary_Switch_EXTI(struct Rotary_Switch *self, uint16_t* GPIO){
 80007be:	b580      	push	{r7, lr}
 80007c0:	b082      	sub	sp, #8
 80007c2:	af00      	add	r7, sp, #0
 80007c4:	6078      	str	r0, [r7, #4]
 80007c6:	6039      	str	r1, [r7, #0]
	if(self->EXTI_PIN==*GPIO){
 80007c8:	687b      	ldr	r3, [r7, #4]
 80007ca:	885a      	ldrh	r2, [r3, #2]
 80007cc:	683b      	ldr	r3, [r7, #0]
 80007ce:	881b      	ldrh	r3, [r3, #0]
 80007d0:	429a      	cmp	r2, r3
 80007d2:	d113      	bne.n	80007fc <Rotary_Switch_EXTI+0x3e>
		self->State=HAL_GPIO_ReadPin(self->GPIO,self->PIN);
 80007d4:	687b      	ldr	r3, [r7, #4]
 80007d6:	689a      	ldr	r2, [r3, #8]
 80007d8:	687b      	ldr	r3, [r7, #4]
 80007da:	889b      	ldrh	r3, [r3, #4]
 80007dc:	4619      	mov	r1, r3
 80007de:	4610      	mov	r0, r2
 80007e0:	f006 f81c 	bl	800681c <HAL_GPIO_ReadPin>
 80007e4:	4603      	mov	r3, r0
 80007e6:	f003 0301 	and.w	r3, r3, #1
 80007ea:	b2d9      	uxtb	r1, r3
 80007ec:	687a      	ldr	r2, [r7, #4]
 80007ee:	7853      	ldrb	r3, [r2, #1]
 80007f0:	f361 0300 	bfi	r3, r1, #0, #1
 80007f4:	7053      	strb	r3, [r2, #1]
		Rotary_Switch_Handler(self);
 80007f6:	6878      	ldr	r0, [r7, #4]
 80007f8:	f7ff ffca 	bl	8000790 <Rotary_Switch_Handler>
	}
}
 80007fc:	bf00      	nop
 80007fe:	3708      	adds	r7, #8
 8000800:	46bd      	mov	sp, r7
 8000802:	bd80      	pop	{r7, pc}

08000804 <Button_EXTI>:
//---------------------------------------------------------------------------------
void Button_EXTI(struct Button* self,uint16_t* GPIO){
 8000804:	b480      	push	{r7}
 8000806:	b083      	sub	sp, #12
 8000808:	af00      	add	r7, sp, #0
 800080a:	6078      	str	r0, [r7, #4]
 800080c:	6039      	str	r1, [r7, #0]
	if(self->EXTI_PIN==*GPIO){
 800080e:	687b      	ldr	r3, [r7, #4]
 8000810:	891a      	ldrh	r2, [r3, #8]
 8000812:	683b      	ldr	r3, [r7, #0]
 8000814:	881b      	ldrh	r3, [r3, #0]
 8000816:	429a      	cmp	r2, r3
 8000818:	d10a      	bne.n	8000830 <Button_EXTI+0x2c>
		self->Flag=1;
 800081a:	687a      	ldr	r2, [r7, #4]
 800081c:	7993      	ldrb	r3, [r2, #6]
 800081e:	f043 0301 	orr.w	r3, r3, #1
 8000822:	7193      	strb	r3, [r2, #6]
		self->count=0;
 8000824:	687b      	ldr	r3, [r7, #4]
 8000826:	2200      	movs	r2, #0
 8000828:	711a      	strb	r2, [r3, #4]
		self->Presed_counter=0;
 800082a:	687b      	ldr	r3, [r7, #4]
 800082c:	2200      	movs	r2, #0
 800082e:	709a      	strb	r2, [r3, #2]
	}
}
 8000830:	bf00      	nop
 8000832:	370c      	adds	r7, #12
 8000834:	46bd      	mov	sp, r7
 8000836:	bc80      	pop	{r7}
 8000838:	4770      	bx	lr

0800083a <Incoder_EXTI>:
//---------------------------------------------------------------------------------
void Incoder_EXTI(struct Incoder *self, uint16_t* GPIO){
 800083a:	b580      	push	{r7, lr}
 800083c:	b082      	sub	sp, #8
 800083e:	af00      	add	r7, sp, #0
 8000840:	6078      	str	r0, [r7, #4]
 8000842:	6039      	str	r1, [r7, #0]
	Rotary_Switch_EXTI(&(self->Rotary_Switch),  GPIO);
 8000844:	687b      	ldr	r3, [r7, #4]
 8000846:	331c      	adds	r3, #28
 8000848:	6839      	ldr	r1, [r7, #0]
 800084a:	4618      	mov	r0, r3
 800084c:	f7ff ffb7 	bl	80007be <Rotary_Switch_EXTI>
	Button_EXTI(&(self->Button), GPIO);
 8000850:	687b      	ldr	r3, [r7, #4]
 8000852:	3304      	adds	r3, #4
 8000854:	6839      	ldr	r1, [r7, #0]
 8000856:	4618      	mov	r0, r3
 8000858:	f7ff ffd4 	bl	8000804 <Button_EXTI>
}
 800085c:	bf00      	nop
 800085e:	3708      	adds	r7, #8
 8000860:	46bd      	mov	sp, r7
 8000862:	bd80      	pop	{r7, pc}

08000864 <Button_MODE_it>:
//---------------------------------------------------------------------------------
void Button_MODE_it(struct Button* self){
 8000864:	b590      	push	{r4, r7, lr}
 8000866:	b083      	sub	sp, #12
 8000868:	af00      	add	r7, sp, #0
 800086a:	6078      	str	r0, [r7, #4]
	switch (self->MODE){
 800086c:	687b      	ldr	r3, [r7, #4]
 800086e:	7c1b      	ldrb	r3, [r3, #16]
 8000870:	2b02      	cmp	r3, #2
 8000872:	d076      	beq.n	8000962 <Button_MODE_it+0xfe>
 8000874:	2b02      	cmp	r3, #2
 8000876:	f300 80d6 	bgt.w	8000a26 <Button_MODE_it+0x1c2>
 800087a:	2b00      	cmp	r3, #0
 800087c:	d002      	beq.n	8000884 <Button_MODE_it+0x20>
 800087e:	2b01      	cmp	r3, #1
 8000880:	d02f      	beq.n	80008e2 <Button_MODE_it+0x7e>
				self->Previos_Stable_State=self->Stable_State;
			}
			self->count=0;
		break;
	}
}
 8000882:	e0d0      	b.n	8000a26 <Button_MODE_it+0x1c2>
			if(self->PIN_State==HAL_GPIO_ReadPin(self->GPIO,self->PIN)){
 8000884:	687b      	ldr	r3, [r7, #4]
 8000886:	785b      	ldrb	r3, [r3, #1]
 8000888:	f3c3 0300 	ubfx	r3, r3, #0, #1
 800088c:	b2db      	uxtb	r3, r3
 800088e:	461c      	mov	r4, r3
 8000890:	687b      	ldr	r3, [r7, #4]
 8000892:	68da      	ldr	r2, [r3, #12]
 8000894:	687b      	ldr	r3, [r7, #4]
 8000896:	895b      	ldrh	r3, [r3, #10]
 8000898:	4619      	mov	r1, r3
 800089a:	4610      	mov	r0, r2
 800089c:	f005 ffbe 	bl	800681c <HAL_GPIO_ReadPin>
 80008a0:	4603      	mov	r3, r0
 80008a2:	429c      	cmp	r4, r3
 80008a4:	d114      	bne.n	80008d0 <Button_MODE_it+0x6c>
				self->State=self->PIN_State;
 80008a6:	687b      	ldr	r3, [r7, #4]
 80008a8:	785b      	ldrb	r3, [r3, #1]
 80008aa:	f3c3 0300 	ubfx	r3, r3, #0, #1
 80008ae:	b2db      	uxtb	r3, r3
 80008b0:	461a      	mov	r2, r3
 80008b2:	687b      	ldr	r3, [r7, #4]
 80008b4:	71da      	strb	r2, [r3, #7]
				Button_Handler(self);
 80008b6:	6878      	ldr	r0, [r7, #4]
 80008b8:	f001 fb5e 	bl	8001f78 <Button_Handler>
				self->Previos_Stable_State=self->State;
 80008bc:	687b      	ldr	r3, [r7, #4]
 80008be:	79db      	ldrb	r3, [r3, #7]
 80008c0:	f003 0301 	and.w	r3, r3, #1
 80008c4:	b2d9      	uxtb	r1, r3
 80008c6:	687a      	ldr	r2, [r7, #4]
 80008c8:	7853      	ldrb	r3, [r2, #1]
 80008ca:	f361 03c3 	bfi	r3, r1, #3, #1
 80008ce:	7053      	strb	r3, [r2, #1]
			self->count=0;
 80008d0:	687b      	ldr	r3, [r7, #4]
 80008d2:	2200      	movs	r2, #0
 80008d4:	711a      	strb	r2, [r3, #4]
			self->Flag=0;
 80008d6:	687a      	ldr	r2, [r7, #4]
 80008d8:	7993      	ldrb	r3, [r2, #6]
 80008da:	f36f 0300 	bfc	r3, #0, #1
 80008de:	7193      	strb	r3, [r2, #6]
		break;
 80008e0:	e0a1      	b.n	8000a26 <Button_MODE_it+0x1c2>
			if(self->PIN_State==HAL_GPIO_ReadPin(self->GPIO,self->PIN)){
 80008e2:	687b      	ldr	r3, [r7, #4]
 80008e4:	785b      	ldrb	r3, [r3, #1]
 80008e6:	f3c3 0300 	ubfx	r3, r3, #0, #1
 80008ea:	b2db      	uxtb	r3, r3
 80008ec:	461c      	mov	r4, r3
 80008ee:	687b      	ldr	r3, [r7, #4]
 80008f0:	68da      	ldr	r2, [r3, #12]
 80008f2:	687b      	ldr	r3, [r7, #4]
 80008f4:	895b      	ldrh	r3, [r3, #10]
 80008f6:	4619      	mov	r1, r3
 80008f8:	4610      	mov	r0, r2
 80008fa:	f005 ff8f 	bl	800681c <HAL_GPIO_ReadPin>
 80008fe:	4603      	mov	r3, r0
 8000900:	429c      	cmp	r4, r3
 8000902:	d12a      	bne.n	800095a <Button_MODE_it+0xf6>
				self->Stable_State=self->PIN_State;
 8000904:	687b      	ldr	r3, [r7, #4]
 8000906:	785b      	ldrb	r3, [r3, #1]
 8000908:	f3c3 0300 	ubfx	r3, r3, #0, #1
 800090c:	b2d9      	uxtb	r1, r3
 800090e:	687a      	ldr	r2, [r7, #4]
 8000910:	7853      	ldrb	r3, [r2, #1]
 8000912:	f361 0382 	bfi	r3, r1, #2, #1
 8000916:	7053      	strb	r3, [r2, #1]
				if(self->Stable_State!=self->Previos_Stable_State){
 8000918:	687b      	ldr	r3, [r7, #4]
 800091a:	785b      	ldrb	r3, [r3, #1]
 800091c:	f3c3 0380 	ubfx	r3, r3, #2, #1
 8000920:	b2da      	uxtb	r2, r3
 8000922:	687b      	ldr	r3, [r7, #4]
 8000924:	785b      	ldrb	r3, [r3, #1]
 8000926:	f3c3 03c0 	ubfx	r3, r3, #3, #1
 800092a:	b2db      	uxtb	r3, r3
 800092c:	429a      	cmp	r2, r3
 800092e:	d00a      	beq.n	8000946 <Button_MODE_it+0xe2>
					self->State=self->PIN_State;
 8000930:	687b      	ldr	r3, [r7, #4]
 8000932:	785b      	ldrb	r3, [r3, #1]
 8000934:	f3c3 0300 	ubfx	r3, r3, #0, #1
 8000938:	b2db      	uxtb	r3, r3
 800093a:	461a      	mov	r2, r3
 800093c:	687b      	ldr	r3, [r7, #4]
 800093e:	71da      	strb	r2, [r3, #7]
					Button_Handler(self);
 8000940:	6878      	ldr	r0, [r7, #4]
 8000942:	f001 fb19 	bl	8001f78 <Button_Handler>
				self->Previos_Stable_State=self->Stable_State;
 8000946:	687b      	ldr	r3, [r7, #4]
 8000948:	785b      	ldrb	r3, [r3, #1]
 800094a:	f3c3 0380 	ubfx	r3, r3, #2, #1
 800094e:	b2d9      	uxtb	r1, r3
 8000950:	687a      	ldr	r2, [r7, #4]
 8000952:	7853      	ldrb	r3, [r2, #1]
 8000954:	f361 03c3 	bfi	r3, r1, #3, #1
 8000958:	7053      	strb	r3, [r2, #1]
			self->count=0;
 800095a:	687b      	ldr	r3, [r7, #4]
 800095c:	2200      	movs	r2, #0
 800095e:	711a      	strb	r2, [r3, #4]
		break;
 8000960:	e061      	b.n	8000a26 <Button_MODE_it+0x1c2>
			if(self->PIN_State==HAL_GPIO_ReadPin(self->GPIO,self->PIN)){
 8000962:	687b      	ldr	r3, [r7, #4]
 8000964:	785b      	ldrb	r3, [r3, #1]
 8000966:	f3c3 0300 	ubfx	r3, r3, #0, #1
 800096a:	b2db      	uxtb	r3, r3
 800096c:	461c      	mov	r4, r3
 800096e:	687b      	ldr	r3, [r7, #4]
 8000970:	68da      	ldr	r2, [r3, #12]
 8000972:	687b      	ldr	r3, [r7, #4]
 8000974:	895b      	ldrh	r3, [r3, #10]
 8000976:	4619      	mov	r1, r3
 8000978:	4610      	mov	r0, r2
 800097a:	f005 ff4f 	bl	800681c <HAL_GPIO_ReadPin>
 800097e:	4603      	mov	r3, r0
 8000980:	429c      	cmp	r4, r3
 8000982:	d14c      	bne.n	8000a1e <Button_MODE_it+0x1ba>
				self->Stable_State=self->PIN_State;
 8000984:	687b      	ldr	r3, [r7, #4]
 8000986:	785b      	ldrb	r3, [r3, #1]
 8000988:	f3c3 0300 	ubfx	r3, r3, #0, #1
 800098c:	b2d9      	uxtb	r1, r3
 800098e:	687a      	ldr	r2, [r7, #4]
 8000990:	7853      	ldrb	r3, [r2, #1]
 8000992:	f361 0382 	bfi	r3, r1, #2, #1
 8000996:	7053      	strb	r3, [r2, #1]
				if(self->Stable_State==GPIO_PIN_RESET){
 8000998:	687b      	ldr	r3, [r7, #4]
 800099a:	785b      	ldrb	r3, [r3, #1]
 800099c:	f003 0304 	and.w	r3, r3, #4
 80009a0:	b2db      	uxtb	r3, r3
 80009a2:	2b00      	cmp	r3, #0
 80009a4:	d106      	bne.n	80009b4 <Button_MODE_it+0x150>
					self->Presed_counter++;
 80009a6:	687b      	ldr	r3, [r7, #4]
 80009a8:	789b      	ldrb	r3, [r3, #2]
 80009aa:	3301      	adds	r3, #1
 80009ac:	b2da      	uxtb	r2, r3
 80009ae:	687b      	ldr	r3, [r7, #4]
 80009b0:	709a      	strb	r2, [r3, #2]
 80009b2:	e02a      	b.n	8000a0a <Button_MODE_it+0x1a6>
				else if(self->Previos_Stable_State==GPIO_PIN_RESET){
 80009b4:	687b      	ldr	r3, [r7, #4]
 80009b6:	785b      	ldrb	r3, [r3, #1]
 80009b8:	f003 0308 	and.w	r3, r3, #8
 80009bc:	b2db      	uxtb	r3, r3
 80009be:	2b00      	cmp	r3, #0
 80009c0:	d123      	bne.n	8000a0a <Button_MODE_it+0x1a6>
					if(self->Presed_counter<self->Presed_counter_max)
 80009c2:	687b      	ldr	r3, [r7, #4]
 80009c4:	789a      	ldrb	r2, [r3, #2]
 80009c6:	687b      	ldr	r3, [r7, #4]
 80009c8:	78db      	ldrb	r3, [r3, #3]
 80009ca:	429a      	cmp	r2, r3
 80009cc:	d203      	bcs.n	80009d6 <Button_MODE_it+0x172>
						self->State=1;
 80009ce:	687b      	ldr	r3, [r7, #4]
 80009d0:	2201      	movs	r2, #1
 80009d2:	71da      	strb	r2, [r3, #7]
 80009d4:	e002      	b.n	80009dc <Button_MODE_it+0x178>
						self->State=2;
 80009d6:	687b      	ldr	r3, [r7, #4]
 80009d8:	2202      	movs	r2, #2
 80009da:	71da      	strb	r2, [r3, #7]
					self->Presed_counter=0;
 80009dc:	687b      	ldr	r3, [r7, #4]
 80009de:	2200      	movs	r2, #0
 80009e0:	709a      	strb	r2, [r3, #2]
					self->Flag=0;
 80009e2:	687a      	ldr	r2, [r7, #4]
 80009e4:	7993      	ldrb	r3, [r2, #6]
 80009e6:	f36f 0300 	bfc	r3, #0, #1
 80009ea:	7193      	strb	r3, [r2, #6]
					self->event=1;
 80009ec:	687a      	ldr	r2, [r7, #4]
 80009ee:	7993      	ldrb	r3, [r2, #6]
 80009f0:	f043 0302 	orr.w	r3, r3, #2
 80009f4:	7193      	strb	r3, [r2, #6]
					Incoder_Handler(self->base);
 80009f6:	687b      	ldr	r3, [r7, #4]
 80009f8:	695b      	ldr	r3, [r3, #20]
 80009fa:	4618      	mov	r0, r3
 80009fc:	f000 fa90 	bl	8000f20 <Incoder_Handler>
					self->event=0;
 8000a00:	687a      	ldr	r2, [r7, #4]
 8000a02:	7993      	ldrb	r3, [r2, #6]
 8000a04:	f36f 0341 	bfc	r3, #1, #1
 8000a08:	7193      	strb	r3, [r2, #6]
				self->Previos_Stable_State=self->Stable_State;
 8000a0a:	687b      	ldr	r3, [r7, #4]
 8000a0c:	785b      	ldrb	r3, [r3, #1]
 8000a0e:	f3c3 0380 	ubfx	r3, r3, #2, #1
 8000a12:	b2d9      	uxtb	r1, r3
 8000a14:	687a      	ldr	r2, [r7, #4]
 8000a16:	7853      	ldrb	r3, [r2, #1]
 8000a18:	f361 03c3 	bfi	r3, r1, #3, #1
 8000a1c:	7053      	strb	r3, [r2, #1]
			self->count=0;
 8000a1e:	687b      	ldr	r3, [r7, #4]
 8000a20:	2200      	movs	r2, #0
 8000a22:	711a      	strb	r2, [r3, #4]
		break;
 8000a24:	bf00      	nop
}
 8000a26:	bf00      	nop
 8000a28:	370c      	adds	r7, #12
 8000a2a:	46bd      	mov	sp, r7
 8000a2c:	bd90      	pop	{r4, r7, pc}

08000a2e <Button_it>:
//---------------------------------------------------------------------------------
void Button_it(struct Button* self){
 8000a2e:	b580      	push	{r7, lr}
 8000a30:	b082      	sub	sp, #8
 8000a32:	af00      	add	r7, sp, #0
 8000a34:	6078      	str	r0, [r7, #4]
	if(self->Flag==1){
 8000a36:	687b      	ldr	r3, [r7, #4]
 8000a38:	799b      	ldrb	r3, [r3, #6]
 8000a3a:	f003 0301 	and.w	r3, r3, #1
 8000a3e:	b2db      	uxtb	r3, r3
 8000a40:	2b00      	cmp	r3, #0
 8000a42:	d024      	beq.n	8000a8e <Button_it+0x60>
		if(self->count==1){
 8000a44:	687b      	ldr	r3, [r7, #4]
 8000a46:	791b      	ldrb	r3, [r3, #4]
 8000a48:	2b01      	cmp	r3, #1
 8000a4a:	d111      	bne.n	8000a70 <Button_it+0x42>
			self->PIN_State=HAL_GPIO_ReadPin(self->GPIO,self->PIN);
 8000a4c:	687b      	ldr	r3, [r7, #4]
 8000a4e:	68da      	ldr	r2, [r3, #12]
 8000a50:	687b      	ldr	r3, [r7, #4]
 8000a52:	895b      	ldrh	r3, [r3, #10]
 8000a54:	4619      	mov	r1, r3
 8000a56:	4610      	mov	r0, r2
 8000a58:	f005 fee0 	bl	800681c <HAL_GPIO_ReadPin>
 8000a5c:	4603      	mov	r3, r0
 8000a5e:	f003 0301 	and.w	r3, r3, #1
 8000a62:	b2d9      	uxtb	r1, r3
 8000a64:	687a      	ldr	r2, [r7, #4]
 8000a66:	7853      	ldrb	r3, [r2, #1]
 8000a68:	f361 0300 	bfi	r3, r1, #0, #1
 8000a6c:	7053      	strb	r3, [r2, #1]
 8000a6e:	e008      	b.n	8000a82 <Button_it+0x54>
		}
		else if(self->count==self->count_max){
 8000a70:	687b      	ldr	r3, [r7, #4]
 8000a72:	791a      	ldrb	r2, [r3, #4]
 8000a74:	687b      	ldr	r3, [r7, #4]
 8000a76:	795b      	ldrb	r3, [r3, #5]
 8000a78:	429a      	cmp	r2, r3
 8000a7a:	d102      	bne.n	8000a82 <Button_it+0x54>
			Button_MODE_it(self);
 8000a7c:	6878      	ldr	r0, [r7, #4]
 8000a7e:	f7ff fef1 	bl	8000864 <Button_MODE_it>
		}
		self->count++;
 8000a82:	687b      	ldr	r3, [r7, #4]
 8000a84:	791b      	ldrb	r3, [r3, #4]
 8000a86:	3301      	adds	r3, #1
 8000a88:	b2da      	uxtb	r2, r3
 8000a8a:	687b      	ldr	r3, [r7, #4]
 8000a8c:	711a      	strb	r2, [r3, #4]
	}
}
 8000a8e:	bf00      	nop
 8000a90:	3708      	adds	r7, #8
 8000a92:	46bd      	mov	sp, r7
 8000a94:	bd80      	pop	{r7, pc}

08000a96 <Incoder_it>:
//---------------------------------------------------------------------------------
void Incoder_it(struct Incoder *self){
 8000a96:	b580      	push	{r7, lr}
 8000a98:	b082      	sub	sp, #8
 8000a9a:	af00      	add	r7, sp, #0
 8000a9c:	6078      	str	r0, [r7, #4]
	Button_it(&self->Button);
 8000a9e:	687b      	ldr	r3, [r7, #4]
 8000aa0:	3304      	adds	r3, #4
 8000aa2:	4618      	mov	r0, r3
 8000aa4:	f7ff ffc3 	bl	8000a2e <Button_it>
}
 8000aa8:	bf00      	nop
 8000aaa:	3708      	adds	r7, #8
 8000aac:	46bd      	mov	sp, r7
 8000aae:	bd80      	pop	{r7, pc}

08000ab0 <Button_ini>:
//---------------------------------------------------------------------------------
void Button_ini(struct Button* self){
 8000ab0:	b480      	push	{r7}
 8000ab2:	b083      	sub	sp, #12
 8000ab4:	af00      	add	r7, sp, #0
 8000ab6:	6078      	str	r0, [r7, #4]
	self->count=0;
 8000ab8:	687b      	ldr	r3, [r7, #4]
 8000aba:	2200      	movs	r2, #0
 8000abc:	711a      	strb	r2, [r3, #4]
	self->Presed_counter=0;
 8000abe:	687b      	ldr	r3, [r7, #4]
 8000ac0:	2200      	movs	r2, #0
 8000ac2:	709a      	strb	r2, [r3, #2]
	self->Previos_Stable_State=1;
 8000ac4:	687a      	ldr	r2, [r7, #4]
 8000ac6:	7853      	ldrb	r3, [r2, #1]
 8000ac8:	f043 0308 	orr.w	r3, r3, #8
 8000acc:	7053      	strb	r3, [r2, #1]
	self->event=0;
 8000ace:	687a      	ldr	r2, [r7, #4]
 8000ad0:	7993      	ldrb	r3, [r2, #6]
 8000ad2:	f36f 0341 	bfc	r3, #1, #1
 8000ad6:	7193      	strb	r3, [r2, #6]
	if(self->MODE==Button_Mode_Regular_Without_EXTI)
 8000ad8:	687b      	ldr	r3, [r7, #4]
 8000ada:	7c1b      	ldrb	r3, [r3, #16]
 8000adc:	2b01      	cmp	r3, #1
 8000ade:	d105      	bne.n	8000aec <Button_ini+0x3c>
		self->Flag=1;
 8000ae0:	687a      	ldr	r2, [r7, #4]
 8000ae2:	7993      	ldrb	r3, [r2, #6]
 8000ae4:	f043 0301 	orr.w	r3, r3, #1
 8000ae8:	7193      	strb	r3, [r2, #6]
	else
		self->Flag=0;
}
 8000aea:	e004      	b.n	8000af6 <Button_ini+0x46>
		self->Flag=0;
 8000aec:	687a      	ldr	r2, [r7, #4]
 8000aee:	7993      	ldrb	r3, [r2, #6]
 8000af0:	f36f 0300 	bfc	r3, #0, #1
 8000af4:	7193      	strb	r3, [r2, #6]
}
 8000af6:	bf00      	nop
 8000af8:	370c      	adds	r7, #12
 8000afa:	46bd      	mov	sp, r7
 8000afc:	bc80      	pop	{r7}
 8000afe:	4770      	bx	lr

08000b00 <Button_Vector_Create>:
//---------------------------------------------------------------------------------
void Button_Vector_Create(struct Button_Vector *Vector, struct Button *Button){
 8000b00:	b5b0      	push	{r4, r5, r7, lr}
 8000b02:	b086      	sub	sp, #24
 8000b04:	af00      	add	r7, sp, #0
 8000b06:	6078      	str	r0, [r7, #4]
 8000b08:	6039      	str	r1, [r7, #0]
	Button_ini(Button);
 8000b0a:	6838      	ldr	r0, [r7, #0]
 8000b0c:	f7ff ffd0 	bl	8000ab0 <Button_ini>
	struct Button *Bpr= malloc(sizeof(struct Button));
 8000b10:	2018      	movs	r0, #24
 8000b12:	f008 f8c1 	bl	8008c98 <malloc>
 8000b16:	4603      	mov	r3, r0
 8000b18:	613b      	str	r3, [r7, #16]
	*Bpr= *Button;
 8000b1a:	693a      	ldr	r2, [r7, #16]
 8000b1c:	683b      	ldr	r3, [r7, #0]
 8000b1e:	4614      	mov	r4, r2
 8000b20:	461d      	mov	r5, r3
 8000b22:	cd0f      	ldmia	r5!, {r0, r1, r2, r3}
 8000b24:	c40f      	stmia	r4!, {r0, r1, r2, r3}
 8000b26:	e895 0003 	ldmia.w	r5, {r0, r1}
 8000b2a:	e884 0003 	stmia.w	r4, {r0, r1}
	if(Vector->Button==NULL)
 8000b2e:	687b      	ldr	r3, [r7, #4]
 8000b30:	685b      	ldr	r3, [r3, #4]
 8000b32:	2b00      	cmp	r3, #0
 8000b34:	d103      	bne.n	8000b3e <Button_Vector_Create+0x3e>
		Vector->Button=Bpr;
 8000b36:	687b      	ldr	r3, [r7, #4]
 8000b38:	693a      	ldr	r2, [r7, #16]
 8000b3a:	605a      	str	r2, [r3, #4]
		}
		Vpr->Button=Bpr;
		NOW->next=Vpr;
		NOW->next->next=NULL;
	}
}
 8000b3c:	e018      	b.n	8000b70 <Button_Vector_Create+0x70>
		struct Button_Vector *Vpr= malloc(sizeof(struct Button_Vector));
 8000b3e:	2008      	movs	r0, #8
 8000b40:	f008 f8aa 	bl	8008c98 <malloc>
 8000b44:	4603      	mov	r3, r0
 8000b46:	60fb      	str	r3, [r7, #12]
		struct Button_Vector *NOW=Vector;
 8000b48:	687b      	ldr	r3, [r7, #4]
 8000b4a:	617b      	str	r3, [r7, #20]
		while(NOW->next!=NULL){
 8000b4c:	e002      	b.n	8000b54 <Button_Vector_Create+0x54>
			NOW=NOW->next;
 8000b4e:	697b      	ldr	r3, [r7, #20]
 8000b50:	681b      	ldr	r3, [r3, #0]
 8000b52:	617b      	str	r3, [r7, #20]
		while(NOW->next!=NULL){
 8000b54:	697b      	ldr	r3, [r7, #20]
 8000b56:	681b      	ldr	r3, [r3, #0]
 8000b58:	2b00      	cmp	r3, #0
 8000b5a:	d1f8      	bne.n	8000b4e <Button_Vector_Create+0x4e>
		Vpr->Button=Bpr;
 8000b5c:	68fb      	ldr	r3, [r7, #12]
 8000b5e:	693a      	ldr	r2, [r7, #16]
 8000b60:	605a      	str	r2, [r3, #4]
		NOW->next=Vpr;
 8000b62:	697b      	ldr	r3, [r7, #20]
 8000b64:	68fa      	ldr	r2, [r7, #12]
 8000b66:	601a      	str	r2, [r3, #0]
		NOW->next->next=NULL;
 8000b68:	697b      	ldr	r3, [r7, #20]
 8000b6a:	681b      	ldr	r3, [r3, #0]
 8000b6c:	2200      	movs	r2, #0
 8000b6e:	601a      	str	r2, [r3, #0]
}
 8000b70:	bf00      	nop
 8000b72:	3718      	adds	r7, #24
 8000b74:	46bd      	mov	sp, r7
 8000b76:	bdb0      	pop	{r4, r5, r7, pc}

08000b78 <Button_Vector_EXTI>:
//---------------------------------------------------------------------------------
void Button_Vector_EXTI(struct Button_Vector *self,uint16_t* GPIO){
 8000b78:	b580      	push	{r7, lr}
 8000b7a:	b084      	sub	sp, #16
 8000b7c:	af00      	add	r7, sp, #0
 8000b7e:	6078      	str	r0, [r7, #4]
 8000b80:	6039      	str	r1, [r7, #0]
	struct Button_Vector *NOW=self;
 8000b82:	687b      	ldr	r3, [r7, #4]
 8000b84:	60fb      	str	r3, [r7, #12]
	do{
		Button_EXTI(NOW->Button,GPIO);
 8000b86:	68fb      	ldr	r3, [r7, #12]
 8000b88:	685b      	ldr	r3, [r3, #4]
 8000b8a:	6839      	ldr	r1, [r7, #0]
 8000b8c:	4618      	mov	r0, r3
 8000b8e:	f7ff fe39 	bl	8000804 <Button_EXTI>
		NOW=NOW->next;
 8000b92:	68fb      	ldr	r3, [r7, #12]
 8000b94:	681b      	ldr	r3, [r3, #0]
 8000b96:	60fb      	str	r3, [r7, #12]
	}while(NOW!=NULL);
 8000b98:	68fb      	ldr	r3, [r7, #12]
 8000b9a:	2b00      	cmp	r3, #0
 8000b9c:	d1f3      	bne.n	8000b86 <Button_Vector_EXTI+0xe>
}
 8000b9e:	bf00      	nop
 8000ba0:	bf00      	nop
 8000ba2:	3710      	adds	r7, #16
 8000ba4:	46bd      	mov	sp, r7
 8000ba6:	bd80      	pop	{r7, pc}

08000ba8 <Button_Vector_it>:
//---------------------------------------------------------------------------------
void Button_Vector_it(struct Button_Vector *self){
 8000ba8:	b580      	push	{r7, lr}
 8000baa:	b084      	sub	sp, #16
 8000bac:	af00      	add	r7, sp, #0
 8000bae:	6078      	str	r0, [r7, #4]
	struct Button_Vector *NOW=self;
 8000bb0:	687b      	ldr	r3, [r7, #4]
 8000bb2:	60fb      	str	r3, [r7, #12]
	do{
		Button_it(NOW->Button);
 8000bb4:	68fb      	ldr	r3, [r7, #12]
 8000bb6:	685b      	ldr	r3, [r3, #4]
 8000bb8:	4618      	mov	r0, r3
 8000bba:	f7ff ff38 	bl	8000a2e <Button_it>
		NOW=NOW->next;
 8000bbe:	68fb      	ldr	r3, [r7, #12]
 8000bc0:	681b      	ldr	r3, [r3, #0]
 8000bc2:	60fb      	str	r3, [r7, #12]
	} while(NOW!=NULL);
 8000bc4:	68fb      	ldr	r3, [r7, #12]
 8000bc6:	2b00      	cmp	r3, #0
 8000bc8:	d1f4      	bne.n	8000bb4 <Button_Vector_it+0xc>
}
 8000bca:	bf00      	nop
 8000bcc:	bf00      	nop
 8000bce:	3710      	adds	r7, #16
 8000bd0:	46bd      	mov	sp, r7
 8000bd2:	bd80      	pop	{r7, pc}

08000bd4 <Incoder_ini>:
//---------------------------------------------------------------------------------
void Rotary_Switch_ini(struct Rotary_Switch *self){

}
//---------------------------------------------------------------------------------
void Incoder_ini(struct Incoder *self){
 8000bd4:	b580      	push	{r7, lr}
 8000bd6:	b082      	sub	sp, #8
 8000bd8:	af00      	add	r7, sp, #0
 8000bda:	6078      	str	r0, [r7, #4]
	Button_ini(&(self->Button));
 8000bdc:	687b      	ldr	r3, [r7, #4]
 8000bde:	3304      	adds	r3, #4
 8000be0:	4618      	mov	r0, r3
 8000be2:	f7ff ff65 	bl	8000ab0 <Button_ini>
	self->Button.base=self;
 8000be6:	687b      	ldr	r3, [r7, #4]
 8000be8:	687a      	ldr	r2, [r7, #4]
 8000bea:	619a      	str	r2, [r3, #24]
	self->Rotary_Switch.base=self;
 8000bec:	687b      	ldr	r3, [r7, #4]
 8000bee:	687a      	ldr	r2, [r7, #4]
 8000bf0:	629a      	str	r2, [r3, #40]	; 0x28
	self->Button.ID=self->ID;
 8000bf2:	687b      	ldr	r3, [r7, #4]
 8000bf4:	781a      	ldrb	r2, [r3, #0]
 8000bf6:	687b      	ldr	r3, [r7, #4]
 8000bf8:	711a      	strb	r2, [r3, #4]
	self->Rotary_Switch.ID=self->ID;
 8000bfa:	687b      	ldr	r3, [r7, #4]
 8000bfc:	781a      	ldrb	r2, [r3, #0]
 8000bfe:	687b      	ldr	r3, [r7, #4]
 8000c00:	771a      	strb	r2, [r3, #28]
}
 8000c02:	bf00      	nop
 8000c04:	3708      	adds	r7, #8
 8000c06:	46bd      	mov	sp, r7
 8000c08:	bd80      	pop	{r7, pc}

08000c0a <Filter_Mediana_3>:
 8000c0a:	b480      	push	{r7}
 8000c0c:	b083      	sub	sp, #12
 8000c0e:	af00      	add	r7, sp, #0
 8000c10:	4603      	mov	r3, r0
 8000c12:	80fb      	strh	r3, [r7, #6]
 8000c14:	460b      	mov	r3, r1
 8000c16:	80bb      	strh	r3, [r7, #4]
 8000c18:	4613      	mov	r3, r2
 8000c1a:	807b      	strh	r3, [r7, #2]
 8000c1c:	88fa      	ldrh	r2, [r7, #6]
 8000c1e:	88bb      	ldrh	r3, [r7, #4]
 8000c20:	429a      	cmp	r2, r3
 8000c22:	d80d      	bhi.n	8000c40 <Filter_Mediana_3+0x36>
 8000c24:	88fa      	ldrh	r2, [r7, #6]
 8000c26:	887b      	ldrh	r3, [r7, #2]
 8000c28:	429a      	cmp	r2, r3
 8000c2a:	d807      	bhi.n	8000c3c <Filter_Mediana_3+0x32>
 8000c2c:	88ba      	ldrh	r2, [r7, #4]
 8000c2e:	887b      	ldrh	r3, [r7, #2]
 8000c30:	429a      	cmp	r2, r3
 8000c32:	d801      	bhi.n	8000c38 <Filter_Mediana_3+0x2e>
 8000c34:	88bb      	ldrh	r3, [r7, #4]
 8000c36:	e010      	b.n	8000c5a <Filter_Mediana_3+0x50>
 8000c38:	887b      	ldrh	r3, [r7, #2]
 8000c3a:	e00e      	b.n	8000c5a <Filter_Mediana_3+0x50>
 8000c3c:	88fb      	ldrh	r3, [r7, #6]
 8000c3e:	e00c      	b.n	8000c5a <Filter_Mediana_3+0x50>
 8000c40:	88fa      	ldrh	r2, [r7, #6]
 8000c42:	887b      	ldrh	r3, [r7, #2]
 8000c44:	429a      	cmp	r2, r3
 8000c46:	d801      	bhi.n	8000c4c <Filter_Mediana_3+0x42>
 8000c48:	887b      	ldrh	r3, [r7, #2]
 8000c4a:	e006      	b.n	8000c5a <Filter_Mediana_3+0x50>
 8000c4c:	88ba      	ldrh	r2, [r7, #4]
 8000c4e:	887b      	ldrh	r3, [r7, #2]
 8000c50:	429a      	cmp	r2, r3
 8000c52:	d801      	bhi.n	8000c58 <Filter_Mediana_3+0x4e>
 8000c54:	887b      	ldrh	r3, [r7, #2]
 8000c56:	e000      	b.n	8000c5a <Filter_Mediana_3+0x50>
 8000c58:	88bb      	ldrh	r3, [r7, #4]
 8000c5a:	4618      	mov	r0, r3
 8000c5c:	370c      	adds	r7, #12
 8000c5e:	46bd      	mov	sp, r7
 8000c60:	bc80      	pop	{r7}
 8000c62:	4770      	bx	lr

08000c64 <Filter_Mediana_9>:
 8000c64:	b5b0      	push	{r4, r5, r7, lr}
 8000c66:	b082      	sub	sp, #8
 8000c68:	af00      	add	r7, sp, #0
 8000c6a:	6078      	str	r0, [r7, #4]
 8000c6c:	687b      	ldr	r3, [r7, #4]
 8000c6e:	8818      	ldrh	r0, [r3, #0]
 8000c70:	687b      	ldr	r3, [r7, #4]
 8000c72:	3302      	adds	r3, #2
 8000c74:	8819      	ldrh	r1, [r3, #0]
 8000c76:	687b      	ldr	r3, [r7, #4]
 8000c78:	3304      	adds	r3, #4
 8000c7a:	881b      	ldrh	r3, [r3, #0]
 8000c7c:	461a      	mov	r2, r3
 8000c7e:	f7ff ffc4 	bl	8000c0a <Filter_Mediana_3>
 8000c82:	4603      	mov	r3, r0
 8000c84:	461c      	mov	r4, r3
 8000c86:	687b      	ldr	r3, [r7, #4]
 8000c88:	3306      	adds	r3, #6
 8000c8a:	8818      	ldrh	r0, [r3, #0]
 8000c8c:	687b      	ldr	r3, [r7, #4]
 8000c8e:	3308      	adds	r3, #8
 8000c90:	8819      	ldrh	r1, [r3, #0]
 8000c92:	687b      	ldr	r3, [r7, #4]
 8000c94:	330a      	adds	r3, #10
 8000c96:	881b      	ldrh	r3, [r3, #0]
 8000c98:	461a      	mov	r2, r3
 8000c9a:	f7ff ffb6 	bl	8000c0a <Filter_Mediana_3>
 8000c9e:	4603      	mov	r3, r0
 8000ca0:	461d      	mov	r5, r3
 8000ca2:	687b      	ldr	r3, [r7, #4]
 8000ca4:	330c      	adds	r3, #12
 8000ca6:	8818      	ldrh	r0, [r3, #0]
 8000ca8:	687b      	ldr	r3, [r7, #4]
 8000caa:	330e      	adds	r3, #14
 8000cac:	8819      	ldrh	r1, [r3, #0]
 8000cae:	687b      	ldr	r3, [r7, #4]
 8000cb0:	3310      	adds	r3, #16
 8000cb2:	881b      	ldrh	r3, [r3, #0]
 8000cb4:	461a      	mov	r2, r3
 8000cb6:	f7ff ffa8 	bl	8000c0a <Filter_Mediana_3>
 8000cba:	4603      	mov	r3, r0
 8000cbc:	461a      	mov	r2, r3
 8000cbe:	4629      	mov	r1, r5
 8000cc0:	4620      	mov	r0, r4
 8000cc2:	f7ff ffa2 	bl	8000c0a <Filter_Mediana_3>
 8000cc6:	4603      	mov	r3, r0
 8000cc8:	4618      	mov	r0, r3
 8000cca:	3708      	adds	r7, #8
 8000ccc:	46bd      	mov	sp, r7
 8000cce:	bdb0      	pop	{r4, r5, r7, pc}

08000cd0 <Filter_ini>:
 8000cd0:	b480      	push	{r7}
 8000cd2:	b083      	sub	sp, #12
 8000cd4:	af00      	add	r7, sp, #0
 8000cd6:	6078      	str	r0, [r7, #4]
 8000cd8:	687b      	ldr	r3, [r7, #4]
 8000cda:	f04f 0200 	mov.w	r2, #0
 8000cde:	60da      	str	r2, [r3, #12]
 8000ce0:	bf00      	nop
 8000ce2:	370c      	adds	r7, #12
 8000ce4:	46bd      	mov	sp, r7
 8000ce6:	bc80      	pop	{r7}
 8000ce8:	4770      	bx	lr

08000cea <Filter_Exp_Mov_Average>:
 8000cea:	b590      	push	{r4, r7, lr}
 8000cec:	b083      	sub	sp, #12
 8000cee:	af00      	add	r7, sp, #0
 8000cf0:	6078      	str	r0, [r7, #4]
 8000cf2:	687b      	ldr	r3, [r7, #4]
 8000cf4:	695b      	ldr	r3, [r3, #20]
 8000cf6:	4618      	mov	r0, r3
 8000cf8:	f7ff fd04 	bl	8000704 <__aeabi_f2iz>
 8000cfc:	4603      	mov	r3, r0
 8000cfe:	4618      	mov	r0, r3
 8000d00:	f7ff fae6 	bl	80002d0 <__aeabi_i2f>
 8000d04:	4602      	mov	r2, r0
 8000d06:	687b      	ldr	r3, [r7, #4]
 8000d08:	68db      	ldr	r3, [r3, #12]
 8000d0a:	4619      	mov	r1, r3
 8000d0c:	4610      	mov	r0, r2
 8000d0e:	f7ff fa29 	bl	8000164 <__aeabi_fsub>
 8000d12:	4603      	mov	r3, r0
 8000d14:	4618      	mov	r0, r3
 8000d16:	f7ff fcf5 	bl	8000704 <__aeabi_f2iz>
 8000d1a:	4603      	mov	r3, r0
 8000d1c:	2b00      	cmp	r3, #0
 8000d1e:	bfb8      	it	lt
 8000d20:	425b      	neglt	r3, r3
 8000d22:	4618      	mov	r0, r3
 8000d24:	f7ff fad4 	bl	80002d0 <__aeabi_i2f>
 8000d28:	4602      	mov	r2, r0
 8000d2a:	687b      	ldr	r3, [r7, #4]
 8000d2c:	691b      	ldr	r3, [r3, #16]
 8000d2e:	4619      	mov	r1, r3
 8000d30:	4610      	mov	r0, r2
 8000d32:	f7ff fcdd 	bl	80006f0 <__aeabi_fcmpgt>
 8000d36:	4603      	mov	r3, r0
 8000d38:	2b00      	cmp	r3, #0
 8000d3a:	d004      	beq.n	8000d46 <Filter_Exp_Mov_Average+0x5c>
 8000d3c:	687b      	ldr	r3, [r7, #4]
 8000d3e:	689a      	ldr	r2, [r3, #8]
 8000d40:	687b      	ldr	r3, [r7, #4]
 8000d42:	601a      	str	r2, [r3, #0]
 8000d44:	e003      	b.n	8000d4e <Filter_Exp_Mov_Average+0x64>
 8000d46:	687b      	ldr	r3, [r7, #4]
 8000d48:	685a      	ldr	r2, [r3, #4]
 8000d4a:	687b      	ldr	r3, [r7, #4]
 8000d4c:	601a      	str	r2, [r3, #0]
 8000d4e:	687b      	ldr	r3, [r7, #4]
 8000d50:	68dc      	ldr	r4, [r3, #12]
 8000d52:	687b      	ldr	r3, [r7, #4]
 8000d54:	695a      	ldr	r2, [r3, #20]
 8000d56:	687b      	ldr	r3, [r7, #4]
 8000d58:	68db      	ldr	r3, [r3, #12]
 8000d5a:	4619      	mov	r1, r3
 8000d5c:	4610      	mov	r0, r2
 8000d5e:	f7ff fa01 	bl	8000164 <__aeabi_fsub>
 8000d62:	4603      	mov	r3, r0
 8000d64:	461a      	mov	r2, r3
 8000d66:	687b      	ldr	r3, [r7, #4]
 8000d68:	681b      	ldr	r3, [r3, #0]
 8000d6a:	4619      	mov	r1, r3
 8000d6c:	4610      	mov	r0, r2
 8000d6e:	f7ff fb03 	bl	8000378 <__aeabi_fmul>
 8000d72:	4603      	mov	r3, r0
 8000d74:	4619      	mov	r1, r3
 8000d76:	4620      	mov	r0, r4
 8000d78:	f7ff f9f6 	bl	8000168 <__addsf3>
 8000d7c:	4603      	mov	r3, r0
 8000d7e:	461a      	mov	r2, r3
 8000d80:	687b      	ldr	r3, [r7, #4]
 8000d82:	60da      	str	r2, [r3, #12]
 8000d84:	687b      	ldr	r3, [r7, #4]
 8000d86:	68db      	ldr	r3, [r3, #12]
 8000d88:	4618      	mov	r0, r3
 8000d8a:	f7ff fce1 	bl	8000750 <__aeabi_f2uiz>
 8000d8e:	4603      	mov	r3, r0
 8000d90:	b29b      	uxth	r3, r3
 8000d92:	4618      	mov	r0, r3
 8000d94:	370c      	adds	r7, #12
 8000d96:	46bd      	mov	sp, r7
 8000d98:	bd90      	pop	{r4, r7, pc}

08000d9a <Filter_Combined>:
 8000d9a:	b580      	push	{r7, lr}
 8000d9c:	b082      	sub	sp, #8
 8000d9e:	af00      	add	r7, sp, #0
 8000da0:	6078      	str	r0, [r7, #4]
 8000da2:	687b      	ldr	r3, [r7, #4]
 8000da4:	7e1b      	ldrb	r3, [r3, #24]
 8000da6:	2b01      	cmp	r3, #1
 8000da8:	d114      	bne.n	8000dd4 <Filter_Combined+0x3a>
 8000daa:	687b      	ldr	r3, [r7, #4]
 8000dac:	69db      	ldr	r3, [r3, #28]
 8000dae:	8818      	ldrh	r0, [r3, #0]
 8000db0:	687b      	ldr	r3, [r7, #4]
 8000db2:	69db      	ldr	r3, [r3, #28]
 8000db4:	3302      	adds	r3, #2
 8000db6:	8819      	ldrh	r1, [r3, #0]
 8000db8:	687b      	ldr	r3, [r7, #4]
 8000dba:	69db      	ldr	r3, [r3, #28]
 8000dbc:	3304      	adds	r3, #4
 8000dbe:	881b      	ldrh	r3, [r3, #0]
 8000dc0:	461a      	mov	r2, r3
 8000dc2:	f7ff ff22 	bl	8000c0a <Filter_Mediana_3>
 8000dc6:	4603      	mov	r3, r0
 8000dc8:	4618      	mov	r0, r3
 8000dca:	f7ff fa7d 	bl	80002c8 <__aeabi_ui2f>
 8000dce:	4602      	mov	r2, r0
 8000dd0:	687b      	ldr	r3, [r7, #4]
 8000dd2:	615a      	str	r2, [r3, #20]
 8000dd4:	687b      	ldr	r3, [r7, #4]
 8000dd6:	7e1b      	ldrb	r3, [r3, #24]
 8000dd8:	2b00      	cmp	r3, #0
 8000dda:	d10b      	bne.n	8000df4 <Filter_Combined+0x5a>
 8000ddc:	687b      	ldr	r3, [r7, #4]
 8000dde:	69db      	ldr	r3, [r3, #28]
 8000de0:	4618      	mov	r0, r3
 8000de2:	f7ff ff3f 	bl	8000c64 <Filter_Mediana_9>
 8000de6:	4603      	mov	r3, r0
 8000de8:	4618      	mov	r0, r3
 8000dea:	f7ff fa6d 	bl	80002c8 <__aeabi_ui2f>
 8000dee:	4602      	mov	r2, r0
 8000df0:	687b      	ldr	r3, [r7, #4]
 8000df2:	615a      	str	r2, [r3, #20]
 8000df4:	6878      	ldr	r0, [r7, #4]
 8000df6:	f7ff ff78 	bl	8000cea <Filter_Exp_Mov_Average>
 8000dfa:	4603      	mov	r3, r0
 8000dfc:	4618      	mov	r0, r3
 8000dfe:	3708      	adds	r7, #8
 8000e00:	46bd      	mov	sp, r7
 8000e02:	bd80      	pop	{r7, pc}

08000e04 <Flash_Erase>:
 8000e04:	b580      	push	{r7, lr}
 8000e06:	b088      	sub	sp, #32
 8000e08:	af00      	add	r7, sp, #0
 8000e0a:	6078      	str	r0, [r7, #4]
 8000e0c:	460b      	mov	r3, r1
 8000e0e:	807b      	strh	r3, [r7, #2]
 8000e10:	2300      	movs	r3, #0
 8000e12:	60fb      	str	r3, [r7, #12]
 8000e14:	b672      	cpsid	i
 8000e16:	bf00      	nop
 8000e18:	f005 f9ec 	bl	80061f4 <HAL_FLASH_Unlock>
 8000e1c:	2300      	movs	r3, #0
 8000e1e:	613b      	str	r3, [r7, #16]
 8000e20:	687b      	ldr	r3, [r7, #4]
 8000e22:	61bb      	str	r3, [r7, #24]
 8000e24:	887b      	ldrh	r3, [r7, #2]
 8000e26:	0a9b      	lsrs	r3, r3, #10
 8000e28:	b29b      	uxth	r3, r3
 8000e2a:	3301      	adds	r3, #1
 8000e2c:	61fb      	str	r3, [r7, #28]
 8000e2e:	f107 020c 	add.w	r2, r7, #12
 8000e32:	f107 0310 	add.w	r3, r7, #16
 8000e36:	4611      	mov	r1, r2
 8000e38:	4618      	mov	r0, r3
 8000e3a:	f005 fac3 	bl	80063c4 <HAL_FLASHEx_Erase>
 8000e3e:	4603      	mov	r3, r0
 8000e40:	2b00      	cmp	r3, #0
 8000e42:	d005      	beq.n	8000e50 <Flash_Erase+0x4c>
 8000e44:	f005 f9fc 	bl	8006240 <HAL_FLASH_Lock>
 8000e48:	b662      	cpsie	i
 8000e4a:	bf00      	nop
 8000e4c:	2301      	movs	r3, #1
 8000e4e:	e004      	b.n	8000e5a <Flash_Erase+0x56>
 8000e50:	f005 f9f6 	bl	8006240 <HAL_FLASH_Lock>
 8000e54:	b662      	cpsie	i
 8000e56:	bf00      	nop
 8000e58:	2300      	movs	r3, #0
 8000e5a:	4618      	mov	r0, r3
 8000e5c:	3720      	adds	r7, #32
 8000e5e:	46bd      	mov	sp, r7
 8000e60:	bd80      	pop	{r7, pc}

08000e62 <Flash_Write>:
 8000e62:	b5b0      	push	{r4, r5, r7, lr}
 8000e64:	b086      	sub	sp, #24
 8000e66:	af00      	add	r7, sp, #0
 8000e68:	60f8      	str	r0, [r7, #12]
 8000e6a:	60b9      	str	r1, [r7, #8]
 8000e6c:	4613      	mov	r3, r2
 8000e6e:	80fb      	strh	r3, [r7, #6]
 8000e70:	b672      	cpsid	i
 8000e72:	bf00      	nop
 8000e74:	f005 f9be 	bl	80061f4 <HAL_FLASH_Unlock>
 8000e78:	2300      	movs	r3, #0
 8000e7a:	75bb      	strb	r3, [r7, #22]
 8000e7c:	e019      	b.n	8000eb2 <Flash_Write+0x50>
 8000e7e:	7dbb      	ldrb	r3, [r7, #22]
 8000e80:	005b      	lsls	r3, r3, #1
 8000e82:	68ba      	ldr	r2, [r7, #8]
 8000e84:	4413      	add	r3, r2
 8000e86:	881b      	ldrh	r3, [r3, #0]
 8000e88:	b29b      	uxth	r3, r3
 8000e8a:	2200      	movs	r2, #0
 8000e8c:	461c      	mov	r4, r3
 8000e8e:	4615      	mov	r5, r2
 8000e90:	4622      	mov	r2, r4
 8000e92:	462b      	mov	r3, r5
 8000e94:	68f9      	ldr	r1, [r7, #12]
 8000e96:	2001      	movs	r0, #1
 8000e98:	f005 f846 	bl	8005f28 <HAL_FLASH_Program>
 8000e9c:	4603      	mov	r3, r0
 8000e9e:	461a      	mov	r2, r3
 8000ea0:	7dfb      	ldrb	r3, [r7, #23]
 8000ea2:	4413      	add	r3, r2
 8000ea4:	75fb      	strb	r3, [r7, #23]
 8000ea6:	68fb      	ldr	r3, [r7, #12]
 8000ea8:	3302      	adds	r3, #2
 8000eaa:	60fb      	str	r3, [r7, #12]
 8000eac:	7dbb      	ldrb	r3, [r7, #22]
 8000eae:	3301      	adds	r3, #1
 8000eb0:	75bb      	strb	r3, [r7, #22]
 8000eb2:	7dbb      	ldrb	r3, [r7, #22]
 8000eb4:	b29a      	uxth	r2, r3
 8000eb6:	88fb      	ldrh	r3, [r7, #6]
 8000eb8:	085b      	lsrs	r3, r3, #1
 8000eba:	b29b      	uxth	r3, r3
 8000ebc:	429a      	cmp	r2, r3
 8000ebe:	d3de      	bcc.n	8000e7e <Flash_Write+0x1c>
 8000ec0:	f005 f9be 	bl	8006240 <HAL_FLASH_Lock>
 8000ec4:	b662      	cpsie	i
 8000ec6:	bf00      	nop
 8000ec8:	7dfb      	ldrb	r3, [r7, #23]
 8000eca:	2b00      	cmp	r3, #0
 8000ecc:	d001      	beq.n	8000ed2 <Flash_Write+0x70>
 8000ece:	7dfb      	ldrb	r3, [r7, #23]
 8000ed0:	e000      	b.n	8000ed4 <Flash_Write+0x72>
 8000ed2:	68fb      	ldr	r3, [r7, #12]
 8000ed4:	4618      	mov	r0, r3
 8000ed6:	3718      	adds	r7, #24
 8000ed8:	46bd      	mov	sp, r7
 8000eda:	bdb0      	pop	{r4, r5, r7, pc}

08000edc <Flash_Read>:
 8000edc:	b480      	push	{r7}
 8000ede:	b087      	sub	sp, #28
 8000ee0:	af00      	add	r7, sp, #0
 8000ee2:	60f8      	str	r0, [r7, #12]
 8000ee4:	60b9      	str	r1, [r7, #8]
 8000ee6:	4613      	mov	r3, r2
 8000ee8:	80fb      	strh	r3, [r7, #6]
 8000eea:	2300      	movs	r3, #0
 8000eec:	617b      	str	r3, [r7, #20]
 8000eee:	e00c      	b.n	8000f0a <Flash_Read+0x2e>
 8000ef0:	68fb      	ldr	r3, [r7, #12]
 8000ef2:	6819      	ldr	r1, [r3, #0]
 8000ef4:	697b      	ldr	r3, [r7, #20]
 8000ef6:	68ba      	ldr	r2, [r7, #8]
 8000ef8:	4413      	add	r3, r2
 8000efa:	b2ca      	uxtb	r2, r1
 8000efc:	701a      	strb	r2, [r3, #0]
 8000efe:	68fb      	ldr	r3, [r7, #12]
 8000f00:	3301      	adds	r3, #1
 8000f02:	60fb      	str	r3, [r7, #12]
 8000f04:	697b      	ldr	r3, [r7, #20]
 8000f06:	3301      	adds	r3, #1
 8000f08:	617b      	str	r3, [r7, #20]
 8000f0a:	88fb      	ldrh	r3, [r7, #6]
 8000f0c:	697a      	ldr	r2, [r7, #20]
 8000f0e:	429a      	cmp	r2, r3
 8000f10:	dbee      	blt.n	8000ef0 <Flash_Read+0x14>
 8000f12:	bf00      	nop
 8000f14:	bf00      	nop
 8000f16:	371c      	adds	r7, #28
 8000f18:	46bd      	mov	sp, r7
 8000f1a:	bc80      	pop	{r7}
 8000f1c:	4770      	bx	lr
	...

08000f20 <Incoder_Handler>:
enum {
	Interface_Contoll_Soldering_Heat_Gun,
	Interface_Contoll_Soldering_Separator
}Interface_Contoll;
//--------------------------------------------------------------------------------------------------------------------------------------------------------
void Incoder_Handler(struct Incoder *self){
 8000f20:	b480      	push	{r7}
 8000f22:	b083      	sub	sp, #12
 8000f24:	af00      	add	r7, sp, #0
 8000f26:	6078      	str	r0, [r7, #4]
	switch(self->ID){
 8000f28:	687b      	ldr	r3, [r7, #4]
 8000f2a:	781b      	ldrb	r3, [r3, #0]
 8000f2c:	2b00      	cmp	r3, #0
 8000f2e:	d002      	beq.n	8000f36 <Incoder_Handler+0x16>
 8000f30:	2b01      	cmp	r3, #1
 8000f32:	d02d      	beq.n	8000f90 <Incoder_Handler+0x70>
			}
		break;

	}

}
 8000f34:	e05c      	b.n	8000ff0 <Incoder_Handler+0xd0>
			if(self->Rotary_Switch.event){
 8000f36:	687b      	ldr	r3, [r7, #4]
 8000f38:	7f5b      	ldrb	r3, [r3, #29]
 8000f3a:	f003 0302 	and.w	r3, r3, #2
 8000f3e:	b2db      	uxtb	r3, r3
 8000f40:	2b00      	cmp	r3, #0
 8000f42:	d012      	beq.n	8000f6a <Incoder_Handler+0x4a>
				if(self->Rotary_Switch.State){
 8000f44:	687b      	ldr	r3, [r7, #4]
 8000f46:	7f5b      	ldrb	r3, [r3, #29]
 8000f48:	f003 0301 	and.w	r3, r3, #1
 8000f4c:	b2db      	uxtb	r3, r3
 8000f4e:	2b00      	cmp	r3, #0
 8000f50:	d005      	beq.n	8000f5e <Incoder_Handler+0x3e>
					Incoder_P1_Count++;
 8000f52:	4b2a      	ldr	r3, [pc, #168]	; (8000ffc <Incoder_Handler+0xdc>)
 8000f54:	681b      	ldr	r3, [r3, #0]
 8000f56:	3301      	adds	r3, #1
 8000f58:	4a28      	ldr	r2, [pc, #160]	; (8000ffc <Incoder_Handler+0xdc>)
 8000f5a:	6013      	str	r3, [r2, #0]
		break;
 8000f5c:	e045      	b.n	8000fea <Incoder_Handler+0xca>
					Incoder_P1_Count--;
 8000f5e:	4b27      	ldr	r3, [pc, #156]	; (8000ffc <Incoder_Handler+0xdc>)
 8000f60:	681b      	ldr	r3, [r3, #0]
 8000f62:	3b01      	subs	r3, #1
 8000f64:	4a25      	ldr	r2, [pc, #148]	; (8000ffc <Incoder_Handler+0xdc>)
 8000f66:	6013      	str	r3, [r2, #0]
		break;
 8000f68:	e03f      	b.n	8000fea <Incoder_Handler+0xca>
			}else if(self->Button.event){
 8000f6a:	687b      	ldr	r3, [r7, #4]
 8000f6c:	7a9b      	ldrb	r3, [r3, #10]
 8000f6e:	f003 0302 	and.w	r3, r3, #2
 8000f72:	b2db      	uxtb	r3, r3
 8000f74:	2b00      	cmp	r3, #0
 8000f76:	d038      	beq.n	8000fea <Incoder_Handler+0xca>
				if(self->Button.State==1){
 8000f78:	687b      	ldr	r3, [r7, #4]
 8000f7a:	7adb      	ldrb	r3, [r3, #11]
 8000f7c:	2b01      	cmp	r3, #1
 8000f7e:	d103      	bne.n	8000f88 <Incoder_Handler+0x68>
					Incoder_Button_State_P1=Incoder_Button_Short;
 8000f80:	4b1f      	ldr	r3, [pc, #124]	; (8001000 <Incoder_Handler+0xe0>)
 8000f82:	2202      	movs	r2, #2
 8000f84:	701a      	strb	r2, [r3, #0]
		break;
 8000f86:	e030      	b.n	8000fea <Incoder_Handler+0xca>
					Incoder_Button_State_P1=Incoder_Button_long;
 8000f88:	4b1d      	ldr	r3, [pc, #116]	; (8001000 <Incoder_Handler+0xe0>)
 8000f8a:	2203      	movs	r2, #3
 8000f8c:	701a      	strb	r2, [r3, #0]
		break;
 8000f8e:	e02c      	b.n	8000fea <Incoder_Handler+0xca>
			if(self->Rotary_Switch.event){
 8000f90:	687b      	ldr	r3, [r7, #4]
 8000f92:	7f5b      	ldrb	r3, [r3, #29]
 8000f94:	f003 0302 	and.w	r3, r3, #2
 8000f98:	b2db      	uxtb	r3, r3
 8000f9a:	2b00      	cmp	r3, #0
 8000f9c:	d012      	beq.n	8000fc4 <Incoder_Handler+0xa4>
				if(self->Rotary_Switch.State){
 8000f9e:	687b      	ldr	r3, [r7, #4]
 8000fa0:	7f5b      	ldrb	r3, [r3, #29]
 8000fa2:	f003 0301 	and.w	r3, r3, #1
 8000fa6:	b2db      	uxtb	r3, r3
 8000fa8:	2b00      	cmp	r3, #0
 8000faa:	d005      	beq.n	8000fb8 <Incoder_Handler+0x98>
					Incoder_P2_Count--;
 8000fac:	4b15      	ldr	r3, [pc, #84]	; (8001004 <Incoder_Handler+0xe4>)
 8000fae:	681b      	ldr	r3, [r3, #0]
 8000fb0:	3b01      	subs	r3, #1
 8000fb2:	4a14      	ldr	r2, [pc, #80]	; (8001004 <Incoder_Handler+0xe4>)
 8000fb4:	6013      	str	r3, [r2, #0]
		break;
 8000fb6:	e01a      	b.n	8000fee <Incoder_Handler+0xce>
					Incoder_P2_Count++;
 8000fb8:	4b12      	ldr	r3, [pc, #72]	; (8001004 <Incoder_Handler+0xe4>)
 8000fba:	681b      	ldr	r3, [r3, #0]
 8000fbc:	3301      	adds	r3, #1
 8000fbe:	4a11      	ldr	r2, [pc, #68]	; (8001004 <Incoder_Handler+0xe4>)
 8000fc0:	6013      	str	r3, [r2, #0]
		break;
 8000fc2:	e014      	b.n	8000fee <Incoder_Handler+0xce>
			}else if(self->Button.event){
 8000fc4:	687b      	ldr	r3, [r7, #4]
 8000fc6:	7a9b      	ldrb	r3, [r3, #10]
 8000fc8:	f003 0302 	and.w	r3, r3, #2
 8000fcc:	b2db      	uxtb	r3, r3
 8000fce:	2b00      	cmp	r3, #0
 8000fd0:	d00d      	beq.n	8000fee <Incoder_Handler+0xce>
				if(self->Button.State==1){
 8000fd2:	687b      	ldr	r3, [r7, #4]
 8000fd4:	7adb      	ldrb	r3, [r3, #11]
 8000fd6:	2b01      	cmp	r3, #1
 8000fd8:	d103      	bne.n	8000fe2 <Incoder_Handler+0xc2>
					Incoder_Button_State_P2=Incoder_Button_Short;
 8000fda:	4b0b      	ldr	r3, [pc, #44]	; (8001008 <Incoder_Handler+0xe8>)
 8000fdc:	2202      	movs	r2, #2
 8000fde:	701a      	strb	r2, [r3, #0]
		break;
 8000fe0:	e005      	b.n	8000fee <Incoder_Handler+0xce>
					Incoder_Button_State_P2=Incoder_Button_long;
 8000fe2:	4b09      	ldr	r3, [pc, #36]	; (8001008 <Incoder_Handler+0xe8>)
 8000fe4:	2203      	movs	r2, #3
 8000fe6:	701a      	strb	r2, [r3, #0]
		break;
 8000fe8:	e001      	b.n	8000fee <Incoder_Handler+0xce>
		break;
 8000fea:	bf00      	nop
 8000fec:	e000      	b.n	8000ff0 <Incoder_Handler+0xd0>
		break;
 8000fee:	bf00      	nop
}
 8000ff0:	bf00      	nop
 8000ff2:	370c      	adds	r7, #12
 8000ff4:	46bd      	mov	sp, r7
 8000ff6:	bc80      	pop	{r7}
 8000ff8:	4770      	bx	lr
 8000ffa:	bf00      	nop
 8000ffc:	200004f8 	.word	0x200004f8
 8001000:	200004fd 	.word	0x200004fd
 8001004:	200004f4 	.word	0x200004f4
 8001008:	200004fc 	.word	0x200004fc

0800100c <Menu_Parmetr_Drow>:
//--------------------------------------------------------------------------------------------------------------------------------------------------------
void Menu_Parmetr_Drow(void *num_void, uint8_t x,uint8_t y,enum Type mode){
 800100c:	b580      	push	{r7, lr}
 800100e:	b086      	sub	sp, #24
 8001010:	af00      	add	r7, sp, #0
 8001012:	6078      	str	r0, [r7, #4]
 8001014:	4608      	mov	r0, r1
 8001016:	4611      	mov	r1, r2
 8001018:	461a      	mov	r2, r3
 800101a:	4603      	mov	r3, r0
 800101c:	70fb      	strb	r3, [r7, #3]
 800101e:	460b      	mov	r3, r1
 8001020:	70bb      	strb	r3, [r7, #2]
 8001022:	4613      	mov	r3, r2
 8001024:	707b      	strb	r3, [r7, #1]
	switch(mode){
 8001026:	787b      	ldrb	r3, [r7, #1]
 8001028:	2b03      	cmp	r3, #3
 800102a:	f200 8177 	bhi.w	800131c <Menu_Parmetr_Drow+0x310>
 800102e:	a201      	add	r2, pc, #4	; (adr r2, 8001034 <Menu_Parmetr_Drow+0x28>)
 8001030:	f852 f023 	ldr.w	pc, [r2, r3, lsl #2]
 8001034:	08001045 	.word	0x08001045
 8001038:	0800115d 	.word	0x0800115d
 800103c:	08001225 	.word	0x08001225
 8001040:	080012ef 	.word	0x080012ef
		case INT:
			int num_int=*(int*)num_void;
 8001044:	687b      	ldr	r3, [r7, #4]
 8001046:	681b      	ldr	r3, [r3, #0]
 8001048:	617b      	str	r3, [r7, #20]
			if(num_int<0){
 800104a:	697b      	ldr	r3, [r7, #20]
 800104c:	2b00      	cmp	r3, #0
 800104e:	da0c      	bge.n	800106a <Menu_Parmetr_Drow+0x5e>
				OLED_Set_Char_Cursor(&OLED1,x-1,y);
 8001050:	78fb      	ldrb	r3, [r7, #3]
 8001052:	b29b      	uxth	r3, r3
 8001054:	3b01      	subs	r3, #1
 8001056:	b29b      	uxth	r3, r3
 8001058:	78ba      	ldrb	r2, [r7, #2]
 800105a:	4619      	mov	r1, r3
 800105c:	48b1      	ldr	r0, [pc, #708]	; (8001324 <Menu_Parmetr_Drow+0x318>)
 800105e:	f001 fa46 	bl	80024ee <OLED_Set_Char_Cursor>
				OLED_Send_Char(&OLED1,'-');
 8001062:	212d      	movs	r1, #45	; 0x2d
 8001064:	48af      	ldr	r0, [pc, #700]	; (8001324 <Menu_Parmetr_Drow+0x318>)
 8001066:	f001 fa9b 	bl	80025a0 <OLED_Send_Char>
			}
			OLED_Set_Char_Cursor(&OLED1,x-1,y);
 800106a:	78fb      	ldrb	r3, [r7, #3]
 800106c:	b29b      	uxth	r3, r3
 800106e:	3b01      	subs	r3, #1
 8001070:	b29b      	uxth	r3, r3
 8001072:	78ba      	ldrb	r2, [r7, #2]
 8001074:	4619      	mov	r1, r3
 8001076:	48ab      	ldr	r0, [pc, #684]	; (8001324 <Menu_Parmetr_Drow+0x318>)
 8001078:	f001 fa39 	bl	80024ee <OLED_Set_Char_Cursor>
			if(num_int<0){
 800107c:	697b      	ldr	r3, [r7, #20]
 800107e:	2b00      	cmp	r3, #0
 8001080:	da09      	bge.n	8001096 <Menu_Parmetr_Drow+0x8a>
				OLED_Send_Char(&OLED1,'-');
 8001082:	212d      	movs	r1, #45	; 0x2d
 8001084:	48a7      	ldr	r0, [pc, #668]	; (8001324 <Menu_Parmetr_Drow+0x318>)
 8001086:	f001 fa8b 	bl	80025a0 <OLED_Send_Char>
				num_int=abs(num_int);
 800108a:	697b      	ldr	r3, [r7, #20]
 800108c:	2b00      	cmp	r3, #0
 800108e:	bfb8      	it	lt
 8001090:	425b      	neglt	r3, r3
 8001092:	617b      	str	r3, [r7, #20]
 8001094:	e003      	b.n	800109e <Menu_Parmetr_Drow+0x92>
			}
			else
				OLED_Send_Char(&OLED1,' ');
 8001096:	2120      	movs	r1, #32
 8001098:	48a2      	ldr	r0, [pc, #648]	; (8001324 <Menu_Parmetr_Drow+0x318>)
 800109a:	f001 fa81 	bl	80025a0 <OLED_Send_Char>
			OLED_Send_Char(&OLED1,(num_int/1000)%10+'0');
 800109e:	697b      	ldr	r3, [r7, #20]
 80010a0:	4aa1      	ldr	r2, [pc, #644]	; (8001328 <Menu_Parmetr_Drow+0x31c>)
 80010a2:	fb82 1203 	smull	r1, r2, r2, r3
 80010a6:	1192      	asrs	r2, r2, #6
 80010a8:	17db      	asrs	r3, r3, #31
 80010aa:	1ad2      	subs	r2, r2, r3
 80010ac:	4b9f      	ldr	r3, [pc, #636]	; (800132c <Menu_Parmetr_Drow+0x320>)
 80010ae:	fb83 1302 	smull	r1, r3, r3, r2
 80010b2:	1099      	asrs	r1, r3, #2
 80010b4:	17d3      	asrs	r3, r2, #31
 80010b6:	1ac9      	subs	r1, r1, r3
 80010b8:	460b      	mov	r3, r1
 80010ba:	009b      	lsls	r3, r3, #2
 80010bc:	440b      	add	r3, r1
 80010be:	005b      	lsls	r3, r3, #1
 80010c0:	1ad1      	subs	r1, r2, r3
 80010c2:	b2cb      	uxtb	r3, r1
 80010c4:	3330      	adds	r3, #48	; 0x30
 80010c6:	b2db      	uxtb	r3, r3
 80010c8:	4619      	mov	r1, r3
 80010ca:	4896      	ldr	r0, [pc, #600]	; (8001324 <Menu_Parmetr_Drow+0x318>)
 80010cc:	f001 fa68 	bl	80025a0 <OLED_Send_Char>
			OLED_Send_Char(&OLED1,(num_int/100)%10+'0');
 80010d0:	697b      	ldr	r3, [r7, #20]
 80010d2:	4a97      	ldr	r2, [pc, #604]	; (8001330 <Menu_Parmetr_Drow+0x324>)
 80010d4:	fb82 1203 	smull	r1, r2, r2, r3
 80010d8:	1152      	asrs	r2, r2, #5
 80010da:	17db      	asrs	r3, r3, #31
 80010dc:	1ad2      	subs	r2, r2, r3
 80010de:	4b93      	ldr	r3, [pc, #588]	; (800132c <Menu_Parmetr_Drow+0x320>)
 80010e0:	fb83 1302 	smull	r1, r3, r3, r2
 80010e4:	1099      	asrs	r1, r3, #2
 80010e6:	17d3      	asrs	r3, r2, #31
 80010e8:	1ac9      	subs	r1, r1, r3
 80010ea:	460b      	mov	r3, r1
 80010ec:	009b      	lsls	r3, r3, #2
 80010ee:	440b      	add	r3, r1
 80010f0:	005b      	lsls	r3, r3, #1
 80010f2:	1ad1      	subs	r1, r2, r3
 80010f4:	b2cb      	uxtb	r3, r1
 80010f6:	3330      	adds	r3, #48	; 0x30
 80010f8:	b2db      	uxtb	r3, r3
 80010fa:	4619      	mov	r1, r3
 80010fc:	4889      	ldr	r0, [pc, #548]	; (8001324 <Menu_Parmetr_Drow+0x318>)
 80010fe:	f001 fa4f 	bl	80025a0 <OLED_Send_Char>
			OLED_Send_Char(&OLED1,(num_int/10)%10+'0');
 8001102:	697b      	ldr	r3, [r7, #20]
 8001104:	4a89      	ldr	r2, [pc, #548]	; (800132c <Menu_Parmetr_Drow+0x320>)
 8001106:	fb82 1203 	smull	r1, r2, r2, r3
 800110a:	1092      	asrs	r2, r2, #2
 800110c:	17db      	asrs	r3, r3, #31
 800110e:	1ad2      	subs	r2, r2, r3
 8001110:	4b86      	ldr	r3, [pc, #536]	; (800132c <Menu_Parmetr_Drow+0x320>)
 8001112:	fb83 1302 	smull	r1, r3, r3, r2
 8001116:	1099      	asrs	r1, r3, #2
 8001118:	17d3      	asrs	r3, r2, #31
 800111a:	1ac9      	subs	r1, r1, r3
 800111c:	460b      	mov	r3, r1
 800111e:	009b      	lsls	r3, r3, #2
 8001120:	440b      	add	r3, r1
 8001122:	005b      	lsls	r3, r3, #1
 8001124:	1ad1      	subs	r1, r2, r3
 8001126:	b2cb      	uxtb	r3, r1
 8001128:	3330      	adds	r3, #48	; 0x30
 800112a:	b2db      	uxtb	r3, r3
 800112c:	4619      	mov	r1, r3
 800112e:	487d      	ldr	r0, [pc, #500]	; (8001324 <Menu_Parmetr_Drow+0x318>)
 8001130:	f001 fa36 	bl	80025a0 <OLED_Send_Char>
			OLED_Send_Char(&OLED1,(num_int)%10+'0');
 8001134:	697a      	ldr	r2, [r7, #20]
 8001136:	4b7d      	ldr	r3, [pc, #500]	; (800132c <Menu_Parmetr_Drow+0x320>)
 8001138:	fb83 1302 	smull	r1, r3, r3, r2
 800113c:	1099      	asrs	r1, r3, #2
 800113e:	17d3      	asrs	r3, r2, #31
 8001140:	1ac9      	subs	r1, r1, r3
 8001142:	460b      	mov	r3, r1
 8001144:	009b      	lsls	r3, r3, #2
 8001146:	440b      	add	r3, r1
 8001148:	005b      	lsls	r3, r3, #1
 800114a:	1ad1      	subs	r1, r2, r3
 800114c:	b2cb      	uxtb	r3, r1
 800114e:	3330      	adds	r3, #48	; 0x30
 8001150:	b2db      	uxtb	r3, r3
 8001152:	4619      	mov	r1, r3
 8001154:	4873      	ldr	r0, [pc, #460]	; (8001324 <Menu_Parmetr_Drow+0x318>)
 8001156:	f001 fa23 	bl	80025a0 <OLED_Send_Char>
		break;
 800115a:	e0df      	b.n	800131c <Menu_Parmetr_Drow+0x310>
		case UINT8:
			uint8_t *num_8=num_void;
 800115c:	687b      	ldr	r3, [r7, #4]
 800115e:	60bb      	str	r3, [r7, #8]
			OLED_Set_Char_Cursor(&OLED1,x,y);
 8001160:	78fb      	ldrb	r3, [r7, #3]
 8001162:	b29b      	uxth	r3, r3
 8001164:	78ba      	ldrb	r2, [r7, #2]
 8001166:	4619      	mov	r1, r3
 8001168:	486e      	ldr	r0, [pc, #440]	; (8001324 <Menu_Parmetr_Drow+0x318>)
 800116a:	f001 f9c0 	bl	80024ee <OLED_Set_Char_Cursor>
			OLED_Send_Char(&OLED1,(*num_8/1000)%10+'0');
 800116e:	68bb      	ldr	r3, [r7, #8]
 8001170:	781b      	ldrb	r3, [r3, #0]
 8001172:	4a6d      	ldr	r2, [pc, #436]	; (8001328 <Menu_Parmetr_Drow+0x31c>)
 8001174:	fb82 1203 	smull	r1, r2, r2, r3
 8001178:	1192      	asrs	r2, r2, #6
 800117a:	17db      	asrs	r3, r3, #31
 800117c:	1ad2      	subs	r2, r2, r3
 800117e:	4b6b      	ldr	r3, [pc, #428]	; (800132c <Menu_Parmetr_Drow+0x320>)
 8001180:	fb83 1302 	smull	r1, r3, r3, r2
 8001184:	1099      	asrs	r1, r3, #2
 8001186:	17d3      	asrs	r3, r2, #31
 8001188:	1ac9      	subs	r1, r1, r3
 800118a:	460b      	mov	r3, r1
 800118c:	009b      	lsls	r3, r3, #2
 800118e:	440b      	add	r3, r1
 8001190:	005b      	lsls	r3, r3, #1
 8001192:	1ad1      	subs	r1, r2, r3
 8001194:	b2cb      	uxtb	r3, r1
 8001196:	3330      	adds	r3, #48	; 0x30
 8001198:	b2db      	uxtb	r3, r3
 800119a:	4619      	mov	r1, r3
 800119c:	4861      	ldr	r0, [pc, #388]	; (8001324 <Menu_Parmetr_Drow+0x318>)
 800119e:	f001 f9ff 	bl	80025a0 <OLED_Send_Char>
			OLED_Send_Char(&OLED1,(*num_8/100)%10+'0');
 80011a2:	68bb      	ldr	r3, [r7, #8]
 80011a4:	781b      	ldrb	r3, [r3, #0]
 80011a6:	4a62      	ldr	r2, [pc, #392]	; (8001330 <Menu_Parmetr_Drow+0x324>)
 80011a8:	fba2 2303 	umull	r2, r3, r2, r3
 80011ac:	095b      	lsrs	r3, r3, #5
 80011ae:	b2da      	uxtb	r2, r3
 80011b0:	4b60      	ldr	r3, [pc, #384]	; (8001334 <Menu_Parmetr_Drow+0x328>)
 80011b2:	fba3 1302 	umull	r1, r3, r3, r2
 80011b6:	08d9      	lsrs	r1, r3, #3
 80011b8:	460b      	mov	r3, r1
 80011ba:	009b      	lsls	r3, r3, #2
 80011bc:	440b      	add	r3, r1
 80011be:	005b      	lsls	r3, r3, #1
 80011c0:	1ad3      	subs	r3, r2, r3
 80011c2:	b2db      	uxtb	r3, r3
 80011c4:	3330      	adds	r3, #48	; 0x30
 80011c6:	b2db      	uxtb	r3, r3
 80011c8:	4619      	mov	r1, r3
 80011ca:	4856      	ldr	r0, [pc, #344]	; (8001324 <Menu_Parmetr_Drow+0x318>)
 80011cc:	f001 f9e8 	bl	80025a0 <OLED_Send_Char>
			OLED_Send_Char(&OLED1,(*num_8/10)%10+'0');
 80011d0:	68bb      	ldr	r3, [r7, #8]
 80011d2:	781b      	ldrb	r3, [r3, #0]
 80011d4:	4a57      	ldr	r2, [pc, #348]	; (8001334 <Menu_Parmetr_Drow+0x328>)
 80011d6:	fba2 2303 	umull	r2, r3, r2, r3
 80011da:	08db      	lsrs	r3, r3, #3
 80011dc:	b2da      	uxtb	r2, r3
 80011de:	4b55      	ldr	r3, [pc, #340]	; (8001334 <Menu_Parmetr_Drow+0x328>)
 80011e0:	fba3 1302 	umull	r1, r3, r3, r2
 80011e4:	08d9      	lsrs	r1, r3, #3
 80011e6:	460b      	mov	r3, r1
 80011e8:	009b      	lsls	r3, r3, #2
 80011ea:	440b      	add	r3, r1
 80011ec:	005b      	lsls	r3, r3, #1
 80011ee:	1ad3      	subs	r3, r2, r3
 80011f0:	b2db      	uxtb	r3, r3
 80011f2:	3330      	adds	r3, #48	; 0x30
 80011f4:	b2db      	uxtb	r3, r3
 80011f6:	4619      	mov	r1, r3
 80011f8:	484a      	ldr	r0, [pc, #296]	; (8001324 <Menu_Parmetr_Drow+0x318>)
 80011fa:	f001 f9d1 	bl	80025a0 <OLED_Send_Char>
			OLED_Send_Char(&OLED1,(*num_8)%10+'0');
 80011fe:	68bb      	ldr	r3, [r7, #8]
 8001200:	781a      	ldrb	r2, [r3, #0]
 8001202:	4b4c      	ldr	r3, [pc, #304]	; (8001334 <Menu_Parmetr_Drow+0x328>)
 8001204:	fba3 1302 	umull	r1, r3, r3, r2
 8001208:	08d9      	lsrs	r1, r3, #3
 800120a:	460b      	mov	r3, r1
 800120c:	009b      	lsls	r3, r3, #2
 800120e:	440b      	add	r3, r1
 8001210:	005b      	lsls	r3, r3, #1
 8001212:	1ad3      	subs	r3, r2, r3
 8001214:	b2db      	uxtb	r3, r3
 8001216:	3330      	adds	r3, #48	; 0x30
 8001218:	b2db      	uxtb	r3, r3
 800121a:	4619      	mov	r1, r3
 800121c:	4841      	ldr	r0, [pc, #260]	; (8001324 <Menu_Parmetr_Drow+0x318>)
 800121e:	f001 f9bf 	bl	80025a0 <OLED_Send_Char>
		break;
 8001222:	e07b      	b.n	800131c <Menu_Parmetr_Drow+0x310>
		case UINT16:
			uint16_t *num_16=num_void;
 8001224:	687b      	ldr	r3, [r7, #4]
 8001226:	60fb      	str	r3, [r7, #12]
			OLED_Set_Char_Cursor(&OLED1,x,y);
 8001228:	78fb      	ldrb	r3, [r7, #3]
 800122a:	b29b      	uxth	r3, r3
 800122c:	78ba      	ldrb	r2, [r7, #2]
 800122e:	4619      	mov	r1, r3
 8001230:	483c      	ldr	r0, [pc, #240]	; (8001324 <Menu_Parmetr_Drow+0x318>)
 8001232:	f001 f95c 	bl	80024ee <OLED_Set_Char_Cursor>
			OLED_Send_Char(&OLED1,(*num_16/1000)%10+'0');
 8001236:	68fb      	ldr	r3, [r7, #12]
 8001238:	881b      	ldrh	r3, [r3, #0]
 800123a:	4a3b      	ldr	r2, [pc, #236]	; (8001328 <Menu_Parmetr_Drow+0x31c>)
 800123c:	fba2 2303 	umull	r2, r3, r2, r3
 8001240:	099b      	lsrs	r3, r3, #6
 8001242:	b29a      	uxth	r2, r3
 8001244:	4b3b      	ldr	r3, [pc, #236]	; (8001334 <Menu_Parmetr_Drow+0x328>)
 8001246:	fba3 1302 	umull	r1, r3, r3, r2
 800124a:	08d9      	lsrs	r1, r3, #3
 800124c:	460b      	mov	r3, r1
 800124e:	009b      	lsls	r3, r3, #2
 8001250:	440b      	add	r3, r1
 8001252:	005b      	lsls	r3, r3, #1
 8001254:	1ad3      	subs	r3, r2, r3
 8001256:	b29b      	uxth	r3, r3
 8001258:	b2db      	uxtb	r3, r3
 800125a:	3330      	adds	r3, #48	; 0x30
 800125c:	b2db      	uxtb	r3, r3
 800125e:	4619      	mov	r1, r3
 8001260:	4830      	ldr	r0, [pc, #192]	; (8001324 <Menu_Parmetr_Drow+0x318>)
 8001262:	f001 f99d 	bl	80025a0 <OLED_Send_Char>
			OLED_Send_Char(&OLED1,(*num_16/100)%10+'0');
 8001266:	68fb      	ldr	r3, [r7, #12]
 8001268:	881b      	ldrh	r3, [r3, #0]
 800126a:	4a31      	ldr	r2, [pc, #196]	; (8001330 <Menu_Parmetr_Drow+0x324>)
 800126c:	fba2 2303 	umull	r2, r3, r2, r3
 8001270:	095b      	lsrs	r3, r3, #5
 8001272:	b29a      	uxth	r2, r3
 8001274:	4b2f      	ldr	r3, [pc, #188]	; (8001334 <Menu_Parmetr_Drow+0x328>)
 8001276:	fba3 1302 	umull	r1, r3, r3, r2
 800127a:	08d9      	lsrs	r1, r3, #3
 800127c:	460b      	mov	r3, r1
 800127e:	009b      	lsls	r3, r3, #2
 8001280:	440b      	add	r3, r1
 8001282:	005b      	lsls	r3, r3, #1
 8001284:	1ad3      	subs	r3, r2, r3
 8001286:	b29b      	uxth	r3, r3
 8001288:	b2db      	uxtb	r3, r3
 800128a:	3330      	adds	r3, #48	; 0x30
 800128c:	b2db      	uxtb	r3, r3
 800128e:	4619      	mov	r1, r3
 8001290:	4824      	ldr	r0, [pc, #144]	; (8001324 <Menu_Parmetr_Drow+0x318>)
 8001292:	f001 f985 	bl	80025a0 <OLED_Send_Char>
			OLED_Send_Char(&OLED1,(*num_16/10)%10+'0');
 8001296:	68fb      	ldr	r3, [r7, #12]
 8001298:	881b      	ldrh	r3, [r3, #0]
 800129a:	4a26      	ldr	r2, [pc, #152]	; (8001334 <Menu_Parmetr_Drow+0x328>)
 800129c:	fba2 2303 	umull	r2, r3, r2, r3
 80012a0:	08db      	lsrs	r3, r3, #3
 80012a2:	b29a      	uxth	r2, r3
 80012a4:	4b23      	ldr	r3, [pc, #140]	; (8001334 <Menu_Parmetr_Drow+0x328>)
 80012a6:	fba3 1302 	umull	r1, r3, r3, r2
 80012aa:	08d9      	lsrs	r1, r3, #3
 80012ac:	460b      	mov	r3, r1
 80012ae:	009b      	lsls	r3, r3, #2
 80012b0:	440b      	add	r3, r1
 80012b2:	005b      	lsls	r3, r3, #1
 80012b4:	1ad3      	subs	r3, r2, r3
 80012b6:	b29b      	uxth	r3, r3
 80012b8:	b2db      	uxtb	r3, r3
 80012ba:	3330      	adds	r3, #48	; 0x30
 80012bc:	b2db      	uxtb	r3, r3
 80012be:	4619      	mov	r1, r3
 80012c0:	4818      	ldr	r0, [pc, #96]	; (8001324 <Menu_Parmetr_Drow+0x318>)
 80012c2:	f001 f96d 	bl	80025a0 <OLED_Send_Char>
			OLED_Send_Char(&OLED1,(*num_16)%10+'0');
 80012c6:	68fb      	ldr	r3, [r7, #12]
 80012c8:	881a      	ldrh	r2, [r3, #0]
 80012ca:	4b1a      	ldr	r3, [pc, #104]	; (8001334 <Menu_Parmetr_Drow+0x328>)
 80012cc:	fba3 1302 	umull	r1, r3, r3, r2
 80012d0:	08d9      	lsrs	r1, r3, #3
 80012d2:	460b      	mov	r3, r1
 80012d4:	009b      	lsls	r3, r3, #2
 80012d6:	440b      	add	r3, r1
 80012d8:	005b      	lsls	r3, r3, #1
 80012da:	1ad3      	subs	r3, r2, r3
 80012dc:	b29b      	uxth	r3, r3
 80012de:	b2db      	uxtb	r3, r3
 80012e0:	3330      	adds	r3, #48	; 0x30
 80012e2:	b2db      	uxtb	r3, r3
 80012e4:	4619      	mov	r1, r3
 80012e6:	480f      	ldr	r0, [pc, #60]	; (8001324 <Menu_Parmetr_Drow+0x318>)
 80012e8:	f001 f95a 	bl	80025a0 <OLED_Send_Char>
		break;
 80012ec:	e016      	b.n	800131c <Menu_Parmetr_Drow+0x310>
		case BOOL:
			uint8_t *num=num_void;
 80012ee:	687b      	ldr	r3, [r7, #4]
 80012f0:	613b      	str	r3, [r7, #16]
			OLED_Set_Char_Cursor(&OLED1,x,y);
 80012f2:	78fb      	ldrb	r3, [r7, #3]
 80012f4:	b29b      	uxth	r3, r3
 80012f6:	78ba      	ldrb	r2, [r7, #2]
 80012f8:	4619      	mov	r1, r3
 80012fa:	480a      	ldr	r0, [pc, #40]	; (8001324 <Menu_Parmetr_Drow+0x318>)
 80012fc:	f001 f8f7 	bl	80024ee <OLED_Set_Char_Cursor>
			if(*num==1){
 8001300:	693b      	ldr	r3, [r7, #16]
 8001302:	781b      	ldrb	r3, [r3, #0]
 8001304:	2b01      	cmp	r3, #1
 8001306:	d104      	bne.n	8001312 <Menu_Parmetr_Drow+0x306>
				OLED_Send_String(&OLED1,"ON ");
 8001308:	490b      	ldr	r1, [pc, #44]	; (8001338 <Menu_Parmetr_Drow+0x32c>)
 800130a:	4806      	ldr	r0, [pc, #24]	; (8001324 <Menu_Parmetr_Drow+0x318>)
 800130c:	f001 f9a8 	bl	8002660 <OLED_Send_String>
			}else
				OLED_Send_String(&OLED1,"OFF");
		break;
 8001310:	e003      	b.n	800131a <Menu_Parmetr_Drow+0x30e>
				OLED_Send_String(&OLED1,"OFF");
 8001312:	490a      	ldr	r1, [pc, #40]	; (800133c <Menu_Parmetr_Drow+0x330>)
 8001314:	4803      	ldr	r0, [pc, #12]	; (8001324 <Menu_Parmetr_Drow+0x318>)
 8001316:	f001 f9a3 	bl	8002660 <OLED_Send_String>
		break;
 800131a:	bf00      	nop
	}
}
 800131c:	bf00      	nop
 800131e:	3718      	adds	r7, #24
 8001320:	46bd      	mov	sp, r7
 8001322:	bd80      	pop	{r7, pc}
 8001324:	20000774 	.word	0x20000774
 8001328:	10624dd3 	.word	0x10624dd3
 800132c:	66666667 	.word	0x66666667
 8001330:	51eb851f 	.word	0x51eb851f
 8001334:	cccccccd 	.word	0xcccccccd
 8001338:	08008ecc 	.word	0x08008ecc
 800133c:	08008ed0 	.word	0x08008ed0

08001340 <Menu_String_Drow>:
//--------------------------------------------------------------------------------------------------------------------------------------------------------
void Menu_String_Drow(char *str, uint8_t x, uint8_t y){
 8001340:	b580      	push	{r7, lr}
 8001342:	b082      	sub	sp, #8
 8001344:	af00      	add	r7, sp, #0
 8001346:	6078      	str	r0, [r7, #4]
 8001348:	460b      	mov	r3, r1
 800134a:	70fb      	strb	r3, [r7, #3]
 800134c:	4613      	mov	r3, r2
 800134e:	70bb      	strb	r3, [r7, #2]
	OLED_Set_Char_Cursor(&OLED1,x,y);
 8001350:	78fb      	ldrb	r3, [r7, #3]
 8001352:	b29b      	uxth	r3, r3
 8001354:	78ba      	ldrb	r2, [r7, #2]
 8001356:	4619      	mov	r1, r3
 8001358:	4805      	ldr	r0, [pc, #20]	; (8001370 <Menu_String_Drow+0x30>)
 800135a:	f001 f8c8 	bl	80024ee <OLED_Set_Char_Cursor>
	OLED_Send_String(&OLED1, str);
 800135e:	6879      	ldr	r1, [r7, #4]
 8001360:	4803      	ldr	r0, [pc, #12]	; (8001370 <Menu_String_Drow+0x30>)
 8001362:	f001 f97d 	bl	8002660 <OLED_Send_String>

}
 8001366:	bf00      	nop
 8001368:	3708      	adds	r7, #8
 800136a:	46bd      	mov	sp, r7
 800136c:	bd80      	pop	{r7, pc}
 800136e:	bf00      	nop
 8001370:	20000774 	.word	0x20000774

08001374 <Menu_List_Element_Drow>:
//--------------------------------------------------------------------------------------------------------------------------------------------------------
void Menu_List_Element_Drow(struct Menu_List_Element_Vector *self, uint8_t y){
 8001374:	b580      	push	{r7, lr}
 8001376:	b082      	sub	sp, #8
 8001378:	af00      	add	r7, sp, #0
 800137a:	6078      	str	r0, [r7, #4]
 800137c:	460b      	mov	r3, r1
 800137e:	70fb      	strb	r3, [r7, #3]
	OLED_Clear_Line(&OLED1,y);
 8001380:	78fb      	ldrb	r3, [r7, #3]
 8001382:	4619      	mov	r1, r3
 8001384:	480a      	ldr	r0, [pc, #40]	; (80013b0 <Menu_List_Element_Drow+0x3c>)
 8001386:	f001 f94d 	bl	8002624 <OLED_Clear_Line>
	Menu_String_Drow(self->name, 1, y);
 800138a:	687b      	ldr	r3, [r7, #4]
 800138c:	689b      	ldr	r3, [r3, #8]
 800138e:	78fa      	ldrb	r2, [r7, #3]
 8001390:	2101      	movs	r1, #1
 8001392:	4618      	mov	r0, r3
 8001394:	f7ff ffd4 	bl	8001340 <Menu_String_Drow>
	Menu_Parmetr_Drow(self->parametr, 16, y, self->mode);
 8001398:	687b      	ldr	r3, [r7, #4]
 800139a:	6918      	ldr	r0, [r3, #16]
 800139c:	687b      	ldr	r3, [r7, #4]
 800139e:	7b1b      	ldrb	r3, [r3, #12]
 80013a0:	78fa      	ldrb	r2, [r7, #3]
 80013a2:	2110      	movs	r1, #16
 80013a4:	f7ff fe32 	bl	800100c <Menu_Parmetr_Drow>
}
 80013a8:	bf00      	nop
 80013aa:	3708      	adds	r7, #8
 80013ac:	46bd      	mov	sp, r7
 80013ae:	bd80      	pop	{r7, pc}
 80013b0:	20000774 	.word	0x20000774

080013b4 <Menu_Center_String_Drow>:
//--------------------------------------------------------------------------------------------------------------------------------------------------------
void Menu_Center_String_Drow(char *str, uint8_t y,uint8_t *mas){
 80013b4:	b580      	push	{r7, lr}
 80013b6:	b084      	sub	sp, #16
 80013b8:	af00      	add	r7, sp, #0
 80013ba:	60f8      	str	r0, [r7, #12]
 80013bc:	460b      	mov	r3, r1
 80013be:	607a      	str	r2, [r7, #4]
 80013c0:	72fb      	strb	r3, [r7, #11]
	if(mas!=NULL){
 80013c2:	687b      	ldr	r3, [r7, #4]
 80013c4:	2b00      	cmp	r3, #0
 80013c6:	d020      	beq.n	800140a <Menu_Center_String_Drow+0x56>
		*mas =strlen(str);
 80013c8:	68f8      	ldr	r0, [r7, #12]
 80013ca:	f7fe febf 	bl	800014c <strlen>
 80013ce:	4603      	mov	r3, r0
 80013d0:	b2da      	uxtb	r2, r3
 80013d2:	687b      	ldr	r3, [r7, #4]
 80013d4:	701a      	strb	r2, [r3, #0]
		*(mas+1)=(21-*mas)/2;
 80013d6:	687b      	ldr	r3, [r7, #4]
 80013d8:	781b      	ldrb	r3, [r3, #0]
 80013da:	f1c3 0315 	rsb	r3, r3, #21
 80013de:	0fda      	lsrs	r2, r3, #31
 80013e0:	4413      	add	r3, r2
 80013e2:	105b      	asrs	r3, r3, #1
 80013e4:	461a      	mov	r2, r3
 80013e6:	687b      	ldr	r3, [r7, #4]
 80013e8:	3301      	adds	r3, #1
 80013ea:	b2d2      	uxtb	r2, r2
 80013ec:	701a      	strb	r2, [r3, #0]
		OLED_Clear_Line(&OLED1,y);
 80013ee:	7afb      	ldrb	r3, [r7, #11]
 80013f0:	4619      	mov	r1, r3
 80013f2:	4811      	ldr	r0, [pc, #68]	; (8001438 <Menu_Center_String_Drow+0x84>)
 80013f4:	f001 f916 	bl	8002624 <OLED_Clear_Line>
		Menu_String_Drow(str, *(mas+1), y);
 80013f8:	687b      	ldr	r3, [r7, #4]
 80013fa:	3301      	adds	r3, #1
 80013fc:	781b      	ldrb	r3, [r3, #0]
 80013fe:	7afa      	ldrb	r2, [r7, #11]
 8001400:	4619      	mov	r1, r3
 8001402:	68f8      	ldr	r0, [r7, #12]
 8001404:	f7ff ff9c 	bl	8001340 <Menu_String_Drow>
	}
	else{
		OLED_Clear_Line(&OLED1,y);
		Menu_String_Drow(str, (21-strlen(str))/2, y);
	}
}
 8001408:	e011      	b.n	800142e <Menu_Center_String_Drow+0x7a>
		OLED_Clear_Line(&OLED1,y);
 800140a:	7afb      	ldrb	r3, [r7, #11]
 800140c:	4619      	mov	r1, r3
 800140e:	480a      	ldr	r0, [pc, #40]	; (8001438 <Menu_Center_String_Drow+0x84>)
 8001410:	f001 f908 	bl	8002624 <OLED_Clear_Line>
		Menu_String_Drow(str, (21-strlen(str))/2, y);
 8001414:	68f8      	ldr	r0, [r7, #12]
 8001416:	f7fe fe99 	bl	800014c <strlen>
 800141a:	4603      	mov	r3, r0
 800141c:	f1c3 0315 	rsb	r3, r3, #21
 8001420:	085b      	lsrs	r3, r3, #1
 8001422:	b2db      	uxtb	r3, r3
 8001424:	7afa      	ldrb	r2, [r7, #11]
 8001426:	4619      	mov	r1, r3
 8001428:	68f8      	ldr	r0, [r7, #12]
 800142a:	f7ff ff89 	bl	8001340 <Menu_String_Drow>
}
 800142e:	bf00      	nop
 8001430:	3710      	adds	r7, #16
 8001432:	46bd      	mov	sp, r7
 8001434:	bd80      	pop	{r7, pc}
 8001436:	bf00      	nop
 8001438:	20000774 	.word	0x20000774

0800143c <Menu_List_Element_Vector_Drow>:
//--------------------------------------------------------------------------------------------------------------------------------------------------------
void Menu_List_Element_Vector_Drow(struct Menu_List_Element_Vector *self, uint8_t start_point, uint8_t quantity,uint8_t Ress){
 800143c:	b580      	push	{r7, lr}
 800143e:	b084      	sub	sp, #16
 8001440:	af00      	add	r7, sp, #0
 8001442:	6078      	str	r0, [r7, #4]
 8001444:	4608      	mov	r0, r1
 8001446:	4611      	mov	r1, r2
 8001448:	461a      	mov	r2, r3
 800144a:	4603      	mov	r3, r0
 800144c:	70fb      	strb	r3, [r7, #3]
 800144e:	460b      	mov	r3, r1
 8001450:	70bb      	strb	r3, [r7, #2]
 8001452:	4613      	mov	r3, r2
 8001454:	707b      	strb	r3, [r7, #1]
	static uint8_t  PRW_Start_Point=254;
	if(Ress==1)
 8001456:	787b      	ldrb	r3, [r7, #1]
 8001458:	2b01      	cmp	r3, #1
 800145a:	d102      	bne.n	8001462 <Menu_List_Element_Vector_Drow+0x26>
		PRW_Start_Point=254;
 800145c:	4b1b      	ldr	r3, [pc, #108]	; (80014cc <Menu_List_Element_Vector_Drow+0x90>)
 800145e:	22fe      	movs	r2, #254	; 0xfe
 8001460:	701a      	strb	r2, [r3, #0]
	if(start_point!=PRW_Start_Point){
 8001462:	4b1a      	ldr	r3, [pc, #104]	; (80014cc <Menu_List_Element_Vector_Drow+0x90>)
 8001464:	781b      	ldrb	r3, [r3, #0]
 8001466:	78fa      	ldrb	r2, [r7, #3]
 8001468:	429a      	cmp	r2, r3
 800146a:	d02a      	beq.n	80014c2 <Menu_List_Element_Vector_Drow+0x86>
		while(self->ID!=start_point)
 800146c:	e002      	b.n	8001474 <Menu_List_Element_Vector_Drow+0x38>
			self=self->next;
 800146e:	687b      	ldr	r3, [r7, #4]
 8001470:	681b      	ldr	r3, [r3, #0]
 8001472:	607b      	str	r3, [r7, #4]
		while(self->ID!=start_point)
 8001474:	687b      	ldr	r3, [r7, #4]
 8001476:	791b      	ldrb	r3, [r3, #4]
 8001478:	78fa      	ldrb	r2, [r7, #3]
 800147a:	429a      	cmp	r2, r3
 800147c:	d1f7      	bne.n	800146e <Menu_List_Element_Vector_Drow+0x32>
		for(uint8_t i=0;i<quantity;i++){
 800147e:	2300      	movs	r3, #0
 8001480:	73fb      	strb	r3, [r7, #15]
 8001482:	e017      	b.n	80014b4 <Menu_List_Element_Vector_Drow+0x78>
			if(self!=NULL){
 8001484:	687b      	ldr	r3, [r7, #4]
 8001486:	2b00      	cmp	r3, #0
 8001488:	d00a      	beq.n	80014a0 <Menu_List_Element_Vector_Drow+0x64>
				Menu_List_Element_Drow(self, i+1);
 800148a:	7bfb      	ldrb	r3, [r7, #15]
 800148c:	3301      	adds	r3, #1
 800148e:	b2db      	uxtb	r3, r3
 8001490:	4619      	mov	r1, r3
 8001492:	6878      	ldr	r0, [r7, #4]
 8001494:	f7ff ff6e 	bl	8001374 <Menu_List_Element_Drow>
				self=self->next;
 8001498:	687b      	ldr	r3, [r7, #4]
 800149a:	681b      	ldr	r3, [r3, #0]
 800149c:	607b      	str	r3, [r7, #4]
 800149e:	e006      	b.n	80014ae <Menu_List_Element_Vector_Drow+0x72>
			}
			else
				OLED_Clear_Line(&OLED1,i+1);
 80014a0:	7bfb      	ldrb	r3, [r7, #15]
 80014a2:	3301      	adds	r3, #1
 80014a4:	b2db      	uxtb	r3, r3
 80014a6:	4619      	mov	r1, r3
 80014a8:	4809      	ldr	r0, [pc, #36]	; (80014d0 <Menu_List_Element_Vector_Drow+0x94>)
 80014aa:	f001 f8bb 	bl	8002624 <OLED_Clear_Line>
		for(uint8_t i=0;i<quantity;i++){
 80014ae:	7bfb      	ldrb	r3, [r7, #15]
 80014b0:	3301      	adds	r3, #1
 80014b2:	73fb      	strb	r3, [r7, #15]
 80014b4:	7bfa      	ldrb	r2, [r7, #15]
 80014b6:	78bb      	ldrb	r3, [r7, #2]
 80014b8:	429a      	cmp	r2, r3
 80014ba:	d3e3      	bcc.n	8001484 <Menu_List_Element_Vector_Drow+0x48>
		}
		PRW_Start_Point=start_point;
 80014bc:	4a03      	ldr	r2, [pc, #12]	; (80014cc <Menu_List_Element_Vector_Drow+0x90>)
 80014be:	78fb      	ldrb	r3, [r7, #3]
 80014c0:	7013      	strb	r3, [r2, #0]
	}

}
 80014c2:	bf00      	nop
 80014c4:	3710      	adds	r7, #16
 80014c6:	46bd      	mov	sp, r7
 80014c8:	bd80      	pop	{r7, pc}
 80014ca:	bf00      	nop
 80014cc:	20000000 	.word	0x20000000
 80014d0:	20000774 	.word	0x20000774

080014d4 <Menu_List_Vector_Size>:
//--------------------------------------------------------------------------------------------------------------------------------------------------------
uint8_t Menu_List_Vector_Size(struct Menu_List_Element_Vector *self){
 80014d4:	b480      	push	{r7}
 80014d6:	b085      	sub	sp, #20
 80014d8:	af00      	add	r7, sp, #0
 80014da:	6078      	str	r0, [r7, #4]
	uint8_t MAX_ID=0;
 80014dc:	2300      	movs	r3, #0
 80014de:	73fb      	strb	r3, [r7, #15]
	while(self->next!=NULL){
 80014e0:	e005      	b.n	80014ee <Menu_List_Vector_Size+0x1a>
			self=self->next;
 80014e2:	687b      	ldr	r3, [r7, #4]
 80014e4:	681b      	ldr	r3, [r3, #0]
 80014e6:	607b      	str	r3, [r7, #4]
			MAX_ID++;
 80014e8:	7bfb      	ldrb	r3, [r7, #15]
 80014ea:	3301      	adds	r3, #1
 80014ec:	73fb      	strb	r3, [r7, #15]
	while(self->next!=NULL){
 80014ee:	687b      	ldr	r3, [r7, #4]
 80014f0:	681b      	ldr	r3, [r3, #0]
 80014f2:	2b00      	cmp	r3, #0
 80014f4:	d1f5      	bne.n	80014e2 <Menu_List_Vector_Size+0xe>
	}
	return MAX_ID++;
 80014f6:	7bfb      	ldrb	r3, [r7, #15]
 80014f8:	1c5a      	adds	r2, r3, #1
 80014fa:	73fa      	strb	r2, [r7, #15]
}
 80014fc:	4618      	mov	r0, r3
 80014fe:	3714      	adds	r7, #20
 8001500:	46bd      	mov	sp, r7
 8001502:	bc80      	pop	{r7}
 8001504:	4770      	bx	lr
	...

08001508 <OLED_Set_Menu_Cursor>:
//--------------------------------------------------------------------------------------------------------------------------------------------------------
void OLED_Set_Menu_Cursor(struct OLED *self, uint8_t x, uint8_t y,uint8_t Ress){
 8001508:	b580      	push	{r7, lr}
 800150a:	b082      	sub	sp, #8
 800150c:	af00      	add	r7, sp, #0
 800150e:	6078      	str	r0, [r7, #4]
 8001510:	4608      	mov	r0, r1
 8001512:	4611      	mov	r1, r2
 8001514:	461a      	mov	r2, r3
 8001516:	4603      	mov	r3, r0
 8001518:	70fb      	strb	r3, [r7, #3]
 800151a:	460b      	mov	r3, r1
 800151c:	70bb      	strb	r3, [r7, #2]
 800151e:	4613      	mov	r3, r2
 8001520:	707b      	strb	r3, [r7, #1]
	static uint8_t Prew_Pos_x=0,Prew_Pos_y=254;
	if(Ress==1)
 8001522:	787b      	ldrb	r3, [r7, #1]
 8001524:	2b01      	cmp	r3, #1
 8001526:	d102      	bne.n	800152e <OLED_Set_Menu_Cursor+0x26>
		Prew_Pos_y=254;
 8001528:	4b17      	ldr	r3, [pc, #92]	; (8001588 <OLED_Set_Menu_Cursor+0x80>)
 800152a:	22fe      	movs	r2, #254	; 0xfe
 800152c:	701a      	strb	r2, [r3, #0]
	if(Prew_Pos_x!=x||Prew_Pos_y!=y){
 800152e:	4b17      	ldr	r3, [pc, #92]	; (800158c <OLED_Set_Menu_Cursor+0x84>)
 8001530:	781b      	ldrb	r3, [r3, #0]
 8001532:	78fa      	ldrb	r2, [r7, #3]
 8001534:	429a      	cmp	r2, r3
 8001536:	d104      	bne.n	8001542 <OLED_Set_Menu_Cursor+0x3a>
 8001538:	4b13      	ldr	r3, [pc, #76]	; (8001588 <OLED_Set_Menu_Cursor+0x80>)
 800153a:	781b      	ldrb	r3, [r3, #0]
 800153c:	78ba      	ldrb	r2, [r7, #2]
 800153e:	429a      	cmp	r2, r3
 8001540:	d01d      	beq.n	800157e <OLED_Set_Menu_Cursor+0x76>
		OLED_Set_Char_Cursor(&OLED1,Prew_Pos_x,Prew_Pos_y);
 8001542:	4b12      	ldr	r3, [pc, #72]	; (800158c <OLED_Set_Menu_Cursor+0x84>)
 8001544:	781b      	ldrb	r3, [r3, #0]
 8001546:	b29b      	uxth	r3, r3
 8001548:	4a0f      	ldr	r2, [pc, #60]	; (8001588 <OLED_Set_Menu_Cursor+0x80>)
 800154a:	7812      	ldrb	r2, [r2, #0]
 800154c:	4619      	mov	r1, r3
 800154e:	4810      	ldr	r0, [pc, #64]	; (8001590 <OLED_Set_Menu_Cursor+0x88>)
 8001550:	f000 ffcd 	bl	80024ee <OLED_Set_Char_Cursor>
		OLED_Send_Char(&OLED1,' ');
 8001554:	2120      	movs	r1, #32
 8001556:	480e      	ldr	r0, [pc, #56]	; (8001590 <OLED_Set_Menu_Cursor+0x88>)
 8001558:	f001 f822 	bl	80025a0 <OLED_Send_Char>
		OLED_Set_Char_Cursor(&OLED1,x,y);
 800155c:	78fb      	ldrb	r3, [r7, #3]
 800155e:	b29b      	uxth	r3, r3
 8001560:	78ba      	ldrb	r2, [r7, #2]
 8001562:	4619      	mov	r1, r3
 8001564:	480a      	ldr	r0, [pc, #40]	; (8001590 <OLED_Set_Menu_Cursor+0x88>)
 8001566:	f000 ffc2 	bl	80024ee <OLED_Set_Char_Cursor>
		OLED_Send_Char(&OLED1,'>');
 800156a:	213e      	movs	r1, #62	; 0x3e
 800156c:	4808      	ldr	r0, [pc, #32]	; (8001590 <OLED_Set_Menu_Cursor+0x88>)
 800156e:	f001 f817 	bl	80025a0 <OLED_Send_Char>
		Prew_Pos_x=x;
 8001572:	4a06      	ldr	r2, [pc, #24]	; (800158c <OLED_Set_Menu_Cursor+0x84>)
 8001574:	78fb      	ldrb	r3, [r7, #3]
 8001576:	7013      	strb	r3, [r2, #0]
		Prew_Pos_y=y;
 8001578:	4a03      	ldr	r2, [pc, #12]	; (8001588 <OLED_Set_Menu_Cursor+0x80>)
 800157a:	78bb      	ldrb	r3, [r7, #2]
 800157c:	7013      	strb	r3, [r2, #0]
	}
}
 800157e:	bf00      	nop
 8001580:	3708      	adds	r7, #8
 8001582:	46bd      	mov	sp, r7
 8001584:	bd80      	pop	{r7, pc}
 8001586:	bf00      	nop
 8001588:	20000001 	.word	0x20000001
 800158c:	200004ff 	.word	0x200004ff
 8001590:	20000774 	.word	0x20000774

08001594 <Value_Changing>:

void Value_Changing(void *parametr, uint8_t step, enum Type mode, uint16_t min, uint16_t max, int *Incoder_counter){
 8001594:	b480      	push	{r7}
 8001596:	b083      	sub	sp, #12
 8001598:	af00      	add	r7, sp, #0
 800159a:	6078      	str	r0, [r7, #4]
 800159c:	4608      	mov	r0, r1
 800159e:	4611      	mov	r1, r2
 80015a0:	461a      	mov	r2, r3
 80015a2:	4603      	mov	r3, r0
 80015a4:	70fb      	strb	r3, [r7, #3]
 80015a6:	460b      	mov	r3, r1
 80015a8:	70bb      	strb	r3, [r7, #2]
 80015aa:	4613      	mov	r3, r2
 80015ac:	803b      	strh	r3, [r7, #0]
	switch(mode){
 80015ae:	78bb      	ldrb	r3, [r7, #2]
 80015b0:	2b03      	cmp	r3, #3
 80015b2:	f200 8085 	bhi.w	80016c0 <Value_Changing+0x12c>
 80015b6:	a201      	add	r2, pc, #4	; (adr r2, 80015bc <Value_Changing+0x28>)
 80015b8:	f852 f023 	ldr.w	pc, [r2, r3, lsl #2]
 80015bc:	080015cd 	.word	0x080015cd
 80015c0:	080015e3 	.word	0x080015e3
 80015c4:	08001643 	.word	0x08001643
 80015c8:	080016a1 	.word	0x080016a1
		case INT:
			*(int*)parametr+=(*Incoder_counter)*step;
 80015cc:	687b      	ldr	r3, [r7, #4]
 80015ce:	681a      	ldr	r2, [r3, #0]
 80015d0:	697b      	ldr	r3, [r7, #20]
 80015d2:	681b      	ldr	r3, [r3, #0]
 80015d4:	78f9      	ldrb	r1, [r7, #3]
 80015d6:	fb01 f303 	mul.w	r3, r1, r3
 80015da:	441a      	add	r2, r3
 80015dc:	687b      	ldr	r3, [r7, #4]
 80015de:	601a      	str	r2, [r3, #0]
		break;
 80015e0:	e06e      	b.n	80016c0 <Value_Changing+0x12c>
		case UINT8:
			if((*(uint8_t*)parametr+(*Incoder_counter)*step)<min)
 80015e2:	687b      	ldr	r3, [r7, #4]
 80015e4:	781b      	ldrb	r3, [r3, #0]
 80015e6:	4619      	mov	r1, r3
 80015e8:	697b      	ldr	r3, [r7, #20]
 80015ea:	681b      	ldr	r3, [r3, #0]
 80015ec:	78fa      	ldrb	r2, [r7, #3]
 80015ee:	fb02 f303 	mul.w	r3, r2, r3
 80015f2:	18ca      	adds	r2, r1, r3
 80015f4:	883b      	ldrh	r3, [r7, #0]
 80015f6:	429a      	cmp	r2, r3
 80015f8:	da04      	bge.n	8001604 <Value_Changing+0x70>
				*(uint8_t*)parametr=(uint8_t)min;
 80015fa:	883b      	ldrh	r3, [r7, #0]
 80015fc:	b2da      	uxtb	r2, r3
 80015fe:	687b      	ldr	r3, [r7, #4]
 8001600:	701a      	strb	r2, [r3, #0]
			else if ((*(uint8_t*)parametr+(*Incoder_counter)*step)>max)
				*(uint8_t*)parametr=(uint8_t)max;
			else
				*(uint8_t*)parametr+=(uint8_t)(*Incoder_counter)*step;
		break;
 8001602:	e05d      	b.n	80016c0 <Value_Changing+0x12c>
			else if ((*(uint8_t*)parametr+(*Incoder_counter)*step)>max)
 8001604:	687b      	ldr	r3, [r7, #4]
 8001606:	781b      	ldrb	r3, [r3, #0]
 8001608:	4619      	mov	r1, r3
 800160a:	697b      	ldr	r3, [r7, #20]
 800160c:	681b      	ldr	r3, [r3, #0]
 800160e:	78fa      	ldrb	r2, [r7, #3]
 8001610:	fb02 f303 	mul.w	r3, r2, r3
 8001614:	18ca      	adds	r2, r1, r3
 8001616:	8a3b      	ldrh	r3, [r7, #16]
 8001618:	429a      	cmp	r2, r3
 800161a:	dd04      	ble.n	8001626 <Value_Changing+0x92>
				*(uint8_t*)parametr=(uint8_t)max;
 800161c:	8a3b      	ldrh	r3, [r7, #16]
 800161e:	b2da      	uxtb	r2, r3
 8001620:	687b      	ldr	r3, [r7, #4]
 8001622:	701a      	strb	r2, [r3, #0]
		break;
 8001624:	e04c      	b.n	80016c0 <Value_Changing+0x12c>
				*(uint8_t*)parametr+=(uint8_t)(*Incoder_counter)*step;
 8001626:	687b      	ldr	r3, [r7, #4]
 8001628:	781a      	ldrb	r2, [r3, #0]
 800162a:	697b      	ldr	r3, [r7, #20]
 800162c:	681b      	ldr	r3, [r3, #0]
 800162e:	b2db      	uxtb	r3, r3
 8001630:	78f9      	ldrb	r1, [r7, #3]
 8001632:	fb01 f303 	mul.w	r3, r1, r3
 8001636:	b2db      	uxtb	r3, r3
 8001638:	4413      	add	r3, r2
 800163a:	b2da      	uxtb	r2, r3
 800163c:	687b      	ldr	r3, [r7, #4]
 800163e:	701a      	strb	r2, [r3, #0]
		break;
 8001640:	e03e      	b.n	80016c0 <Value_Changing+0x12c>
		case UINT16:
			if((*(uint16_t*)parametr+(*Incoder_counter)*step)<min)
 8001642:	687b      	ldr	r3, [r7, #4]
 8001644:	881b      	ldrh	r3, [r3, #0]
 8001646:	4619      	mov	r1, r3
 8001648:	697b      	ldr	r3, [r7, #20]
 800164a:	681b      	ldr	r3, [r3, #0]
 800164c:	78fa      	ldrb	r2, [r7, #3]
 800164e:	fb02 f303 	mul.w	r3, r2, r3
 8001652:	18ca      	adds	r2, r1, r3
 8001654:	883b      	ldrh	r3, [r7, #0]
 8001656:	429a      	cmp	r2, r3
 8001658:	da03      	bge.n	8001662 <Value_Changing+0xce>
				*(uint16_t*)parametr=(uint16_t)min;
 800165a:	687b      	ldr	r3, [r7, #4]
 800165c:	883a      	ldrh	r2, [r7, #0]
 800165e:	801a      	strh	r2, [r3, #0]
			else if ((*(uint16_t*)parametr+(*Incoder_counter)*step)>max)
				*(uint16_t*)parametr=(uint16_t)max;
			else
				*(uint16_t*)parametr+=(uint16_t)(*Incoder_counter)*step;
		break;
 8001660:	e02e      	b.n	80016c0 <Value_Changing+0x12c>
			else if ((*(uint16_t*)parametr+(*Incoder_counter)*step)>max)
 8001662:	687b      	ldr	r3, [r7, #4]
 8001664:	881b      	ldrh	r3, [r3, #0]
 8001666:	4619      	mov	r1, r3
 8001668:	697b      	ldr	r3, [r7, #20]
 800166a:	681b      	ldr	r3, [r3, #0]
 800166c:	78fa      	ldrb	r2, [r7, #3]
 800166e:	fb02 f303 	mul.w	r3, r2, r3
 8001672:	18ca      	adds	r2, r1, r3
 8001674:	8a3b      	ldrh	r3, [r7, #16]
 8001676:	429a      	cmp	r2, r3
 8001678:	dd03      	ble.n	8001682 <Value_Changing+0xee>
				*(uint16_t*)parametr=(uint16_t)max;
 800167a:	687b      	ldr	r3, [r7, #4]
 800167c:	8a3a      	ldrh	r2, [r7, #16]
 800167e:	801a      	strh	r2, [r3, #0]
		break;
 8001680:	e01e      	b.n	80016c0 <Value_Changing+0x12c>
				*(uint16_t*)parametr+=(uint16_t)(*Incoder_counter)*step;
 8001682:	687b      	ldr	r3, [r7, #4]
 8001684:	881a      	ldrh	r2, [r3, #0]
 8001686:	697b      	ldr	r3, [r7, #20]
 8001688:	681b      	ldr	r3, [r3, #0]
 800168a:	b29b      	uxth	r3, r3
 800168c:	78f9      	ldrb	r1, [r7, #3]
 800168e:	b289      	uxth	r1, r1
 8001690:	fb01 f303 	mul.w	r3, r1, r3
 8001694:	b29b      	uxth	r3, r3
 8001696:	4413      	add	r3, r2
 8001698:	b29a      	uxth	r2, r3
 800169a:	687b      	ldr	r3, [r7, #4]
 800169c:	801a      	strh	r2, [r3, #0]
		break;
 800169e:	e00f      	b.n	80016c0 <Value_Changing+0x12c>
		case BOOL:
			if(*Incoder_counter>0)
 80016a0:	697b      	ldr	r3, [r7, #20]
 80016a2:	681b      	ldr	r3, [r3, #0]
 80016a4:	2b00      	cmp	r3, #0
 80016a6:	dd03      	ble.n	80016b0 <Value_Changing+0x11c>
				*(uint8_t*)parametr=1;
 80016a8:	687b      	ldr	r3, [r7, #4]
 80016aa:	2201      	movs	r2, #1
 80016ac:	701a      	strb	r2, [r3, #0]
			else if(*Incoder_counter<0)
				*(uint8_t*)parametr=0;
		break;
 80016ae:	e006      	b.n	80016be <Value_Changing+0x12a>
			else if(*Incoder_counter<0)
 80016b0:	697b      	ldr	r3, [r7, #20]
 80016b2:	681b      	ldr	r3, [r3, #0]
 80016b4:	2b00      	cmp	r3, #0
 80016b6:	da02      	bge.n	80016be <Value_Changing+0x12a>
				*(uint8_t*)parametr=0;
 80016b8:	687b      	ldr	r3, [r7, #4]
 80016ba:	2200      	movs	r2, #0
 80016bc:	701a      	strb	r2, [r3, #0]
		break;
 80016be:	bf00      	nop
	}
	*Incoder_counter=0;
 80016c0:	697b      	ldr	r3, [r7, #20]
 80016c2:	2200      	movs	r2, #0
 80016c4:	601a      	str	r2, [r3, #0]
}
 80016c6:	bf00      	nop
 80016c8:	370c      	adds	r7, #12
 80016ca:	46bd      	mov	sp, r7
 80016cc:	bc80      	pop	{r7}
 80016ce:	4770      	bx	lr

080016d0 <Value_Change>:
//--------------------------------------------------------------------------------------------------------------------------------------------------------
void Value_Change(void *parametr, uint8_t x, uint8_t y, uint8_t step, enum Type mode, uint16_t min, uint16_t max, int *Incoder_counter){
 80016d0:	b580      	push	{r7, lr}
 80016d2:	b084      	sub	sp, #16
 80016d4:	af02      	add	r7, sp, #8
 80016d6:	6078      	str	r0, [r7, #4]
 80016d8:	4608      	mov	r0, r1
 80016da:	4611      	mov	r1, r2
 80016dc:	461a      	mov	r2, r3
 80016de:	4603      	mov	r3, r0
 80016e0:	70fb      	strb	r3, [r7, #3]
 80016e2:	460b      	mov	r3, r1
 80016e4:	70bb      	strb	r3, [r7, #2]
 80016e6:	4613      	mov	r3, r2
 80016e8:	707b      	strb	r3, [r7, #1]

	Value_Changing(parametr, step, mode,  min, max, Incoder_counter);
 80016ea:	8ab8      	ldrh	r0, [r7, #20]
 80016ec:	7c3a      	ldrb	r2, [r7, #16]
 80016ee:	7879      	ldrb	r1, [r7, #1]
 80016f0:	69fb      	ldr	r3, [r7, #28]
 80016f2:	9301      	str	r3, [sp, #4]
 80016f4:	8b3b      	ldrh	r3, [r7, #24]
 80016f6:	9300      	str	r3, [sp, #0]
 80016f8:	4603      	mov	r3, r0
 80016fa:	6878      	ldr	r0, [r7, #4]
 80016fc:	f7ff ff4a 	bl	8001594 <Value_Changing>
	Menu_Parmetr_Drow(parametr, x, y,mode);
 8001700:	7c3b      	ldrb	r3, [r7, #16]
 8001702:	78ba      	ldrb	r2, [r7, #2]
 8001704:	78f9      	ldrb	r1, [r7, #3]
 8001706:	6878      	ldr	r0, [r7, #4]
 8001708:	f7ff fc80 	bl	800100c <Menu_Parmetr_Drow>
}
 800170c:	bf00      	nop
 800170e:	3708      	adds	r7, #8
 8001710:	46bd      	mov	sp, r7
 8001712:	bd80      	pop	{r7, pc}

08001714 <Menu_List_Element_Value_Change>:
void Menu_List_Element_Value_Change(struct Menu_List_Element_Vector *self, uint8_t y){
 8001714:	b590      	push	{r4, r7, lr}
 8001716:	b087      	sub	sp, #28
 8001718:	af04      	add	r7, sp, #16
 800171a:	6078      	str	r0, [r7, #4]
 800171c:	460b      	mov	r3, r1
 800171e:	70fb      	strb	r3, [r7, #3]
	Incoder_Button_State_P2=Incoder_Button_NotPressed;
 8001720:	4b13      	ldr	r3, [pc, #76]	; (8001770 <Menu_List_Element_Value_Change+0x5c>)
 8001722:	2200      	movs	r2, #0
 8001724:	701a      	strb	r2, [r3, #0]
	OLED_Set_Menu_Cursor(&OLED1,15, y,0);
 8001726:	78fa      	ldrb	r2, [r7, #3]
 8001728:	2300      	movs	r3, #0
 800172a:	210f      	movs	r1, #15
 800172c:	4811      	ldr	r0, [pc, #68]	; (8001774 <Menu_List_Element_Value_Change+0x60>)
 800172e:	f7ff feeb 	bl	8001508 <OLED_Set_Menu_Cursor>
	while(Incoder_Button_State_P2!=Incoder_Button_long){
 8001732:	e012      	b.n	800175a <Menu_List_Element_Value_Change+0x46>
		Value_Change(self->parametr, 16, y, self->step, self->mode, 0, 65535, &Incoder_P2_Count);
 8001734:	687b      	ldr	r3, [r7, #4]
 8001736:	6918      	ldr	r0, [r3, #16]
 8001738:	687b      	ldr	r3, [r7, #4]
 800173a:	7b59      	ldrb	r1, [r3, #13]
 800173c:	687b      	ldr	r3, [r7, #4]
 800173e:	7b1b      	ldrb	r3, [r3, #12]
 8001740:	78fa      	ldrb	r2, [r7, #3]
 8001742:	4c0d      	ldr	r4, [pc, #52]	; (8001778 <Menu_List_Element_Value_Change+0x64>)
 8001744:	9403      	str	r4, [sp, #12]
 8001746:	f64f 74ff 	movw	r4, #65535	; 0xffff
 800174a:	9402      	str	r4, [sp, #8]
 800174c:	2400      	movs	r4, #0
 800174e:	9401      	str	r4, [sp, #4]
 8001750:	9300      	str	r3, [sp, #0]
 8001752:	460b      	mov	r3, r1
 8001754:	2110      	movs	r1, #16
 8001756:	f7ff ffbb 	bl	80016d0 <Value_Change>
	while(Incoder_Button_State_P2!=Incoder_Button_long){
 800175a:	4b05      	ldr	r3, [pc, #20]	; (8001770 <Menu_List_Element_Value_Change+0x5c>)
 800175c:	781b      	ldrb	r3, [r3, #0]
 800175e:	2b03      	cmp	r3, #3
 8001760:	d1e8      	bne.n	8001734 <Menu_List_Element_Value_Change+0x20>
	}
	Incoder_Button_State_P2=Incoder_Button_NotPressed;
 8001762:	4b03      	ldr	r3, [pc, #12]	; (8001770 <Menu_List_Element_Value_Change+0x5c>)
 8001764:	2200      	movs	r2, #0
 8001766:	701a      	strb	r2, [r3, #0]

}
 8001768:	bf00      	nop
 800176a:	370c      	adds	r7, #12
 800176c:	46bd      	mov	sp, r7
 800176e:	bd90      	pop	{r4, r7, pc}
 8001770:	200004fc 	.word	0x200004fc
 8001774:	20000774 	.word	0x20000774
 8001778:	200004f4 	.word	0x200004f4

0800177c <Menu_List_Element_Vector_it>:
//--------------------------------------------------------------------------------------------------------------------------------------------------------
void Menu_List_Element_Vector_it(struct Menu_List_Element_Vector *self){
 800177c:	b580      	push	{r7, lr}
 800177e:	b086      	sub	sp, #24
 8001780:	af00      	add	r7, sp, #0
 8001782:	6078      	str	r0, [r7, #4]
	int Menu_Count=0;
 8001784:	2300      	movs	r3, #0
 8001786:	617b      	str	r3, [r7, #20]
	uint8_t MAX_ID=Menu_List_Vector_Size(self);
 8001788:	6878      	ldr	r0, [r7, #4]
 800178a:	f7ff fea3 	bl	80014d4 <Menu_List_Vector_Size>
 800178e:	4603      	mov	r3, r0
 8001790:	73fb      	strb	r3, [r7, #15]
	Incoder_Button_State_P2=Incoder_Button_NotPressed;
 8001792:	4b54      	ldr	r3, [pc, #336]	; (80018e4 <Menu_List_Element_Vector_it+0x168>)
 8001794:	2200      	movs	r2, #0
 8001796:	701a      	strb	r2, [r3, #0]
	Menu_List_Element_Vector_Drow(self, (uint8_t)(Menu_Count/DROW_LIMIT)*DROW_LIMIT, DROW_LIMIT,1);
 8001798:	697b      	ldr	r3, [r7, #20]
 800179a:	4a53      	ldr	r2, [pc, #332]	; (80018e8 <Menu_List_Element_Vector_it+0x16c>)
 800179c:	fb82 1203 	smull	r1, r2, r2, r3
 80017a0:	441a      	add	r2, r3
 80017a2:	1092      	asrs	r2, r2, #2
 80017a4:	17db      	asrs	r3, r3, #31
 80017a6:	1ad3      	subs	r3, r2, r3
 80017a8:	b2db      	uxtb	r3, r3
 80017aa:	461a      	mov	r2, r3
 80017ac:	00d2      	lsls	r2, r2, #3
 80017ae:	1ad3      	subs	r3, r2, r3
 80017b0:	b2d9      	uxtb	r1, r3
 80017b2:	2301      	movs	r3, #1
 80017b4:	2207      	movs	r2, #7
 80017b6:	6878      	ldr	r0, [r7, #4]
 80017b8:	f7ff fe40 	bl	800143c <Menu_List_Element_Vector_Drow>
	OLED_Set_Menu_Cursor(&OLED1, 0, Menu_Count% DROW_LIMIT+1,1);
 80017bc:	697a      	ldr	r2, [r7, #20]
 80017be:	4b4a      	ldr	r3, [pc, #296]	; (80018e8 <Menu_List_Element_Vector_it+0x16c>)
 80017c0:	fb83 1302 	smull	r1, r3, r3, r2
 80017c4:	4413      	add	r3, r2
 80017c6:	1099      	asrs	r1, r3, #2
 80017c8:	17d3      	asrs	r3, r2, #31
 80017ca:	1ac9      	subs	r1, r1, r3
 80017cc:	460b      	mov	r3, r1
 80017ce:	00db      	lsls	r3, r3, #3
 80017d0:	1a5b      	subs	r3, r3, r1
 80017d2:	1ad1      	subs	r1, r2, r3
 80017d4:	b2cb      	uxtb	r3, r1
 80017d6:	3301      	adds	r3, #1
 80017d8:	b2da      	uxtb	r2, r3
 80017da:	2301      	movs	r3, #1
 80017dc:	2100      	movs	r1, #0
 80017de:	4843      	ldr	r0, [pc, #268]	; (80018ec <Menu_List_Element_Vector_it+0x170>)
 80017e0:	f7ff fe92 	bl	8001508 <OLED_Set_Menu_Cursor>
	while(Incoder_Button_State_P2!=Incoder_Button_long){
 80017e4:	e074      	b.n	80018d0 <Menu_List_Element_Vector_it+0x154>
		Menu_Count+= Incoder_P2_Count;
 80017e6:	4b42      	ldr	r3, [pc, #264]	; (80018f0 <Menu_List_Element_Vector_it+0x174>)
 80017e8:	681b      	ldr	r3, [r3, #0]
 80017ea:	697a      	ldr	r2, [r7, #20]
 80017ec:	4413      	add	r3, r2
 80017ee:	617b      	str	r3, [r7, #20]
		Incoder_P2_Count=0;
 80017f0:	4b3f      	ldr	r3, [pc, #252]	; (80018f0 <Menu_List_Element_Vector_it+0x174>)
 80017f2:	2200      	movs	r2, #0
 80017f4:	601a      	str	r2, [r3, #0]
		if(Menu_Count<0)
 80017f6:	697b      	ldr	r3, [r7, #20]
 80017f8:	2b00      	cmp	r3, #0
 80017fa:	da02      	bge.n	8001802 <Menu_List_Element_Vector_it+0x86>
			Menu_Count=0;
 80017fc:	2300      	movs	r3, #0
 80017fe:	617b      	str	r3, [r7, #20]
 8001800:	e005      	b.n	800180e <Menu_List_Element_Vector_it+0x92>
		else if(Menu_Count>MAX_ID)
 8001802:	7bfb      	ldrb	r3, [r7, #15]
 8001804:	697a      	ldr	r2, [r7, #20]
 8001806:	429a      	cmp	r2, r3
 8001808:	dd01      	ble.n	800180e <Menu_List_Element_Vector_it+0x92>
			Menu_Count=MAX_ID;
 800180a:	7bfb      	ldrb	r3, [r7, #15]
 800180c:	617b      	str	r3, [r7, #20]

		Menu_List_Element_Vector_Drow(self, (uint8_t)(Menu_Count/DROW_LIMIT)*DROW_LIMIT, DROW_LIMIT,0);
 800180e:	697b      	ldr	r3, [r7, #20]
 8001810:	4a35      	ldr	r2, [pc, #212]	; (80018e8 <Menu_List_Element_Vector_it+0x16c>)
 8001812:	fb82 1203 	smull	r1, r2, r2, r3
 8001816:	441a      	add	r2, r3
 8001818:	1092      	asrs	r2, r2, #2
 800181a:	17db      	asrs	r3, r3, #31
 800181c:	1ad3      	subs	r3, r2, r3
 800181e:	b2db      	uxtb	r3, r3
 8001820:	461a      	mov	r2, r3
 8001822:	00d2      	lsls	r2, r2, #3
 8001824:	1ad3      	subs	r3, r2, r3
 8001826:	b2d9      	uxtb	r1, r3
 8001828:	2300      	movs	r3, #0
 800182a:	2207      	movs	r2, #7
 800182c:	6878      	ldr	r0, [r7, #4]
 800182e:	f7ff fe05 	bl	800143c <Menu_List_Element_Vector_Drow>
		OLED_Set_Menu_Cursor(&OLED1, 0, Menu_Count% DROW_LIMIT+1,0);
 8001832:	697a      	ldr	r2, [r7, #20]
 8001834:	4b2c      	ldr	r3, [pc, #176]	; (80018e8 <Menu_List_Element_Vector_it+0x16c>)
 8001836:	fb83 1302 	smull	r1, r3, r3, r2
 800183a:	4413      	add	r3, r2
 800183c:	1099      	asrs	r1, r3, #2
 800183e:	17d3      	asrs	r3, r2, #31
 8001840:	1ac9      	subs	r1, r1, r3
 8001842:	460b      	mov	r3, r1
 8001844:	00db      	lsls	r3, r3, #3
 8001846:	1a5b      	subs	r3, r3, r1
 8001848:	1ad1      	subs	r1, r2, r3
 800184a:	b2cb      	uxtb	r3, r1
 800184c:	3301      	adds	r3, #1
 800184e:	b2da      	uxtb	r2, r3
 8001850:	2300      	movs	r3, #0
 8001852:	2100      	movs	r1, #0
 8001854:	4825      	ldr	r0, [pc, #148]	; (80018ec <Menu_List_Element_Vector_it+0x170>)
 8001856:	f7ff fe57 	bl	8001508 <OLED_Set_Menu_Cursor>

		if(Incoder_Button_State_P2==Incoder_Button_Short){
 800185a:	4b22      	ldr	r3, [pc, #136]	; (80018e4 <Menu_List_Element_Vector_it+0x168>)
 800185c:	781b      	ldrb	r3, [r3, #0]
 800185e:	2b02      	cmp	r3, #2
 8001860:	d136      	bne.n	80018d0 <Menu_List_Element_Vector_it+0x154>
			struct Menu_List_Element_Vector *now;
			now=self;
 8001862:	687b      	ldr	r3, [r7, #4]
 8001864:	613b      	str	r3, [r7, #16]
			while(now->ID!=Menu_Count){
 8001866:	e002      	b.n	800186e <Menu_List_Element_Vector_it+0xf2>
				now=now->next;
 8001868:	693b      	ldr	r3, [r7, #16]
 800186a:	681b      	ldr	r3, [r3, #0]
 800186c:	613b      	str	r3, [r7, #16]
			while(now->ID!=Menu_Count){
 800186e:	693b      	ldr	r3, [r7, #16]
 8001870:	791b      	ldrb	r3, [r3, #4]
 8001872:	461a      	mov	r2, r3
 8001874:	697b      	ldr	r3, [r7, #20]
 8001876:	4293      	cmp	r3, r2
 8001878:	d1f6      	bne.n	8001868 <Menu_List_Element_Vector_it+0xec>
			}
			Menu_List_Element_Value_Change(now,  now->ID% DROW_LIMIT+1);
 800187a:	693b      	ldr	r3, [r7, #16]
 800187c:	791a      	ldrb	r2, [r3, #4]
 800187e:	4b1d      	ldr	r3, [pc, #116]	; (80018f4 <Menu_List_Element_Vector_it+0x178>)
 8001880:	fba3 1302 	umull	r1, r3, r3, r2
 8001884:	1ad1      	subs	r1, r2, r3
 8001886:	0849      	lsrs	r1, r1, #1
 8001888:	440b      	add	r3, r1
 800188a:	0899      	lsrs	r1, r3, #2
 800188c:	460b      	mov	r3, r1
 800188e:	00db      	lsls	r3, r3, #3
 8001890:	1a5b      	subs	r3, r3, r1
 8001892:	1ad3      	subs	r3, r2, r3
 8001894:	b2db      	uxtb	r3, r3
 8001896:	3301      	adds	r3, #1
 8001898:	b2db      	uxtb	r3, r3
 800189a:	4619      	mov	r1, r3
 800189c:	6938      	ldr	r0, [r7, #16]
 800189e:	f7ff ff39 	bl	8001714 <Menu_List_Element_Value_Change>
			OLED_Set_Menu_Cursor(&OLED1, 0, Menu_Count% DROW_LIMIT+1,1);
 80018a2:	697a      	ldr	r2, [r7, #20]
 80018a4:	4b10      	ldr	r3, [pc, #64]	; (80018e8 <Menu_List_Element_Vector_it+0x16c>)
 80018a6:	fb83 1302 	smull	r1, r3, r3, r2
 80018aa:	4413      	add	r3, r2
 80018ac:	1099      	asrs	r1, r3, #2
 80018ae:	17d3      	asrs	r3, r2, #31
 80018b0:	1ac9      	subs	r1, r1, r3
 80018b2:	460b      	mov	r3, r1
 80018b4:	00db      	lsls	r3, r3, #3
 80018b6:	1a5b      	subs	r3, r3, r1
 80018b8:	1ad1      	subs	r1, r2, r3
 80018ba:	b2cb      	uxtb	r3, r1
 80018bc:	3301      	adds	r3, #1
 80018be:	b2da      	uxtb	r2, r3
 80018c0:	2301      	movs	r3, #1
 80018c2:	2100      	movs	r1, #0
 80018c4:	4809      	ldr	r0, [pc, #36]	; (80018ec <Menu_List_Element_Vector_it+0x170>)
 80018c6:	f7ff fe1f 	bl	8001508 <OLED_Set_Menu_Cursor>
			Incoder_Button_State_P2=Incoder_Button_NotPressed;
 80018ca:	4b06      	ldr	r3, [pc, #24]	; (80018e4 <Menu_List_Element_Vector_it+0x168>)
 80018cc:	2200      	movs	r2, #0
 80018ce:	701a      	strb	r2, [r3, #0]
	while(Incoder_Button_State_P2!=Incoder_Button_long){
 80018d0:	4b04      	ldr	r3, [pc, #16]	; (80018e4 <Menu_List_Element_Vector_it+0x168>)
 80018d2:	781b      	ldrb	r3, [r3, #0]
 80018d4:	2b03      	cmp	r3, #3
 80018d6:	d186      	bne.n	80017e6 <Menu_List_Element_Vector_it+0x6a>
		}
	}
}
 80018d8:	bf00      	nop
 80018da:	bf00      	nop
 80018dc:	3718      	adds	r7, #24
 80018de:	46bd      	mov	sp, r7
 80018e0:	bd80      	pop	{r7, pc}
 80018e2:	bf00      	nop
 80018e4:	200004fc 	.word	0x200004fc
 80018e8:	92492493 	.word	0x92492493
 80018ec:	20000774 	.word	0x20000774
 80018f0:	200004f4 	.word	0x200004f4
 80018f4:	24924925 	.word	0x24924925

080018f8 <Menu_List_Element_Create>:
//--------------------------------------------------------------------------------------------------------------------------------------------------------
void Menu_List_Element_Create(struct Menu_List_Element_Vector *head,struct Menu_List_Element_Vector *ini_element){
 80018f8:	b5b0      	push	{r4, r5, r7, lr}
 80018fa:	b086      	sub	sp, #24
 80018fc:	af00      	add	r7, sp, #0
 80018fe:	6078      	str	r0, [r7, #4]
 8001900:	6039      	str	r1, [r7, #0]
	char *st= malloc((sizeof(char)*(strlen(ini_element->name)+1)));
 8001902:	683b      	ldr	r3, [r7, #0]
 8001904:	689b      	ldr	r3, [r3, #8]
 8001906:	4618      	mov	r0, r3
 8001908:	f7fe fc20 	bl	800014c <strlen>
 800190c:	4603      	mov	r3, r0
 800190e:	3301      	adds	r3, #1
 8001910:	4618      	mov	r0, r3
 8001912:	f007 f9c1 	bl	8008c98 <malloc>
 8001916:	4603      	mov	r3, r0
 8001918:	613b      	str	r3, [r7, #16]
	strcpy(st,ini_element->name);
 800191a:	683b      	ldr	r3, [r7, #0]
 800191c:	689b      	ldr	r3, [r3, #8]
 800191e:	4619      	mov	r1, r3
 8001920:	6938      	ldr	r0, [r7, #16]
 8001922:	f007 fab1 	bl	8008e88 <strcpy>
	if(head->parametr==NULL){
 8001926:	687b      	ldr	r3, [r7, #4]
 8001928:	691b      	ldr	r3, [r3, #16]
 800192a:	2b00      	cmp	r3, #0
 800192c:	d10e      	bne.n	800194c <Menu_List_Element_Create+0x54>
		*head=*ini_element;
 800192e:	687a      	ldr	r2, [r7, #4]
 8001930:	683b      	ldr	r3, [r7, #0]
 8001932:	4614      	mov	r4, r2
 8001934:	461d      	mov	r5, r3
 8001936:	cd0f      	ldmia	r5!, {r0, r1, r2, r3}
 8001938:	c40f      	stmia	r4!, {r0, r1, r2, r3}
 800193a:	682b      	ldr	r3, [r5, #0]
 800193c:	6023      	str	r3, [r4, #0]
		head->ID=0;
 800193e:	687b      	ldr	r3, [r7, #4]
 8001940:	2200      	movs	r2, #0
 8001942:	711a      	strb	r2, [r3, #4]
		head->next=NULL;
 8001944:	687b      	ldr	r3, [r7, #4]
 8001946:	2200      	movs	r2, #0
 8001948:	601a      	str	r2, [r3, #0]
			NEW_Element->ID++;
		}
		NEW_Element->ID++;
		now->next=NEW_Element;
	}
}
 800194a:	e02c      	b.n	80019a6 <Menu_List_Element_Create+0xae>
		struct Menu_List_Element_Vector *now=head;
 800194c:	687b      	ldr	r3, [r7, #4]
 800194e:	617b      	str	r3, [r7, #20]
		struct Menu_List_Element_Vector *NEW_Element= malloc(sizeof(struct Menu_List_Element_Vector));
 8001950:	2014      	movs	r0, #20
 8001952:	f007 f9a1 	bl	8008c98 <malloc>
 8001956:	4603      	mov	r3, r0
 8001958:	60fb      	str	r3, [r7, #12]
		*NEW_Element=*ini_element;
 800195a:	68fa      	ldr	r2, [r7, #12]
 800195c:	683b      	ldr	r3, [r7, #0]
 800195e:	4614      	mov	r4, r2
 8001960:	461d      	mov	r5, r3
 8001962:	cd0f      	ldmia	r5!, {r0, r1, r2, r3}
 8001964:	c40f      	stmia	r4!, {r0, r1, r2, r3}
 8001966:	682b      	ldr	r3, [r5, #0]
 8001968:	6023      	str	r3, [r4, #0]
		NEW_Element->ID=head->ID;
 800196a:	687b      	ldr	r3, [r7, #4]
 800196c:	791a      	ldrb	r2, [r3, #4]
 800196e:	68fb      	ldr	r3, [r7, #12]
 8001970:	711a      	strb	r2, [r3, #4]
		NEW_Element->next=NULL;
 8001972:	68fb      	ldr	r3, [r7, #12]
 8001974:	2200      	movs	r2, #0
 8001976:	601a      	str	r2, [r3, #0]
		while(now->next!=NULL){
 8001978:	e008      	b.n	800198c <Menu_List_Element_Create+0x94>
			now=now->next;
 800197a:	697b      	ldr	r3, [r7, #20]
 800197c:	681b      	ldr	r3, [r3, #0]
 800197e:	617b      	str	r3, [r7, #20]
			NEW_Element->ID++;
 8001980:	68fb      	ldr	r3, [r7, #12]
 8001982:	791b      	ldrb	r3, [r3, #4]
 8001984:	3301      	adds	r3, #1
 8001986:	b2da      	uxtb	r2, r3
 8001988:	68fb      	ldr	r3, [r7, #12]
 800198a:	711a      	strb	r2, [r3, #4]
		while(now->next!=NULL){
 800198c:	697b      	ldr	r3, [r7, #20]
 800198e:	681b      	ldr	r3, [r3, #0]
 8001990:	2b00      	cmp	r3, #0
 8001992:	d1f2      	bne.n	800197a <Menu_List_Element_Create+0x82>
		NEW_Element->ID++;
 8001994:	68fb      	ldr	r3, [r7, #12]
 8001996:	791b      	ldrb	r3, [r3, #4]
 8001998:	3301      	adds	r3, #1
 800199a:	b2da      	uxtb	r2, r3
 800199c:	68fb      	ldr	r3, [r7, #12]
 800199e:	711a      	strb	r2, [r3, #4]
		now->next=NEW_Element;
 80019a0:	697b      	ldr	r3, [r7, #20]
 80019a2:	68fa      	ldr	r2, [r7, #12]
 80019a4:	601a      	str	r2, [r3, #0]
}
 80019a6:	bf00      	nop
 80019a8:	3718      	adds	r7, #24
 80019aa:	46bd      	mov	sp, r7
 80019ac:	bdb0      	pop	{r4, r5, r7, pc}

080019ae <Menu_List_Size>:
//--------------------------------------------------------------------------------------------------------------------------------------------------------
uint8_t Menu_List_Size(struct Menu_List_Vector *self){
 80019ae:	b480      	push	{r7}
 80019b0:	b085      	sub	sp, #20
 80019b2:	af00      	add	r7, sp, #0
 80019b4:	6078      	str	r0, [r7, #4]
	uint8_t MAX_ID=0;
 80019b6:	2300      	movs	r3, #0
 80019b8:	73fb      	strb	r3, [r7, #15]
	while(self->next!=NULL){
 80019ba:	e005      	b.n	80019c8 <Menu_List_Size+0x1a>
			self=self->next;
 80019bc:	687b      	ldr	r3, [r7, #4]
 80019be:	681b      	ldr	r3, [r3, #0]
 80019c0:	607b      	str	r3, [r7, #4]
			MAX_ID++;
 80019c2:	7bfb      	ldrb	r3, [r7, #15]
 80019c4:	3301      	adds	r3, #1
 80019c6:	73fb      	strb	r3, [r7, #15]
	while(self->next!=NULL){
 80019c8:	687b      	ldr	r3, [r7, #4]
 80019ca:	681b      	ldr	r3, [r3, #0]
 80019cc:	2b00      	cmp	r3, #0
 80019ce:	d1f5      	bne.n	80019bc <Menu_List_Size+0xe>
	}
	return MAX_ID++;
 80019d0:	7bfb      	ldrb	r3, [r7, #15]
 80019d2:	1c5a      	adds	r2, r3, #1
 80019d4:	73fa      	strb	r2, [r7, #15]
}
 80019d6:	4618      	mov	r0, r3
 80019d8:	3714      	adds	r7, #20
 80019da:	46bd      	mov	sp, r7
 80019dc:	bc80      	pop	{r7}
 80019de:	4770      	bx	lr

080019e0 <Menu_List_Vector_Drow>:
//--------------------------------------------------------------------------------------------------------------------------------------------------------
void Menu_List_Vector_Drow(struct Menu_List_Vector *self, uint8_t start_point, uint8_t quantity,uint8_t Ress ,uint8_t *mas){
 80019e0:	b580      	push	{r7, lr}
 80019e2:	b084      	sub	sp, #16
 80019e4:	af00      	add	r7, sp, #0
 80019e6:	6078      	str	r0, [r7, #4]
 80019e8:	4608      	mov	r0, r1
 80019ea:	4611      	mov	r1, r2
 80019ec:	461a      	mov	r2, r3
 80019ee:	4603      	mov	r3, r0
 80019f0:	70fb      	strb	r3, [r7, #3]
 80019f2:	460b      	mov	r3, r1
 80019f4:	70bb      	strb	r3, [r7, #2]
 80019f6:	4613      	mov	r3, r2
 80019f8:	707b      	strb	r3, [r7, #1]
	static uint8_t  PRW_Start_Point=254;
	if(Ress==1)
 80019fa:	787b      	ldrb	r3, [r7, #1]
 80019fc:	2b01      	cmp	r3, #1
 80019fe:	d102      	bne.n	8001a06 <Menu_List_Vector_Drow+0x26>
		PRW_Start_Point=254;
 8001a00:	4b1e      	ldr	r3, [pc, #120]	; (8001a7c <Menu_List_Vector_Drow+0x9c>)
 8001a02:	22fe      	movs	r2, #254	; 0xfe
 8001a04:	701a      	strb	r2, [r3, #0]
	if(start_point!=PRW_Start_Point){
 8001a06:	4b1d      	ldr	r3, [pc, #116]	; (8001a7c <Menu_List_Vector_Drow+0x9c>)
 8001a08:	781b      	ldrb	r3, [r3, #0]
 8001a0a:	78fa      	ldrb	r2, [r7, #3]
 8001a0c:	429a      	cmp	r2, r3
 8001a0e:	d030      	beq.n	8001a72 <Menu_List_Vector_Drow+0x92>
		while(self->ID!=start_point)
 8001a10:	e002      	b.n	8001a18 <Menu_List_Vector_Drow+0x38>
			self=self->next;
 8001a12:	687b      	ldr	r3, [r7, #4]
 8001a14:	681b      	ldr	r3, [r3, #0]
 8001a16:	607b      	str	r3, [r7, #4]
		while(self->ID!=start_point)
 8001a18:	687b      	ldr	r3, [r7, #4]
 8001a1a:	7a1b      	ldrb	r3, [r3, #8]
 8001a1c:	78fa      	ldrb	r2, [r7, #3]
 8001a1e:	429a      	cmp	r2, r3
 8001a20:	d1f7      	bne.n	8001a12 <Menu_List_Vector_Drow+0x32>
		for(uint8_t i=0;i<quantity;i++){
 8001a22:	2300      	movs	r3, #0
 8001a24:	73fb      	strb	r3, [r7, #15]
 8001a26:	e01d      	b.n	8001a64 <Menu_List_Vector_Drow+0x84>
			if(self!=NULL){
 8001a28:	687b      	ldr	r3, [r7, #4]
 8001a2a:	2b00      	cmp	r3, #0
 8001a2c:	d010      	beq.n	8001a50 <Menu_List_Vector_Drow+0x70>
				Menu_Center_String_Drow(self->name, i+1, (mas+(i*2)));
 8001a2e:	687b      	ldr	r3, [r7, #4]
 8001a30:	68d8      	ldr	r0, [r3, #12]
 8001a32:	7bfb      	ldrb	r3, [r7, #15]
 8001a34:	3301      	adds	r3, #1
 8001a36:	b2d9      	uxtb	r1, r3
 8001a38:	7bfb      	ldrb	r3, [r7, #15]
 8001a3a:	005b      	lsls	r3, r3, #1
 8001a3c:	461a      	mov	r2, r3
 8001a3e:	69bb      	ldr	r3, [r7, #24]
 8001a40:	4413      	add	r3, r2
 8001a42:	461a      	mov	r2, r3
 8001a44:	f7ff fcb6 	bl	80013b4 <Menu_Center_String_Drow>
				self=self->next;
 8001a48:	687b      	ldr	r3, [r7, #4]
 8001a4a:	681b      	ldr	r3, [r3, #0]
 8001a4c:	607b      	str	r3, [r7, #4]
 8001a4e:	e006      	b.n	8001a5e <Menu_List_Vector_Drow+0x7e>
			}
			else
				OLED_Clear_Line(&OLED1,i+1);
 8001a50:	7bfb      	ldrb	r3, [r7, #15]
 8001a52:	3301      	adds	r3, #1
 8001a54:	b2db      	uxtb	r3, r3
 8001a56:	4619      	mov	r1, r3
 8001a58:	4809      	ldr	r0, [pc, #36]	; (8001a80 <Menu_List_Vector_Drow+0xa0>)
 8001a5a:	f000 fde3 	bl	8002624 <OLED_Clear_Line>
		for(uint8_t i=0;i<quantity;i++){
 8001a5e:	7bfb      	ldrb	r3, [r7, #15]
 8001a60:	3301      	adds	r3, #1
 8001a62:	73fb      	strb	r3, [r7, #15]
 8001a64:	7bfa      	ldrb	r2, [r7, #15]
 8001a66:	78bb      	ldrb	r3, [r7, #2]
 8001a68:	429a      	cmp	r2, r3
 8001a6a:	d3dd      	bcc.n	8001a28 <Menu_List_Vector_Drow+0x48>
		}
		PRW_Start_Point=start_point;
 8001a6c:	4a03      	ldr	r2, [pc, #12]	; (8001a7c <Menu_List_Vector_Drow+0x9c>)
 8001a6e:	78fb      	ldrb	r3, [r7, #3]
 8001a70:	7013      	strb	r3, [r2, #0]
	}
}
 8001a72:	bf00      	nop
 8001a74:	3710      	adds	r7, #16
 8001a76:	46bd      	mov	sp, r7
 8001a78:	bd80      	pop	{r7, pc}
 8001a7a:	bf00      	nop
 8001a7c:	20000002 	.word	0x20000002
 8001a80:	20000774 	.word	0x20000774

08001a84 <OLED_Set_Menu_List_Cursor>:
//--------------------------------------------------------------------------------------------------------------------------------------------------------
void OLED_Set_Menu_List_Cursor(struct OLED *self, uint8_t x, uint8_t y,uint8_t Lens, uint8_t Ress){
 8001a84:	b580      	push	{r7, lr}
 8001a86:	b082      	sub	sp, #8
 8001a88:	af00      	add	r7, sp, #0
 8001a8a:	6078      	str	r0, [r7, #4]
 8001a8c:	4608      	mov	r0, r1
 8001a8e:	4611      	mov	r1, r2
 8001a90:	461a      	mov	r2, r3
 8001a92:	4603      	mov	r3, r0
 8001a94:	70fb      	strb	r3, [r7, #3]
 8001a96:	460b      	mov	r3, r1
 8001a98:	70bb      	strb	r3, [r7, #2]
 8001a9a:	4613      	mov	r3, r2
 8001a9c:	707b      	strb	r3, [r7, #1]
	static uint8_t Prew_Pos_x=0,Prew_Pos_y=254, Prew_Lens=0;
	if(Ress==1)
 8001a9e:	7c3b      	ldrb	r3, [r7, #16]
 8001aa0:	2b01      	cmp	r3, #1
 8001aa2:	d102      	bne.n	8001aaa <OLED_Set_Menu_List_Cursor+0x26>
		Prew_Pos_y=254;
 8001aa4:	4b2d      	ldr	r3, [pc, #180]	; (8001b5c <OLED_Set_Menu_List_Cursor+0xd8>)
 8001aa6:	22fe      	movs	r2, #254	; 0xfe
 8001aa8:	701a      	strb	r2, [r3, #0]
	if(Prew_Pos_x!=x||Prew_Pos_y!=y){
 8001aaa:	4b2d      	ldr	r3, [pc, #180]	; (8001b60 <OLED_Set_Menu_List_Cursor+0xdc>)
 8001aac:	781b      	ldrb	r3, [r3, #0]
 8001aae:	78fa      	ldrb	r2, [r7, #3]
 8001ab0:	429a      	cmp	r2, r3
 8001ab2:	d104      	bne.n	8001abe <OLED_Set_Menu_List_Cursor+0x3a>
 8001ab4:	4b29      	ldr	r3, [pc, #164]	; (8001b5c <OLED_Set_Menu_List_Cursor+0xd8>)
 8001ab6:	781b      	ldrb	r3, [r3, #0]
 8001ab8:	78ba      	ldrb	r2, [r7, #2]
 8001aba:	429a      	cmp	r2, r3
 8001abc:	d049      	beq.n	8001b52 <OLED_Set_Menu_List_Cursor+0xce>
		OLED_Set_Char_Cursor(&OLED1,Prew_Pos_x-2,Prew_Pos_y);
 8001abe:	4b28      	ldr	r3, [pc, #160]	; (8001b60 <OLED_Set_Menu_List_Cursor+0xdc>)
 8001ac0:	781b      	ldrb	r3, [r3, #0]
 8001ac2:	b29b      	uxth	r3, r3
 8001ac4:	3b02      	subs	r3, #2
 8001ac6:	b29b      	uxth	r3, r3
 8001ac8:	4a24      	ldr	r2, [pc, #144]	; (8001b5c <OLED_Set_Menu_List_Cursor+0xd8>)
 8001aca:	7812      	ldrb	r2, [r2, #0]
 8001acc:	4619      	mov	r1, r3
 8001ace:	4825      	ldr	r0, [pc, #148]	; (8001b64 <OLED_Set_Menu_List_Cursor+0xe0>)
 8001ad0:	f000 fd0d 	bl	80024ee <OLED_Set_Char_Cursor>
		OLED_Send_Char(&OLED1,' ');
 8001ad4:	2120      	movs	r1, #32
 8001ad6:	4823      	ldr	r0, [pc, #140]	; (8001b64 <OLED_Set_Menu_List_Cursor+0xe0>)
 8001ad8:	f000 fd62 	bl	80025a0 <OLED_Send_Char>
		if(Prew_Lens!=0);
		OLED_Set_Char_Cursor(&OLED1,Prew_Pos_x+Prew_Lens+1,Prew_Pos_y);
 8001adc:	4b20      	ldr	r3, [pc, #128]	; (8001b60 <OLED_Set_Menu_List_Cursor+0xdc>)
 8001ade:	781b      	ldrb	r3, [r3, #0]
 8001ae0:	b29a      	uxth	r2, r3
 8001ae2:	4b21      	ldr	r3, [pc, #132]	; (8001b68 <OLED_Set_Menu_List_Cursor+0xe4>)
 8001ae4:	781b      	ldrb	r3, [r3, #0]
 8001ae6:	b29b      	uxth	r3, r3
 8001ae8:	4413      	add	r3, r2
 8001aea:	b29b      	uxth	r3, r3
 8001aec:	3301      	adds	r3, #1
 8001aee:	b29b      	uxth	r3, r3
 8001af0:	4a1a      	ldr	r2, [pc, #104]	; (8001b5c <OLED_Set_Menu_List_Cursor+0xd8>)
 8001af2:	7812      	ldrb	r2, [r2, #0]
 8001af4:	4619      	mov	r1, r3
 8001af6:	481b      	ldr	r0, [pc, #108]	; (8001b64 <OLED_Set_Menu_List_Cursor+0xe0>)
 8001af8:	f000 fcf9 	bl	80024ee <OLED_Set_Char_Cursor>
		OLED_Send_Char(&OLED1,' ');
 8001afc:	2120      	movs	r1, #32
 8001afe:	4819      	ldr	r0, [pc, #100]	; (8001b64 <OLED_Set_Menu_List_Cursor+0xe0>)
 8001b00:	f000 fd4e 	bl	80025a0 <OLED_Send_Char>

		OLED_Set_Char_Cursor(&OLED1,x-2,y);
 8001b04:	78fb      	ldrb	r3, [r7, #3]
 8001b06:	b29b      	uxth	r3, r3
 8001b08:	3b02      	subs	r3, #2
 8001b0a:	b29b      	uxth	r3, r3
 8001b0c:	78ba      	ldrb	r2, [r7, #2]
 8001b0e:	4619      	mov	r1, r3
 8001b10:	4814      	ldr	r0, [pc, #80]	; (8001b64 <OLED_Set_Menu_List_Cursor+0xe0>)
 8001b12:	f000 fcec 	bl	80024ee <OLED_Set_Char_Cursor>
		OLED_Send_Char(&OLED1,'>');
 8001b16:	213e      	movs	r1, #62	; 0x3e
 8001b18:	4812      	ldr	r0, [pc, #72]	; (8001b64 <OLED_Set_Menu_List_Cursor+0xe0>)
 8001b1a:	f000 fd41 	bl	80025a0 <OLED_Send_Char>
		OLED_Set_Char_Cursor(&OLED1,x+Lens+1,y);
 8001b1e:	78fb      	ldrb	r3, [r7, #3]
 8001b20:	b29a      	uxth	r2, r3
 8001b22:	787b      	ldrb	r3, [r7, #1]
 8001b24:	b29b      	uxth	r3, r3
 8001b26:	4413      	add	r3, r2
 8001b28:	b29b      	uxth	r3, r3
 8001b2a:	3301      	adds	r3, #1
 8001b2c:	b29b      	uxth	r3, r3
 8001b2e:	78ba      	ldrb	r2, [r7, #2]
 8001b30:	4619      	mov	r1, r3
 8001b32:	480c      	ldr	r0, [pc, #48]	; (8001b64 <OLED_Set_Menu_List_Cursor+0xe0>)
 8001b34:	f000 fcdb 	bl	80024ee <OLED_Set_Char_Cursor>
		OLED_Send_Char(&OLED1,'<');
 8001b38:	213c      	movs	r1, #60	; 0x3c
 8001b3a:	480a      	ldr	r0, [pc, #40]	; (8001b64 <OLED_Set_Menu_List_Cursor+0xe0>)
 8001b3c:	f000 fd30 	bl	80025a0 <OLED_Send_Char>

		Prew_Pos_x=x;
 8001b40:	4a07      	ldr	r2, [pc, #28]	; (8001b60 <OLED_Set_Menu_List_Cursor+0xdc>)
 8001b42:	78fb      	ldrb	r3, [r7, #3]
 8001b44:	7013      	strb	r3, [r2, #0]
		Prew_Pos_y=y;
 8001b46:	4a05      	ldr	r2, [pc, #20]	; (8001b5c <OLED_Set_Menu_List_Cursor+0xd8>)
 8001b48:	78bb      	ldrb	r3, [r7, #2]
 8001b4a:	7013      	strb	r3, [r2, #0]
		Prew_Lens=Lens;
 8001b4c:	4a06      	ldr	r2, [pc, #24]	; (8001b68 <OLED_Set_Menu_List_Cursor+0xe4>)
 8001b4e:	787b      	ldrb	r3, [r7, #1]
 8001b50:	7013      	strb	r3, [r2, #0]
	}
}
 8001b52:	bf00      	nop
 8001b54:	3708      	adds	r7, #8
 8001b56:	46bd      	mov	sp, r7
 8001b58:	bd80      	pop	{r7, pc}
 8001b5a:	bf00      	nop
 8001b5c:	20000003 	.word	0x20000003
 8001b60:	20000500 	.word	0x20000500
 8001b64:	20000774 	.word	0x20000774
 8001b68:	20000501 	.word	0x20000501

08001b6c <Menu_List_Vector_it>:
//--------------------------------------------------------------------------------------------------------------------------------------------------------
void Menu_List_Vector_it(struct Menu_List_Vector *self){
 8001b6c:	b590      	push	{r4, r7, lr}
 8001b6e:	b08b      	sub	sp, #44	; 0x2c
 8001b70:	af02      	add	r7, sp, #8
 8001b72:	6078      	str	r0, [r7, #4]
	int Menu_Count=0;
 8001b74:	2300      	movs	r3, #0
 8001b76:	61fb      	str	r3, [r7, #28]
	uint8_t mas[15]; // 0 Length 1-st str; 1 start position 1-st str; 2 lenth 1-st str; 3 start postition 2-st str.......


	uint8_t MAX_ID=Menu_List_Size(self);
 8001b78:	6878      	ldr	r0, [r7, #4]
 8001b7a:	f7ff ff18 	bl	80019ae <Menu_List_Size>
 8001b7e:	4603      	mov	r3, r0
 8001b80:	75fb      	strb	r3, [r7, #23]
	Incoder_Button_State_P2=Incoder_Button_NotPressed;
 8001b82:	4b8c      	ldr	r3, [pc, #560]	; (8001db4 <Menu_List_Vector_it+0x248>)
 8001b84:	2200      	movs	r2, #0
 8001b86:	701a      	strb	r2, [r3, #0]
	Menu_Center_String_Drow("MENU",0,NULL);
 8001b88:	2200      	movs	r2, #0
 8001b8a:	2100      	movs	r1, #0
 8001b8c:	488a      	ldr	r0, [pc, #552]	; (8001db8 <Menu_List_Vector_it+0x24c>)
 8001b8e:	f7ff fc11 	bl	80013b4 <Menu_Center_String_Drow>
	Menu_List_Vector_Drow(self, (uint8_t)(Menu_Count/DROW_LIMIT)*DROW_LIMIT, DROW_LIMIT,1, &mas[0]);
 8001b92:	69fb      	ldr	r3, [r7, #28]
 8001b94:	4a89      	ldr	r2, [pc, #548]	; (8001dbc <Menu_List_Vector_it+0x250>)
 8001b96:	fb82 1203 	smull	r1, r2, r2, r3
 8001b9a:	441a      	add	r2, r3
 8001b9c:	1092      	asrs	r2, r2, #2
 8001b9e:	17db      	asrs	r3, r3, #31
 8001ba0:	1ad3      	subs	r3, r2, r3
 8001ba2:	b2db      	uxtb	r3, r3
 8001ba4:	461a      	mov	r2, r3
 8001ba6:	00d2      	lsls	r2, r2, #3
 8001ba8:	1ad3      	subs	r3, r2, r3
 8001baa:	b2d9      	uxtb	r1, r3
 8001bac:	f107 0308 	add.w	r3, r7, #8
 8001bb0:	9300      	str	r3, [sp, #0]
 8001bb2:	2301      	movs	r3, #1
 8001bb4:	2207      	movs	r2, #7
 8001bb6:	6878      	ldr	r0, [r7, #4]
 8001bb8:	f7ff ff12 	bl	80019e0 <Menu_List_Vector_Drow>
	OLED_Set_Menu_List_Cursor(&OLED1, mas[1], Menu_Count% DROW_LIMIT+1,mas[0],1);
 8001bbc:	7a78      	ldrb	r0, [r7, #9]
 8001bbe:	69fa      	ldr	r2, [r7, #28]
 8001bc0:	4b7e      	ldr	r3, [pc, #504]	; (8001dbc <Menu_List_Vector_it+0x250>)
 8001bc2:	fb83 1302 	smull	r1, r3, r3, r2
 8001bc6:	4413      	add	r3, r2
 8001bc8:	1099      	asrs	r1, r3, #2
 8001bca:	17d3      	asrs	r3, r2, #31
 8001bcc:	1ac9      	subs	r1, r1, r3
 8001bce:	460b      	mov	r3, r1
 8001bd0:	00db      	lsls	r3, r3, #3
 8001bd2:	1a5b      	subs	r3, r3, r1
 8001bd4:	1ad1      	subs	r1, r2, r3
 8001bd6:	b2cb      	uxtb	r3, r1
 8001bd8:	3301      	adds	r3, #1
 8001bda:	b2da      	uxtb	r2, r3
 8001bdc:	7a3b      	ldrb	r3, [r7, #8]
 8001bde:	2101      	movs	r1, #1
 8001be0:	9100      	str	r1, [sp, #0]
 8001be2:	4601      	mov	r1, r0
 8001be4:	4876      	ldr	r0, [pc, #472]	; (8001dc0 <Menu_List_Vector_it+0x254>)
 8001be6:	f7ff ff4d 	bl	8001a84 <OLED_Set_Menu_List_Cursor>

	while(Incoder_Button_State_P2!=Incoder_Button_long){
 8001bea:	e0d8      	b.n	8001d9e <Menu_List_Vector_it+0x232>
		Menu_Count+= Incoder_P2_Count;
 8001bec:	4b75      	ldr	r3, [pc, #468]	; (8001dc4 <Menu_List_Vector_it+0x258>)
 8001bee:	681b      	ldr	r3, [r3, #0]
 8001bf0:	69fa      	ldr	r2, [r7, #28]
 8001bf2:	4413      	add	r3, r2
 8001bf4:	61fb      	str	r3, [r7, #28]
		Incoder_P2_Count=0;
 8001bf6:	4b73      	ldr	r3, [pc, #460]	; (8001dc4 <Menu_List_Vector_it+0x258>)
 8001bf8:	2200      	movs	r2, #0
 8001bfa:	601a      	str	r2, [r3, #0]
		if(Menu_Count<0)
 8001bfc:	69fb      	ldr	r3, [r7, #28]
 8001bfe:	2b00      	cmp	r3, #0
 8001c00:	da02      	bge.n	8001c08 <Menu_List_Vector_it+0x9c>
			Menu_Count=0;
 8001c02:	2300      	movs	r3, #0
 8001c04:	61fb      	str	r3, [r7, #28]
 8001c06:	e005      	b.n	8001c14 <Menu_List_Vector_it+0xa8>
		else if(Menu_Count>MAX_ID)
 8001c08:	7dfb      	ldrb	r3, [r7, #23]
 8001c0a:	69fa      	ldr	r2, [r7, #28]
 8001c0c:	429a      	cmp	r2, r3
 8001c0e:	dd01      	ble.n	8001c14 <Menu_List_Vector_it+0xa8>
			Menu_Count=MAX_ID;
 8001c10:	7dfb      	ldrb	r3, [r7, #23]
 8001c12:	61fb      	str	r3, [r7, #28]

		Menu_List_Vector_Drow(self, (uint8_t)(Menu_Count/DROW_LIMIT)*DROW_LIMIT, DROW_LIMIT,0,&mas[0]);
 8001c14:	69fb      	ldr	r3, [r7, #28]
 8001c16:	4a69      	ldr	r2, [pc, #420]	; (8001dbc <Menu_List_Vector_it+0x250>)
 8001c18:	fb82 1203 	smull	r1, r2, r2, r3
 8001c1c:	441a      	add	r2, r3
 8001c1e:	1092      	asrs	r2, r2, #2
 8001c20:	17db      	asrs	r3, r3, #31
 8001c22:	1ad3      	subs	r3, r2, r3
 8001c24:	b2db      	uxtb	r3, r3
 8001c26:	461a      	mov	r2, r3
 8001c28:	00d2      	lsls	r2, r2, #3
 8001c2a:	1ad3      	subs	r3, r2, r3
 8001c2c:	b2d9      	uxtb	r1, r3
 8001c2e:	f107 0308 	add.w	r3, r7, #8
 8001c32:	9300      	str	r3, [sp, #0]
 8001c34:	2300      	movs	r3, #0
 8001c36:	2207      	movs	r2, #7
 8001c38:	6878      	ldr	r0, [r7, #4]
 8001c3a:	f7ff fed1 	bl	80019e0 <Menu_List_Vector_Drow>
		OLED_Set_Menu_List_Cursor(&OLED1, mas[(Menu_Count% DROW_LIMIT)*2+1], Menu_Count% DROW_LIMIT+1,mas[(Menu_Count% DROW_LIMIT)*2],0);
 8001c3e:	69fa      	ldr	r2, [r7, #28]
 8001c40:	4b5e      	ldr	r3, [pc, #376]	; (8001dbc <Menu_List_Vector_it+0x250>)
 8001c42:	fb83 1302 	smull	r1, r3, r3, r2
 8001c46:	4413      	add	r3, r2
 8001c48:	1099      	asrs	r1, r3, #2
 8001c4a:	17d3      	asrs	r3, r2, #31
 8001c4c:	1ac9      	subs	r1, r1, r3
 8001c4e:	460b      	mov	r3, r1
 8001c50:	00db      	lsls	r3, r3, #3
 8001c52:	1a5b      	subs	r3, r3, r1
 8001c54:	1ad1      	subs	r1, r2, r3
 8001c56:	004b      	lsls	r3, r1, #1
 8001c58:	3301      	adds	r3, #1
 8001c5a:	3320      	adds	r3, #32
 8001c5c:	443b      	add	r3, r7
 8001c5e:	f813 0c18 	ldrb.w	r0, [r3, #-24]
 8001c62:	69fa      	ldr	r2, [r7, #28]
 8001c64:	4b55      	ldr	r3, [pc, #340]	; (8001dbc <Menu_List_Vector_it+0x250>)
 8001c66:	fb83 1302 	smull	r1, r3, r3, r2
 8001c6a:	4413      	add	r3, r2
 8001c6c:	1099      	asrs	r1, r3, #2
 8001c6e:	17d3      	asrs	r3, r2, #31
 8001c70:	1ac9      	subs	r1, r1, r3
 8001c72:	460b      	mov	r3, r1
 8001c74:	00db      	lsls	r3, r3, #3
 8001c76:	1a5b      	subs	r3, r3, r1
 8001c78:	1ad1      	subs	r1, r2, r3
 8001c7a:	b2cb      	uxtb	r3, r1
 8001c7c:	3301      	adds	r3, #1
 8001c7e:	b2dc      	uxtb	r4, r3
 8001c80:	69fa      	ldr	r2, [r7, #28]
 8001c82:	4b4e      	ldr	r3, [pc, #312]	; (8001dbc <Menu_List_Vector_it+0x250>)
 8001c84:	fb83 1302 	smull	r1, r3, r3, r2
 8001c88:	4413      	add	r3, r2
 8001c8a:	1099      	asrs	r1, r3, #2
 8001c8c:	17d3      	asrs	r3, r2, #31
 8001c8e:	1ac9      	subs	r1, r1, r3
 8001c90:	460b      	mov	r3, r1
 8001c92:	00db      	lsls	r3, r3, #3
 8001c94:	1a5b      	subs	r3, r3, r1
 8001c96:	1ad1      	subs	r1, r2, r3
 8001c98:	004b      	lsls	r3, r1, #1
 8001c9a:	3320      	adds	r3, #32
 8001c9c:	443b      	add	r3, r7
 8001c9e:	f813 3c18 	ldrb.w	r3, [r3, #-24]
 8001ca2:	2200      	movs	r2, #0
 8001ca4:	9200      	str	r2, [sp, #0]
 8001ca6:	4622      	mov	r2, r4
 8001ca8:	4601      	mov	r1, r0
 8001caa:	4845      	ldr	r0, [pc, #276]	; (8001dc0 <Menu_List_Vector_it+0x254>)
 8001cac:	f7ff feea 	bl	8001a84 <OLED_Set_Menu_List_Cursor>

		if(Incoder_Button_State_P2==Incoder_Button_Short){   								//Element select
 8001cb0:	4b40      	ldr	r3, [pc, #256]	; (8001db4 <Menu_List_Vector_it+0x248>)
 8001cb2:	781b      	ldrb	r3, [r3, #0]
 8001cb4:	2b02      	cmp	r3, #2
 8001cb6:	d172      	bne.n	8001d9e <Menu_List_Vector_it+0x232>
			struct Menu_List_Vector *now;
			now=self;
 8001cb8:	687b      	ldr	r3, [r7, #4]
 8001cba:	61bb      	str	r3, [r7, #24]
			while(now->ID!=Menu_Count){
 8001cbc:	e002      	b.n	8001cc4 <Menu_List_Vector_it+0x158>
				now=now->next;																//Shift Element pointer to select element
 8001cbe:	69bb      	ldr	r3, [r7, #24]
 8001cc0:	681b      	ldr	r3, [r3, #0]
 8001cc2:	61bb      	str	r3, [r7, #24]
			while(now->ID!=Menu_Count){
 8001cc4:	69bb      	ldr	r3, [r7, #24]
 8001cc6:	7a1b      	ldrb	r3, [r3, #8]
 8001cc8:	461a      	mov	r2, r3
 8001cca:	69fb      	ldr	r3, [r7, #28]
 8001ccc:	4293      	cmp	r3, r2
 8001cce:	d1f6      	bne.n	8001cbe <Menu_List_Vector_it+0x152>
			}

			Menu_Center_String_Drow(now->name,0,NULL);										//Draw name of element menu
 8001cd0:	69bb      	ldr	r3, [r7, #24]
 8001cd2:	68db      	ldr	r3, [r3, #12]
 8001cd4:	2200      	movs	r2, #0
 8001cd6:	2100      	movs	r1, #0
 8001cd8:	4618      	mov	r0, r3
 8001cda:	f7ff fb6b 	bl	80013b4 <Menu_Center_String_Drow>
			Menu_List_Element_Vector_it(now->Menu_List_Element_Vector);						//Transceive control to Menu_List_Element_Vector menu
 8001cde:	69bb      	ldr	r3, [r7, #24]
 8001ce0:	685b      	ldr	r3, [r3, #4]
 8001ce2:	4618      	mov	r0, r3
 8001ce4:	f7ff fd4a 	bl	800177c <Menu_List_Element_Vector_it>
																							//Area after resceive control start

			Soldering_Station_Write_Struct(&Soldering_Iron, &Soldering_Heat_Gun, &Soldering_Separator);
 8001ce8:	4a37      	ldr	r2, [pc, #220]	; (8001dc8 <Menu_List_Vector_it+0x25c>)
 8001cea:	4938      	ldr	r1, [pc, #224]	; (8001dcc <Menu_List_Vector_it+0x260>)
 8001cec:	4838      	ldr	r0, [pc, #224]	; (8001dd0 <Menu_List_Vector_it+0x264>)
 8001cee:	f001 fc31 	bl	8003554 <Soldering_Station_Write_Struct>

			Menu_Center_String_Drow("MENU",0,NULL);
 8001cf2:	2200      	movs	r2, #0
 8001cf4:	2100      	movs	r1, #0
 8001cf6:	4830      	ldr	r0, [pc, #192]	; (8001db8 <Menu_List_Vector_it+0x24c>)
 8001cf8:	f7ff fb5c 	bl	80013b4 <Menu_Center_String_Drow>
			Menu_List_Vector_Drow(self, (uint8_t)(Menu_Count/DROW_LIMIT)*DROW_LIMIT, DROW_LIMIT,1, &mas[0]);
 8001cfc:	69fb      	ldr	r3, [r7, #28]
 8001cfe:	4a2f      	ldr	r2, [pc, #188]	; (8001dbc <Menu_List_Vector_it+0x250>)
 8001d00:	fb82 1203 	smull	r1, r2, r2, r3
 8001d04:	441a      	add	r2, r3
 8001d06:	1092      	asrs	r2, r2, #2
 8001d08:	17db      	asrs	r3, r3, #31
 8001d0a:	1ad3      	subs	r3, r2, r3
 8001d0c:	b2db      	uxtb	r3, r3
 8001d0e:	461a      	mov	r2, r3
 8001d10:	00d2      	lsls	r2, r2, #3
 8001d12:	1ad3      	subs	r3, r2, r3
 8001d14:	b2d9      	uxtb	r1, r3
 8001d16:	f107 0308 	add.w	r3, r7, #8
 8001d1a:	9300      	str	r3, [sp, #0]
 8001d1c:	2301      	movs	r3, #1
 8001d1e:	2207      	movs	r2, #7
 8001d20:	6878      	ldr	r0, [r7, #4]
 8001d22:	f7ff fe5d 	bl	80019e0 <Menu_List_Vector_Drow>
			OLED_Set_Menu_List_Cursor(&OLED1, mas[(Menu_Count% DROW_LIMIT)*2+1], Menu_Count% DROW_LIMIT+1,mas[(Menu_Count% DROW_LIMIT)*2],1);
 8001d26:	69fa      	ldr	r2, [r7, #28]
 8001d28:	4b24      	ldr	r3, [pc, #144]	; (8001dbc <Menu_List_Vector_it+0x250>)
 8001d2a:	fb83 1302 	smull	r1, r3, r3, r2
 8001d2e:	4413      	add	r3, r2
 8001d30:	1099      	asrs	r1, r3, #2
 8001d32:	17d3      	asrs	r3, r2, #31
 8001d34:	1ac9      	subs	r1, r1, r3
 8001d36:	460b      	mov	r3, r1
 8001d38:	00db      	lsls	r3, r3, #3
 8001d3a:	1a5b      	subs	r3, r3, r1
 8001d3c:	1ad1      	subs	r1, r2, r3
 8001d3e:	004b      	lsls	r3, r1, #1
 8001d40:	3301      	adds	r3, #1
 8001d42:	3320      	adds	r3, #32
 8001d44:	443b      	add	r3, r7
 8001d46:	f813 0c18 	ldrb.w	r0, [r3, #-24]
 8001d4a:	69fa      	ldr	r2, [r7, #28]
 8001d4c:	4b1b      	ldr	r3, [pc, #108]	; (8001dbc <Menu_List_Vector_it+0x250>)
 8001d4e:	fb83 1302 	smull	r1, r3, r3, r2
 8001d52:	4413      	add	r3, r2
 8001d54:	1099      	asrs	r1, r3, #2
 8001d56:	17d3      	asrs	r3, r2, #31
 8001d58:	1ac9      	subs	r1, r1, r3
 8001d5a:	460b      	mov	r3, r1
 8001d5c:	00db      	lsls	r3, r3, #3
 8001d5e:	1a5b      	subs	r3, r3, r1
 8001d60:	1ad1      	subs	r1, r2, r3
 8001d62:	b2cb      	uxtb	r3, r1
 8001d64:	3301      	adds	r3, #1
 8001d66:	b2dc      	uxtb	r4, r3
 8001d68:	69fa      	ldr	r2, [r7, #28]
 8001d6a:	4b14      	ldr	r3, [pc, #80]	; (8001dbc <Menu_List_Vector_it+0x250>)
 8001d6c:	fb83 1302 	smull	r1, r3, r3, r2
 8001d70:	4413      	add	r3, r2
 8001d72:	1099      	asrs	r1, r3, #2
 8001d74:	17d3      	asrs	r3, r2, #31
 8001d76:	1ac9      	subs	r1, r1, r3
 8001d78:	460b      	mov	r3, r1
 8001d7a:	00db      	lsls	r3, r3, #3
 8001d7c:	1a5b      	subs	r3, r3, r1
 8001d7e:	1ad1      	subs	r1, r2, r3
 8001d80:	004b      	lsls	r3, r1, #1
 8001d82:	3320      	adds	r3, #32
 8001d84:	443b      	add	r3, r7
 8001d86:	f813 3c18 	ldrb.w	r3, [r3, #-24]
 8001d8a:	2201      	movs	r2, #1
 8001d8c:	9200      	str	r2, [sp, #0]
 8001d8e:	4622      	mov	r2, r4
 8001d90:	4601      	mov	r1, r0
 8001d92:	480b      	ldr	r0, [pc, #44]	; (8001dc0 <Menu_List_Vector_it+0x254>)
 8001d94:	f7ff fe76 	bl	8001a84 <OLED_Set_Menu_List_Cursor>
			Incoder_Button_State_P2=Incoder_Button_NotPressed;
 8001d98:	4b06      	ldr	r3, [pc, #24]	; (8001db4 <Menu_List_Vector_it+0x248>)
 8001d9a:	2200      	movs	r2, #0
 8001d9c:	701a      	strb	r2, [r3, #0]
	while(Incoder_Button_State_P2!=Incoder_Button_long){
 8001d9e:	4b05      	ldr	r3, [pc, #20]	; (8001db4 <Menu_List_Vector_it+0x248>)
 8001da0:	781b      	ldrb	r3, [r3, #0]
 8001da2:	2b03      	cmp	r3, #3
 8001da4:	f47f af22 	bne.w	8001bec <Menu_List_Vector_it+0x80>
																							//Area after resceive control end
		}
	}
}
 8001da8:	bf00      	nop
 8001daa:	bf00      	nop
 8001dac:	3724      	adds	r7, #36	; 0x24
 8001dae:	46bd      	mov	sp, r7
 8001db0:	bd90      	pop	{r4, r7, pc}
 8001db2:	bf00      	nop
 8001db4:	200004fc 	.word	0x200004fc
 8001db8:	08008ed4 	.word	0x08008ed4
 8001dbc:	92492493 	.word	0x92492493
 8001dc0:	20000774 	.word	0x20000774
 8001dc4:	200004f4 	.word	0x200004f4
 8001dc8:	20000950 	.word	0x20000950
 8001dcc:	200008c4 	.word	0x200008c4
 8001dd0:	20000828 	.word	0x20000828

08001dd4 <Menu_List_Create>:
//--------------------------------------------------------------------------------------------------------------------------------------------------------
void Menu_List_Create(struct Menu_List_Vector *List_Vector,struct Menu_List_Element_Vector *List_Element_Vector, char *str){
 8001dd4:	b580      	push	{r7, lr}
 8001dd6:	b088      	sub	sp, #32
 8001dd8:	af00      	add	r7, sp, #0
 8001dda:	60f8      	str	r0, [r7, #12]
 8001ddc:	60b9      	str	r1, [r7, #8]
 8001dde:	607a      	str	r2, [r7, #4]
	char *st= malloc((sizeof(char)*(strlen(str)+1)));
 8001de0:	6878      	ldr	r0, [r7, #4]
 8001de2:	f7fe f9b3 	bl	800014c <strlen>
 8001de6:	4603      	mov	r3, r0
 8001de8:	3301      	adds	r3, #1
 8001dea:	4618      	mov	r0, r3
 8001dec:	f006 ff54 	bl	8008c98 <malloc>
 8001df0:	4603      	mov	r3, r0
 8001df2:	61bb      	str	r3, [r7, #24]
	strcpy(st,str);
 8001df4:	6879      	ldr	r1, [r7, #4]
 8001df6:	69b8      	ldr	r0, [r7, #24]
 8001df8:	f007 f846 	bl	8008e88 <strcpy>
	if(List_Vector->Menu_List_Element_Vector==NULL){
 8001dfc:	68fb      	ldr	r3, [r7, #12]
 8001dfe:	685b      	ldr	r3, [r3, #4]
 8001e00:	2b00      	cmp	r3, #0
 8001e02:	d109      	bne.n	8001e18 <Menu_List_Create+0x44>
		List_Vector->ID=0;
 8001e04:	68fb      	ldr	r3, [r7, #12]
 8001e06:	2200      	movs	r2, #0
 8001e08:	721a      	strb	r2, [r3, #8]
		List_Vector->name=st;
 8001e0a:	68fb      	ldr	r3, [r7, #12]
 8001e0c:	69ba      	ldr	r2, [r7, #24]
 8001e0e:	60da      	str	r2, [r3, #12]
		List_Vector->Menu_List_Element_Vector=List_Element_Vector;
 8001e10:	68fb      	ldr	r3, [r7, #12]
 8001e12:	68ba      	ldr	r2, [r7, #8]
 8001e14:	605a      	str	r2, [r3, #4]
			NEW_Element->ID++;
		}
		NEW_Element->ID++;
		now->next=NEW_Element;
	}
}
 8001e16:	e02a      	b.n	8001e6e <Menu_List_Create+0x9a>
		struct Menu_List_Vector *now=List_Vector;
 8001e18:	68fb      	ldr	r3, [r7, #12]
 8001e1a:	61fb      	str	r3, [r7, #28]
		struct Menu_List_Vector *NEW_Element=malloc(sizeof(struct Menu_List_Vector));
 8001e1c:	2010      	movs	r0, #16
 8001e1e:	f006 ff3b 	bl	8008c98 <malloc>
 8001e22:	4603      	mov	r3, r0
 8001e24:	617b      	str	r3, [r7, #20]
		NEW_Element->ID=List_Vector->ID;
 8001e26:	68fb      	ldr	r3, [r7, #12]
 8001e28:	7a1a      	ldrb	r2, [r3, #8]
 8001e2a:	697b      	ldr	r3, [r7, #20]
 8001e2c:	721a      	strb	r2, [r3, #8]
		NEW_Element->next=NULL;
 8001e2e:	697b      	ldr	r3, [r7, #20]
 8001e30:	2200      	movs	r2, #0
 8001e32:	601a      	str	r2, [r3, #0]
		NEW_Element->name=st;
 8001e34:	697b      	ldr	r3, [r7, #20]
 8001e36:	69ba      	ldr	r2, [r7, #24]
 8001e38:	60da      	str	r2, [r3, #12]
		NEW_Element->Menu_List_Element_Vector=List_Element_Vector;
 8001e3a:	697b      	ldr	r3, [r7, #20]
 8001e3c:	68ba      	ldr	r2, [r7, #8]
 8001e3e:	605a      	str	r2, [r3, #4]
		while(now->next!=NULL){
 8001e40:	e008      	b.n	8001e54 <Menu_List_Create+0x80>
			now=now->next;
 8001e42:	69fb      	ldr	r3, [r7, #28]
 8001e44:	681b      	ldr	r3, [r3, #0]
 8001e46:	61fb      	str	r3, [r7, #28]
			NEW_Element->ID++;
 8001e48:	697b      	ldr	r3, [r7, #20]
 8001e4a:	7a1b      	ldrb	r3, [r3, #8]
 8001e4c:	3301      	adds	r3, #1
 8001e4e:	b2da      	uxtb	r2, r3
 8001e50:	697b      	ldr	r3, [r7, #20]
 8001e52:	721a      	strb	r2, [r3, #8]
		while(now->next!=NULL){
 8001e54:	69fb      	ldr	r3, [r7, #28]
 8001e56:	681b      	ldr	r3, [r3, #0]
 8001e58:	2b00      	cmp	r3, #0
 8001e5a:	d1f2      	bne.n	8001e42 <Menu_List_Create+0x6e>
		NEW_Element->ID++;
 8001e5c:	697b      	ldr	r3, [r7, #20]
 8001e5e:	7a1b      	ldrb	r3, [r3, #8]
 8001e60:	3301      	adds	r3, #1
 8001e62:	b2da      	uxtb	r2, r3
 8001e64:	697b      	ldr	r3, [r7, #20]
 8001e66:	721a      	strb	r2, [r3, #8]
		now->next=NEW_Element;
 8001e68:	69fb      	ldr	r3, [r7, #28]
 8001e6a:	697a      	ldr	r2, [r7, #20]
 8001e6c:	601a      	str	r2, [r3, #0]
}
 8001e6e:	bf00      	nop
 8001e70:	3720      	adds	r7, #32
 8001e72:	46bd      	mov	sp, r7
 8001e74:	bd80      	pop	{r7, pc}
	...

08001e78 <start_Page_Drow>:
//--------------------------------------------------------------------------------------------------------------------------------------------------------
void start_Page_Drow(){
 8001e78:	b580      	push	{r7, lr}
 8001e7a:	af00      	add	r7, sp, #0
	OLED_Clear_Line(&OLED1,0);
 8001e7c:	2100      	movs	r1, #0
 8001e7e:	4834      	ldr	r0, [pc, #208]	; (8001f50 <start_Page_Drow+0xd8>)
 8001e80:	f000 fbd0 	bl	8002624 <OLED_Clear_Line>
	Menu_String_Drow("SoldIron", 1, 0);
 8001e84:	2200      	movs	r2, #0
 8001e86:	2101      	movs	r1, #1
 8001e88:	4832      	ldr	r0, [pc, #200]	; (8001f54 <start_Page_Drow+0xdc>)
 8001e8a:	f7ff fa59 	bl	8001340 <Menu_String_Drow>
	OLED_Clear_Line(&OLED1,1);
 8001e8e:	2101      	movs	r1, #1
 8001e90:	482f      	ldr	r0, [pc, #188]	; (8001f50 <start_Page_Drow+0xd8>)
 8001e92:	f000 fbc7 	bl	8002624 <OLED_Clear_Line>
	Menu_String_Drow("State: ", 0, 1);
 8001e96:	2201      	movs	r2, #1
 8001e98:	2100      	movs	r1, #0
 8001e9a:	482f      	ldr	r0, [pc, #188]	; (8001f58 <start_Page_Drow+0xe0>)
 8001e9c:	f7ff fa50 	bl	8001340 <Menu_String_Drow>
	OLED_Clear_Line(&OLED1,2);
 8001ea0:	2102      	movs	r1, #2
 8001ea2:	482b      	ldr	r0, [pc, #172]	; (8001f50 <start_Page_Drow+0xd8>)
 8001ea4:	f000 fbbe 	bl	8002624 <OLED_Clear_Line>
	Menu_String_Drow("TSetC:", 0, 2);
 8001ea8:	2202      	movs	r2, #2
 8001eaa:	2100      	movs	r1, #0
 8001eac:	482b      	ldr	r0, [pc, #172]	; (8001f5c <start_Page_Drow+0xe4>)
 8001eae:	f7ff fa47 	bl	8001340 <Menu_String_Drow>
	OLED_Clear_Line(&OLED1,3);
 8001eb2:	2103      	movs	r1, #3
 8001eb4:	4826      	ldr	r0, [pc, #152]	; (8001f50 <start_Page_Drow+0xd8>)
 8001eb6:	f000 fbb5 	bl	8002624 <OLED_Clear_Line>
	Menu_String_Drow("TNowC:", 0, 3);
 8001eba:	2203      	movs	r2, #3
 8001ebc:	2100      	movs	r1, #0
 8001ebe:	4828      	ldr	r0, [pc, #160]	; (8001f60 <start_Page_Drow+0xe8>)
 8001ec0:	f7ff fa3e 	bl	8001340 <Menu_String_Drow>
	OLED_Clear_Line(&OLED1,4);
 8001ec4:	2104      	movs	r1, #4
 8001ec6:	4822      	ldr	r0, [pc, #136]	; (8001f50 <start_Page_Drow+0xd8>)
 8001ec8:	f000 fbac 	bl	8002624 <OLED_Clear_Line>
	Menu_String_Drow("AdPow:", 0, 4);
 8001ecc:	2204      	movs	r2, #4
 8001ece:	2100      	movs	r1, #0
 8001ed0:	4824      	ldr	r0, [pc, #144]	; (8001f64 <start_Page_Drow+0xec>)
 8001ed2:	f7ff fa35 	bl	8001340 <Menu_String_Drow>
	OLED_Clear_Line(&OLED1,5);
 8001ed6:	2105      	movs	r1, #5
 8001ed8:	481d      	ldr	r0, [pc, #116]	; (8001f50 <start_Page_Drow+0xd8>)
 8001eda:	f000 fba3 	bl	8002624 <OLED_Clear_Line>


	Menu_String_Drow("Freq:", 0, 5);
 8001ede:	2205      	movs	r2, #5
 8001ee0:	2100      	movs	r1, #0
 8001ee2:	4821      	ldr	r0, [pc, #132]	; (8001f68 <start_Page_Drow+0xf0>)
 8001ee4:	f7ff fa2c 	bl	8001340 <Menu_String_Drow>
	OLED_Clear_Line(&OLED1,6);
 8001ee8:	2106      	movs	r1, #6
 8001eea:	4819      	ldr	r0, [pc, #100]	; (8001f50 <start_Page_Drow+0xd8>)
 8001eec:	f000 fb9a 	bl	8002624 <OLED_Clear_Line>
	Menu_String_Drow("Count:", 0, 6);
 8001ef0:	2206      	movs	r2, #6
 8001ef2:	2100      	movs	r1, #0
 8001ef4:	481d      	ldr	r0, [pc, #116]	; (8001f6c <start_Page_Drow+0xf4>)
 8001ef6:	f7ff fa23 	bl	8001340 <Menu_String_Drow>


	Menu_String_Drow("SoldFAN", 12, 0);
 8001efa:	2200      	movs	r2, #0
 8001efc:	210c      	movs	r1, #12
 8001efe:	481c      	ldr	r0, [pc, #112]	; (8001f70 <start_Page_Drow+0xf8>)
 8001f00:	f7ff fa1e 	bl	8001340 <Menu_String_Drow>
	Menu_String_Drow("State: ", 11, 1);
 8001f04:	2201      	movs	r2, #1
 8001f06:	210b      	movs	r1, #11
 8001f08:	4813      	ldr	r0, [pc, #76]	; (8001f58 <start_Page_Drow+0xe0>)
 8001f0a:	f7ff fa19 	bl	8001340 <Menu_String_Drow>
	Menu_String_Drow("TSetC:", 11, 2);
 8001f0e:	2202      	movs	r2, #2
 8001f10:	210b      	movs	r1, #11
 8001f12:	4812      	ldr	r0, [pc, #72]	; (8001f5c <start_Page_Drow+0xe4>)
 8001f14:	f7ff fa14 	bl	8001340 <Menu_String_Drow>
	Menu_String_Drow("TNowC:", 11, 3);
 8001f18:	2203      	movs	r2, #3
 8001f1a:	210b      	movs	r1, #11
 8001f1c:	4810      	ldr	r0, [pc, #64]	; (8001f60 <start_Page_Drow+0xe8>)
 8001f1e:	f7ff fa0f 	bl	8001340 <Menu_String_Drow>

	Menu_String_Drow("Separator", 12, 4);
 8001f22:	2204      	movs	r2, #4
 8001f24:	210c      	movs	r1, #12
 8001f26:	4813      	ldr	r0, [pc, #76]	; (8001f74 <start_Page_Drow+0xfc>)
 8001f28:	f7ff fa0a 	bl	8001340 <Menu_String_Drow>
	Menu_String_Drow("State: ", 11, 5);
 8001f2c:	2205      	movs	r2, #5
 8001f2e:	210b      	movs	r1, #11
 8001f30:	4809      	ldr	r0, [pc, #36]	; (8001f58 <start_Page_Drow+0xe0>)
 8001f32:	f7ff fa05 	bl	8001340 <Menu_String_Drow>
	Menu_String_Drow("TSetC:", 11, 6);
 8001f36:	2206      	movs	r2, #6
 8001f38:	210b      	movs	r1, #11
 8001f3a:	4808      	ldr	r0, [pc, #32]	; (8001f5c <start_Page_Drow+0xe4>)
 8001f3c:	f7ff fa00 	bl	8001340 <Menu_String_Drow>
	Menu_String_Drow("TNowC:", 11, 7);
 8001f40:	2207      	movs	r2, #7
 8001f42:	210b      	movs	r1, #11
 8001f44:	4806      	ldr	r0, [pc, #24]	; (8001f60 <start_Page_Drow+0xe8>)
 8001f46:	f7ff f9fb 	bl	8001340 <Menu_String_Drow>

}
 8001f4a:	bf00      	nop
 8001f4c:	bd80      	pop	{r7, pc}
 8001f4e:	bf00      	nop
 8001f50:	20000774 	.word	0x20000774
 8001f54:	08008edc 	.word	0x08008edc
 8001f58:	08008ee8 	.word	0x08008ee8
 8001f5c:	08008ef0 	.word	0x08008ef0
 8001f60:	08008ef8 	.word	0x08008ef8
 8001f64:	08008f00 	.word	0x08008f00
 8001f68:	08008f08 	.word	0x08008f08
 8001f6c:	08008f10 	.word	0x08008f10
 8001f70:	08008f18 	.word	0x08008f18
 8001f74:	08008f20 	.word	0x08008f20

08001f78 <Button_Handler>:
//---------------------------------------------------------------------------------Button_Handler
void Button_Handler(struct Button* self){
 8001f78:	b580      	push	{r7, lr}
 8001f7a:	b082      	sub	sp, #8
 8001f7c:	af00      	add	r7, sp, #0
 8001f7e:	6078      	str	r0, [r7, #4]
	switch(self->ID){
 8001f80:	687b      	ldr	r3, [r7, #4]
 8001f82:	781b      	ldrb	r3, [r3, #0]
 8001f84:	2b07      	cmp	r3, #7
 8001f86:	f200 808f 	bhi.w	80020a8 <Button_Handler+0x130>
 8001f8a:	a201      	add	r2, pc, #4	; (adr r2, 8001f90 <Button_Handler+0x18>)
 8001f8c:	f852 f023 	ldr.w	pc, [r2, r3, lsl #2]
 8001f90:	08001fb1 	.word	0x08001fb1
 8001f94:	08001fd3 	.word	0x08001fd3
 8001f98:	08001fe5 	.word	0x08001fe5
 8001f9c:	08001ff7 	.word	0x08001ff7
 8001fa0:	08002019 	.word	0x08002019
 8001fa4:	0800202b 	.word	0x0800202b
 8001fa8:	0800203d 	.word	0x0800203d
 8001fac:	08002055 	.word	0x08002055
		case Button_ID_E2B1:
			if((self->State==GPIO_PIN_RESET)&&(Soldering_Iron.State==1)){
 8001fb0:	687b      	ldr	r3, [r7, #4]
 8001fb2:	79db      	ldrb	r3, [r3, #7]
 8001fb4:	2b00      	cmp	r3, #0
 8001fb6:	d16a      	bne.n	800208e <Button_Handler+0x116>
 8001fb8:	4b3d      	ldr	r3, [pc, #244]	; (80020b0 <Button_Handler+0x138>)
 8001fba:	f893 3092 	ldrb.w	r3, [r3, #146]	; 0x92
 8001fbe:	2b01      	cmp	r3, #1
 8001fc0:	d165      	bne.n	800208e <Button_Handler+0x116>
				Solder_Iron_Sleep_Time_Resset(&Soldering_Iron);
 8001fc2:	483b      	ldr	r0, [pc, #236]	; (80020b0 <Button_Handler+0x138>)
 8001fc4:	f000 ff06 	bl	8002dd4 <Solder_Iron_Sleep_Time_Resset>
				Solder_Iron_Set_Temperature(&Soldering_Iron,PRESSET2);
 8001fc8:	2102      	movs	r1, #2
 8001fca:	4839      	ldr	r0, [pc, #228]	; (80020b0 <Button_Handler+0x138>)
 8001fcc:	f000 ffaf 	bl	8002f2e <Solder_Iron_Set_Temperature>
			}
			break;
 8001fd0:	e05d      	b.n	800208e <Button_Handler+0x116>
		case Button_ID_E2B2:
			if(self->State==GPIO_PIN_RESET){
 8001fd2:	687b      	ldr	r3, [r7, #4]
 8001fd4:	79db      	ldrb	r3, [r3, #7]
 8001fd6:	2b00      	cmp	r3, #0
 8001fd8:	d15b      	bne.n	8002092 <Button_Handler+0x11a>
				Soldering_Heat_Gun_Set_Temperature(&Soldering_Heat_Gun,PRESSET2);
 8001fda:	2102      	movs	r1, #2
 8001fdc:	4835      	ldr	r0, [pc, #212]	; (80020b4 <Button_Handler+0x13c>)
 8001fde:	f001 f8e0 	bl	80031a2 <Soldering_Heat_Gun_Set_Temperature>
			}

			break;
 8001fe2:	e056      	b.n	8002092 <Button_Handler+0x11a>
		case Button_ID_E2B3:
			if(self->State==GPIO_PIN_RESET)
 8001fe4:	687b      	ldr	r3, [r7, #4]
 8001fe6:	79db      	ldrb	r3, [r3, #7]
 8001fe8:	2b00      	cmp	r3, #0
 8001fea:	d154      	bne.n	8002096 <Button_Handler+0x11e>
				Soldering_Separator_Set_Temperature(&Soldering_Separator, PRESSET2);
 8001fec:	2102      	movs	r1, #2
 8001fee:	4832      	ldr	r0, [pc, #200]	; (80020b8 <Button_Handler+0x140>)
 8001ff0:	f001 f9e0 	bl	80033b4 <Soldering_Separator_Set_Temperature>

			break;
 8001ff4:	e04f      	b.n	8002096 <Button_Handler+0x11e>
		case Button_ID_E1B1:
			if((self->State==GPIO_PIN_RESET)&&(Soldering_Iron.State==1)){
 8001ff6:	687b      	ldr	r3, [r7, #4]
 8001ff8:	79db      	ldrb	r3, [r3, #7]
 8001ffa:	2b00      	cmp	r3, #0
 8001ffc:	d14d      	bne.n	800209a <Button_Handler+0x122>
 8001ffe:	4b2c      	ldr	r3, [pc, #176]	; (80020b0 <Button_Handler+0x138>)
 8002000:	f893 3092 	ldrb.w	r3, [r3, #146]	; 0x92
 8002004:	2b01      	cmp	r3, #1
 8002006:	d148      	bne.n	800209a <Button_Handler+0x122>
				Solder_Iron_Sleep_Time_Resset(&Soldering_Iron);
 8002008:	4829      	ldr	r0, [pc, #164]	; (80020b0 <Button_Handler+0x138>)
 800200a:	f000 fee3 	bl	8002dd4 <Solder_Iron_Sleep_Time_Resset>
				Solder_Iron_Set_Temperature(&Soldering_Iron, PRESSET1);
 800200e:	2101      	movs	r1, #1
 8002010:	4827      	ldr	r0, [pc, #156]	; (80020b0 <Button_Handler+0x138>)
 8002012:	f000 ff8c 	bl	8002f2e <Solder_Iron_Set_Temperature>
			}
			break;
 8002016:	e040      	b.n	800209a <Button_Handler+0x122>
		case Button_ID_E1B2:
			if(self->State==GPIO_PIN_RESET){
 8002018:	687b      	ldr	r3, [r7, #4]
 800201a:	79db      	ldrb	r3, [r3, #7]
 800201c:	2b00      	cmp	r3, #0
 800201e:	d13e      	bne.n	800209e <Button_Handler+0x126>
				Soldering_Heat_Gun_Set_Temperature(&Soldering_Heat_Gun, PRESSET1);
 8002020:	2101      	movs	r1, #1
 8002022:	4824      	ldr	r0, [pc, #144]	; (80020b4 <Button_Handler+0x13c>)
 8002024:	f001 f8bd 	bl	80031a2 <Soldering_Heat_Gun_Set_Temperature>
			}

			break;
 8002028:	e039      	b.n	800209e <Button_Handler+0x126>
		case Button_ID_E1B3:
			if(self->State==GPIO_PIN_RESET)
 800202a:	687b      	ldr	r3, [r7, #4]
 800202c:	79db      	ldrb	r3, [r3, #7]
 800202e:	2b00      	cmp	r3, #0
 8002030:	d137      	bne.n	80020a2 <Button_Handler+0x12a>
				Soldering_Separator_Set_Temperature(&Soldering_Separator, PRESSET1);
 8002032:	2101      	movs	r1, #1
 8002034:	4820      	ldr	r0, [pc, #128]	; (80020b8 <Button_Handler+0x140>)
 8002036:	f001 f9bd 	bl	80033b4 <Soldering_Separator_Set_Temperature>
			break;
 800203a:	e032      	b.n	80020a2 <Button_Handler+0x12a>
		case Button_Gerkon_ID:
			if(self->State==GPIO_PIN_RESET)
 800203c:	687b      	ldr	r3, [r7, #4]
 800203e:	79db      	ldrb	r3, [r3, #7]
 8002040:	2b00      	cmp	r3, #0
 8002042:	d103      	bne.n	800204c <Button_Handler+0xd4>
				Soldering_Heat_Gun_OFF(&Soldering_Heat_Gun);
 8002044:	481b      	ldr	r0, [pc, #108]	; (80020b4 <Button_Handler+0x13c>)
 8002046:	f001 f884 	bl	8003152 <Soldering_Heat_Gun_OFF>
			else
				Soldering_Heat_Gun_ON(&Soldering_Heat_Gun);

			break;
 800204a:	e02d      	b.n	80020a8 <Button_Handler+0x130>
				Soldering_Heat_Gun_ON(&Soldering_Heat_Gun);
 800204c:	4819      	ldr	r0, [pc, #100]	; (80020b4 <Button_Handler+0x13c>)
 800204e:	f001 f850 	bl	80030f2 <Soldering_Heat_Gun_ON>
			break;
 8002052:	e029      	b.n	80020a8 <Button_Handler+0x130>
		case Full_Power_Button_ID:
			if(Soldering_Iron.State==1){
 8002054:	4b16      	ldr	r3, [pc, #88]	; (80020b0 <Button_Handler+0x138>)
 8002056:	f893 3092 	ldrb.w	r3, [r3, #146]	; 0x92
 800205a:	2b01      	cmp	r3, #1
 800205c:	d123      	bne.n	80020a6 <Button_Handler+0x12e>
				if(self->State==GPIO_PIN_RESET){
 800205e:	687b      	ldr	r3, [r7, #4]
 8002060:	79db      	ldrb	r3, [r3, #7]
 8002062:	2b00      	cmp	r3, #0
 8002064:	d104      	bne.n	8002070 <Button_Handler+0xf8>
					Soldering_Iron.Full_Power_State=1;
 8002066:	4b12      	ldr	r3, [pc, #72]	; (80020b0 <Button_Handler+0x138>)
 8002068:	2201      	movs	r2, #1
 800206a:	f883 2082 	strb.w	r2, [r3, #130]	; 0x82
 800206e:	e003      	b.n	8002078 <Button_Handler+0x100>
				}else{
					Soldering_Iron.Full_Power_State=0;
 8002070:	4b0f      	ldr	r3, [pc, #60]	; (80020b0 <Button_Handler+0x138>)
 8002072:	2200      	movs	r2, #0
 8002074:	f883 2082 	strb.w	r2, [r3, #130]	; 0x82
				}
				Solder_Iron_Sleep_Time_Resset(&Soldering_Iron);
 8002078:	480d      	ldr	r0, [pc, #52]	; (80020b0 <Button_Handler+0x138>)
 800207a:	f000 feab 	bl	8002dd4 <Solder_Iron_Sleep_Time_Resset>
				Solder_Iron_Set_Temperature(&Soldering_Iron, Soldering_Iron.MODE);
 800207e:	4b0c      	ldr	r3, [pc, #48]	; (80020b0 <Button_Handler+0x138>)
 8002080:	f893 3044 	ldrb.w	r3, [r3, #68]	; 0x44
 8002084:	4619      	mov	r1, r3
 8002086:	480a      	ldr	r0, [pc, #40]	; (80020b0 <Button_Handler+0x138>)
 8002088:	f000 ff51 	bl	8002f2e <Solder_Iron_Set_Temperature>
			}
			break;
 800208c:	e00b      	b.n	80020a6 <Button_Handler+0x12e>
			break;
 800208e:	bf00      	nop
 8002090:	e00a      	b.n	80020a8 <Button_Handler+0x130>
			break;
 8002092:	bf00      	nop
 8002094:	e008      	b.n	80020a8 <Button_Handler+0x130>
			break;
 8002096:	bf00      	nop
 8002098:	e006      	b.n	80020a8 <Button_Handler+0x130>
			break;
 800209a:	bf00      	nop
 800209c:	e004      	b.n	80020a8 <Button_Handler+0x130>
			break;
 800209e:	bf00      	nop
 80020a0:	e002      	b.n	80020a8 <Button_Handler+0x130>
			break;
 80020a2:	bf00      	nop
 80020a4:	e000      	b.n	80020a8 <Button_Handler+0x130>
			break;
 80020a6:	bf00      	nop
	}
}
 80020a8:	bf00      	nop
 80020aa:	3708      	adds	r7, #8
 80020ac:	46bd      	mov	sp, r7
 80020ae:	bd80      	pop	{r7, pc}
 80020b0:	20000828 	.word	0x20000828
 80020b4:	200008c4 	.word	0x200008c4
 80020b8:	20000950 	.word	0x20000950

080020bc <Menu_it>:

//--------------------------------------------------------------------------------------------------------------------------------------------------------
void Menu_it(struct Menu_List_Vector *self){
 80020bc:	b580      	push	{r7, lr}
 80020be:	b084      	sub	sp, #16
 80020c0:	af02      	add	r7, sp, #8
 80020c2:	6078      	str	r0, [r7, #4]

	Incoder_Button_State_P2=Incoder_Button_NotPressed;
 80020c4:	4b9d      	ldr	r3, [pc, #628]	; (800233c <Menu_it+0x280>)
 80020c6:	2200      	movs	r2, #0
 80020c8:	701a      	strb	r2, [r3, #0]
	Interface_Contoll=Interface_Contoll_Soldering_Heat_Gun;
 80020ca:	4b9d      	ldr	r3, [pc, #628]	; (8002340 <Menu_it+0x284>)
 80020cc:	2200      	movs	r2, #0
 80020ce:	701a      	strb	r2, [r3, #0]
	start_Page_Drow();
 80020d0:	f7ff fed2 	bl	8001e78 <start_Page_Drow>

	while(1){

		if(Incoder_Button_State_P2==Incoder_Button_long){
 80020d4:	4b99      	ldr	r3, [pc, #612]	; (800233c <Menu_it+0x280>)
 80020d6:	781b      	ldrb	r3, [r3, #0]
 80020d8:	2b03      	cmp	r3, #3
 80020da:	d113      	bne.n	8002104 <Menu_it+0x48>
			Incoder_P2_Count=0;
 80020dc:	4b99      	ldr	r3, [pc, #612]	; (8002344 <Menu_it+0x288>)
 80020de:	2200      	movs	r2, #0
 80020e0:	601a      	str	r2, [r3, #0]

			Solder_Iron_OFF(&Soldering_Iron);
 80020e2:	4899      	ldr	r0, [pc, #612]	; (8002348 <Menu_it+0x28c>)
 80020e4:	f000 ff11 	bl	8002f0a <Solder_Iron_OFF>
			Soldering_Heat_Gun_OFF(&Soldering_Heat_Gun);
 80020e8:	4898      	ldr	r0, [pc, #608]	; (800234c <Menu_it+0x290>)
 80020ea:	f001 f832 	bl	8003152 <Soldering_Heat_Gun_OFF>
			Soldering_Separator_OFF(&Soldering_Separator);
 80020ee:	4898      	ldr	r0, [pc, #608]	; (8002350 <Menu_it+0x294>)
 80020f0:	f001 f94b 	bl	800338a <Soldering_Separator_OFF>


			Menu_List_Vector_it(self);
 80020f4:	6878      	ldr	r0, [r7, #4]
 80020f6:	f7ff fd39 	bl	8001b6c <Menu_List_Vector_it>
			Incoder_Button_State_P2=Incoder_Button_NotPressed;
 80020fa:	4b90      	ldr	r3, [pc, #576]	; (800233c <Menu_it+0x280>)
 80020fc:	2200      	movs	r2, #0
 80020fe:	701a      	strb	r2, [r3, #0]
			start_Page_Drow();
 8002100:	f7ff feba 	bl	8001e78 <start_Page_Drow>
		}
		if(Incoder_Button_State_P1==Incoder_Button_long){
 8002104:	4b93      	ldr	r3, [pc, #588]	; (8002354 <Menu_it+0x298>)
 8002106:	781b      	ldrb	r3, [r3, #0]
 8002108:	2b03      	cmp	r3, #3
 800210a:	d10d      	bne.n	8002128 <Menu_it+0x6c>
			Incoder_Button_State_P1=Incoder_Button_NotPressed;
 800210c:	4b91      	ldr	r3, [pc, #580]	; (8002354 <Menu_it+0x298>)
 800210e:	2200      	movs	r2, #0
 8002110:	701a      	strb	r2, [r3, #0]
			if(Interface_Contoll==Interface_Contoll_Soldering_Heat_Gun)
 8002112:	4b8b      	ldr	r3, [pc, #556]	; (8002340 <Menu_it+0x284>)
 8002114:	781b      	ldrb	r3, [r3, #0]
 8002116:	2b00      	cmp	r3, #0
 8002118:	d103      	bne.n	8002122 <Menu_it+0x66>
				Interface_Contoll=Interface_Contoll_Soldering_Separator;
 800211a:	4b89      	ldr	r3, [pc, #548]	; (8002340 <Menu_it+0x284>)
 800211c:	2201      	movs	r2, #1
 800211e:	701a      	strb	r2, [r3, #0]
 8002120:	e002      	b.n	8002128 <Menu_it+0x6c>
			else
				Interface_Contoll=Interface_Contoll_Soldering_Heat_Gun;
 8002122:	4b87      	ldr	r3, [pc, #540]	; (8002340 <Menu_it+0x284>)
 8002124:	2200      	movs	r2, #0
 8002126:	701a      	strb	r2, [r3, #0]
		}

		Value_Changing(&Soldering_Iron.Temperature_Pressets.Manual, 100, UINT16, 800, MAX_ADC_Value, &Incoder_P2_Count);
 8002128:	4b86      	ldr	r3, [pc, #536]	; (8002344 <Menu_it+0x288>)
 800212a:	9301      	str	r3, [sp, #4]
 800212c:	f640 63d8 	movw	r3, #3800	; 0xed8
 8002130:	9300      	str	r3, [sp, #0]
 8002132:	f44f 7348 	mov.w	r3, #800	; 0x320
 8002136:	2202      	movs	r2, #2
 8002138:	2164      	movs	r1, #100	; 0x64
 800213a:	4887      	ldr	r0, [pc, #540]	; (8002358 <Menu_it+0x29c>)
 800213c:	f7ff fa2a 	bl	8001594 <Value_Changing>
		if(Interface_Contoll==Interface_Contoll_Soldering_Heat_Gun)
 8002140:	4b7f      	ldr	r3, [pc, #508]	; (8002340 <Menu_it+0x284>)
 8002142:	781b      	ldrb	r3, [r3, #0]
 8002144:	2b00      	cmp	r3, #0
 8002146:	d10c      	bne.n	8002162 <Menu_it+0xa6>
			Value_Changing(&Soldering_Heat_Gun.Temperature_Pressets.Manual, 100, UINT16, 400, MAX_ADC_Value, &Incoder_P1_Count);
 8002148:	4b84      	ldr	r3, [pc, #528]	; (800235c <Menu_it+0x2a0>)
 800214a:	9301      	str	r3, [sp, #4]
 800214c:	f640 63d8 	movw	r3, #3800	; 0xed8
 8002150:	9300      	str	r3, [sp, #0]
 8002152:	f44f 73c8 	mov.w	r3, #400	; 0x190
 8002156:	2202      	movs	r2, #2
 8002158:	2164      	movs	r1, #100	; 0x64
 800215a:	4881      	ldr	r0, [pc, #516]	; (8002360 <Menu_it+0x2a4>)
 800215c:	f7ff fa1a 	bl	8001594 <Value_Changing>
 8002160:	e00b      	b.n	800217a <Menu_it+0xbe>
		else
			Value_Changing(&Soldering_Separator.Temperature_Pressets.Manual, 100, UINT16, 400, MAX_ADC_Value, &Incoder_P1_Count);
 8002162:	4b7e      	ldr	r3, [pc, #504]	; (800235c <Menu_it+0x2a0>)
 8002164:	9301      	str	r3, [sp, #4]
 8002166:	f640 63d8 	movw	r3, #3800	; 0xed8
 800216a:	9300      	str	r3, [sp, #0]
 800216c:	f44f 73c8 	mov.w	r3, #400	; 0x190
 8002170:	2202      	movs	r2, #2
 8002172:	2164      	movs	r1, #100	; 0x64
 8002174:	487b      	ldr	r0, [pc, #492]	; (8002364 <Menu_it+0x2a8>)
 8002176:	f7ff fa0d 	bl	8001594 <Value_Changing>



		Menu_Parmetr_Drow(&Soldering_Iron.State, 6, 1, BOOL);
 800217a:	2303      	movs	r3, #3
 800217c:	2201      	movs	r2, #1
 800217e:	2106      	movs	r1, #6
 8002180:	4879      	ldr	r0, [pc, #484]	; (8002368 <Menu_it+0x2ac>)
 8002182:	f7fe ff43 	bl	800100c <Menu_Parmetr_Drow>
		Menu_Parmetr_Drow(&Soldering_Iron.Temperature_Set, 6, 2, UINT16);
 8002186:	2302      	movs	r3, #2
 8002188:	2202      	movs	r2, #2
 800218a:	2106      	movs	r1, #6
 800218c:	4877      	ldr	r0, [pc, #476]	; (800236c <Menu_it+0x2b0>)
 800218e:	f7fe ff3d 	bl	800100c <Menu_Parmetr_Drow>
		Menu_Parmetr_Drow(&Soldering_Iron.Temperature, 6, 3, UINT16);
 8002192:	2302      	movs	r3, #2
 8002194:	2203      	movs	r2, #3
 8002196:	2106      	movs	r1, #6
 8002198:	4875      	ldr	r0, [pc, #468]	; (8002370 <Menu_it+0x2b4>)
 800219a:	f7fe ff37 	bl	800100c <Menu_Parmetr_Drow>
		Menu_Parmetr_Drow(&Soldering_Iron.Full_Power_State, 6, 4, BOOL);
 800219e:	2303      	movs	r3, #3
 80021a0:	2204      	movs	r2, #4
 80021a2:	2106      	movs	r1, #6
 80021a4:	4873      	ldr	r0, [pc, #460]	; (8002374 <Menu_it+0x2b8>)
 80021a6:	f7fe ff31 	bl	800100c <Menu_Parmetr_Drow>
		Menu_Parmetr_Drow(&ZCD.Frequency, 6, 5, UINT8);
 80021aa:	2301      	movs	r3, #1
 80021ac:	2205      	movs	r2, #5
 80021ae:	2106      	movs	r1, #6
 80021b0:	4871      	ldr	r0, [pc, #452]	; (8002378 <Menu_it+0x2bc>)
 80021b2:	f7fe ff2b 	bl	800100c <Menu_Parmetr_Drow>
		Menu_Parmetr_Drow(&Soldering_Heat_Gun.PID.MAX_Control, 6, 6, UINT16);
 80021b6:	2302      	movs	r3, #2
 80021b8:	2206      	movs	r2, #6
 80021ba:	2106      	movs	r1, #6
 80021bc:	486f      	ldr	r0, [pc, #444]	; (800237c <Menu_it+0x2c0>)
 80021be:	f7fe ff25 	bl	800100c <Menu_Parmetr_Drow>
		Menu_Parmetr_Drow(&Soldering_Heat_Gun.PAC_Control->Control_Value, 6, 7, UINT16);
 80021c2:	4b62      	ldr	r3, [pc, #392]	; (800234c <Menu_it+0x290>)
 80021c4:	6ddb      	ldr	r3, [r3, #92]	; 0x5c
 80021c6:	f103 000c 	add.w	r0, r3, #12
 80021ca:	2302      	movs	r3, #2
 80021cc:	2207      	movs	r2, #7
 80021ce:	2106      	movs	r1, #6
 80021d0:	f7fe ff1c 	bl	800100c <Menu_Parmetr_Drow>


		Menu_Parmetr_Drow(&Soldering_Heat_Gun.State, 17, 1, BOOL);
 80021d4:	2303      	movs	r3, #3
 80021d6:	2201      	movs	r2, #1
 80021d8:	2111      	movs	r1, #17
 80021da:	4869      	ldr	r0, [pc, #420]	; (8002380 <Menu_it+0x2c4>)
 80021dc:	f7fe ff16 	bl	800100c <Menu_Parmetr_Drow>
		Menu_Parmetr_Drow(&Soldering_Heat_Gun.Temperature_Set, 17, 2, UINT16);
 80021e0:	2302      	movs	r3, #2
 80021e2:	2202      	movs	r2, #2
 80021e4:	2111      	movs	r1, #17
 80021e6:	4867      	ldr	r0, [pc, #412]	; (8002384 <Menu_it+0x2c8>)
 80021e8:	f7fe ff10 	bl	800100c <Menu_Parmetr_Drow>
		Menu_Parmetr_Drow(&Soldering_Heat_Gun.Temperature, 17, 3, UINT16);
 80021ec:	2302      	movs	r3, #2
 80021ee:	2203      	movs	r2, #3
 80021f0:	2111      	movs	r1, #17
 80021f2:	4865      	ldr	r0, [pc, #404]	; (8002388 <Menu_it+0x2cc>)
 80021f4:	f7fe ff0a 	bl	800100c <Menu_Parmetr_Drow>

		Menu_Parmetr_Drow(&Soldering_Separator.State, 17, 5, BOOL);
 80021f8:	2303      	movs	r3, #3
 80021fa:	2205      	movs	r2, #5
 80021fc:	2111      	movs	r1, #17
 80021fe:	4863      	ldr	r0, [pc, #396]	; (800238c <Menu_it+0x2d0>)
 8002200:	f7fe ff04 	bl	800100c <Menu_Parmetr_Drow>
		Menu_Parmetr_Drow(&Soldering_Separator.Temperature_Set, 17, 6, UINT16);
 8002204:	2302      	movs	r3, #2
 8002206:	2206      	movs	r2, #6
 8002208:	2111      	movs	r1, #17
 800220a:	4861      	ldr	r0, [pc, #388]	; (8002390 <Menu_it+0x2d4>)
 800220c:	f7fe fefe 	bl	800100c <Menu_Parmetr_Drow>
		Menu_Parmetr_Drow(&Soldering_Separator.Temperature, 17, 7, UINT16);
 8002210:	2302      	movs	r3, #2
 8002212:	2207      	movs	r2, #7
 8002214:	2111      	movs	r1, #17
 8002216:	485f      	ldr	r0, [pc, #380]	; (8002394 <Menu_it+0x2d8>)
 8002218:	f7fe fef8 	bl	800100c <Menu_Parmetr_Drow>
		Menu_Parmetr_Drow(&Soldering_Separator.PAC_Control->Control_Value, 1, 7, UINT16);
 800221c:	4b4c      	ldr	r3, [pc, #304]	; (8002350 <Menu_it+0x294>)
 800221e:	6ddb      	ldr	r3, [r3, #92]	; 0x5c
 8002220:	f103 000c 	add.w	r0, r3, #12
 8002224:	2302      	movs	r3, #2
 8002226:	2207      	movs	r2, #7
 8002228:	2101      	movs	r1, #1
 800222a:	f7fe feef 	bl	800100c <Menu_Parmetr_Drow>



		if(Incoder_Button_State_P2==Incoder_Button_Short){                 //Solder_Iron_ON/OFF
 800222e:	4b43      	ldr	r3, [pc, #268]	; (800233c <Menu_it+0x280>)
 8002230:	781b      	ldrb	r3, [r3, #0]
 8002232:	2b02      	cmp	r3, #2
 8002234:	d10e      	bne.n	8002254 <Menu_it+0x198>
			Incoder_Button_State_P2=Incoder_Button_NotPressed;
 8002236:	4b41      	ldr	r3, [pc, #260]	; (800233c <Menu_it+0x280>)
 8002238:	2200      	movs	r2, #0
 800223a:	701a      	strb	r2, [r3, #0]
			if(Soldering_Iron.State==0){
 800223c:	4b42      	ldr	r3, [pc, #264]	; (8002348 <Menu_it+0x28c>)
 800223e:	f893 3092 	ldrb.w	r3, [r3, #146]	; 0x92
 8002242:	2b00      	cmp	r3, #0
 8002244:	d103      	bne.n	800224e <Menu_it+0x192>
				Solder_Iron_ON(&Soldering_Iron);
 8002246:	4840      	ldr	r0, [pc, #256]	; (8002348 <Menu_it+0x28c>)
 8002248:	f000 fe49 	bl	8002ede <Solder_Iron_ON>
 800224c:	e002      	b.n	8002254 <Menu_it+0x198>
			}else{
				Solder_Iron_OFF(&Soldering_Iron);
 800224e:	483e      	ldr	r0, [pc, #248]	; (8002348 <Menu_it+0x28c>)
 8002250:	f000 fe5b 	bl	8002f0a <Solder_Iron_OFF>
			}
		}

		if(Incoder_Button_State_P1==Incoder_Button_Short&&Interface_Contoll==Interface_Contoll_Soldering_Heat_Gun){		//Soldering_Heat_Gun_ON/OFF
 8002254:	4b3f      	ldr	r3, [pc, #252]	; (8002354 <Menu_it+0x298>)
 8002256:	781b      	ldrb	r3, [r3, #0]
 8002258:	2b02      	cmp	r3, #2
 800225a:	d113      	bne.n	8002284 <Menu_it+0x1c8>
 800225c:	4b38      	ldr	r3, [pc, #224]	; (8002340 <Menu_it+0x284>)
 800225e:	781b      	ldrb	r3, [r3, #0]
 8002260:	2b00      	cmp	r3, #0
 8002262:	d10f      	bne.n	8002284 <Menu_it+0x1c8>
			Incoder_Button_State_P1=Incoder_Button_NotPressed;
 8002264:	4b3b      	ldr	r3, [pc, #236]	; (8002354 <Menu_it+0x298>)
 8002266:	2200      	movs	r2, #0
 8002268:	701a      	strb	r2, [r3, #0]
			if(Soldering_Heat_Gun.State!=Heat_Gun_ON)
 800226a:	4b38      	ldr	r3, [pc, #224]	; (800234c <Menu_it+0x290>)
 800226c:	f893 3082 	ldrb.w	r3, [r3, #130]	; 0x82
 8002270:	2b01      	cmp	r3, #1
 8002272:	d003      	beq.n	800227c <Menu_it+0x1c0>
				Soldering_Heat_Gun_ON(&Soldering_Heat_Gun);
 8002274:	4835      	ldr	r0, [pc, #212]	; (800234c <Menu_it+0x290>)
 8002276:	f000 ff3c 	bl	80030f2 <Soldering_Heat_Gun_ON>
			if(Soldering_Heat_Gun.State!=Heat_Gun_ON)
 800227a:	e01a      	b.n	80022b2 <Menu_it+0x1f6>
			else
				Soldering_Heat_Gun_OFF(&Soldering_Heat_Gun);
 800227c:	4833      	ldr	r0, [pc, #204]	; (800234c <Menu_it+0x290>)
 800227e:	f000 ff68 	bl	8003152 <Soldering_Heat_Gun_OFF>
			if(Soldering_Heat_Gun.State!=Heat_Gun_ON)
 8002282:	e016      	b.n	80022b2 <Menu_it+0x1f6>
		}
		else if(Incoder_Button_State_P1==Incoder_Button_Short&&Interface_Contoll==Interface_Contoll_Soldering_Separator){
 8002284:	4b33      	ldr	r3, [pc, #204]	; (8002354 <Menu_it+0x298>)
 8002286:	781b      	ldrb	r3, [r3, #0]
 8002288:	2b02      	cmp	r3, #2
 800228a:	d112      	bne.n	80022b2 <Menu_it+0x1f6>
 800228c:	4b2c      	ldr	r3, [pc, #176]	; (8002340 <Menu_it+0x284>)
 800228e:	781b      	ldrb	r3, [r3, #0]
 8002290:	2b01      	cmp	r3, #1
 8002292:	d10e      	bne.n	80022b2 <Menu_it+0x1f6>
			Incoder_Button_State_P1=Incoder_Button_NotPressed;															//Soldering_Separator_ON/OFF
 8002294:	4b2f      	ldr	r3, [pc, #188]	; (8002354 <Menu_it+0x298>)
 8002296:	2200      	movs	r2, #0
 8002298:	701a      	strb	r2, [r3, #0]
				if(Soldering_Separator.State!=Separator_ON)
 800229a:	4b2d      	ldr	r3, [pc, #180]	; (8002350 <Menu_it+0x294>)
 800229c:	f893 3070 	ldrb.w	r3, [r3, #112]	; 0x70
 80022a0:	2b01      	cmp	r3, #1
 80022a2:	d003      	beq.n	80022ac <Menu_it+0x1f0>
					Soldering_Separator_ON(&Soldering_Separator);
 80022a4:	482a      	ldr	r0, [pc, #168]	; (8002350 <Menu_it+0x294>)
 80022a6:	f001 f852 	bl	800334e <Soldering_Separator_ON>
 80022aa:	e002      	b.n	80022b2 <Menu_it+0x1f6>
				else
					Soldering_Separator_OFF(&Soldering_Separator);
 80022ac:	4828      	ldr	r0, [pc, #160]	; (8002350 <Menu_it+0x294>)
 80022ae:	f001 f86c 	bl	800338a <Soldering_Separator_OFF>
		}



		if(Soldering_Iron.Temperature_Set_Prew!=Soldering_Iron.Temperature_Pressets.Manual){
 80022b2:	4b25      	ldr	r3, [pc, #148]	; (8002348 <Menu_it+0x28c>)
 80022b4:	f8b3 2086 	ldrh.w	r2, [r3, #134]	; 0x86
 80022b8:	4b23      	ldr	r3, [pc, #140]	; (8002348 <Menu_it+0x28c>)
 80022ba:	f8b3 3046 	ldrh.w	r3, [r3, #70]	; 0x46
 80022be:	429a      	cmp	r2, r3
 80022c0:	d00f      	beq.n	80022e2 <Menu_it+0x226>
			Soldering_Iron.Temperature_Set_Prew=Soldering_Iron.Temperature_Pressets.Manual;
 80022c2:	4b21      	ldr	r3, [pc, #132]	; (8002348 <Menu_it+0x28c>)
 80022c4:	f8b3 2046 	ldrh.w	r2, [r3, #70]	; 0x46
 80022c8:	4b1f      	ldr	r3, [pc, #124]	; (8002348 <Menu_it+0x28c>)
 80022ca:	f8a3 2086 	strh.w	r2, [r3, #134]	; 0x86
			Solder_Iron_Sleep_Time_Resset(&Soldering_Iron);
 80022ce:	481e      	ldr	r0, [pc, #120]	; (8002348 <Menu_it+0x28c>)
 80022d0:	f000 fd80 	bl	8002dd4 <Solder_Iron_Sleep_Time_Resset>
			Solder_Iron_Set_Temperature(&Soldering_Iron, MANUAL);
 80022d4:	2100      	movs	r1, #0
 80022d6:	481c      	ldr	r0, [pc, #112]	; (8002348 <Menu_it+0x28c>)
 80022d8:	f000 fe29 	bl	8002f2e <Solder_Iron_Set_Temperature>
			Solder_Iron_Flash_Reset_Rewrite_Timer(&Soldering_Iron);
 80022dc:	481a      	ldr	r0, [pc, #104]	; (8002348 <Menu_it+0x28c>)
 80022de:	f000 fee5 	bl	80030ac <Solder_Iron_Flash_Reset_Rewrite_Timer>
		}
		if(Soldering_Heat_Gun.Temperature_Set_Prew!=Soldering_Heat_Gun.Temperature_Pressets.Manual){
 80022e2:	4b1a      	ldr	r3, [pc, #104]	; (800234c <Menu_it+0x290>)
 80022e4:	f8b3 2068 	ldrh.w	r2, [r3, #104]	; 0x68
 80022e8:	4b18      	ldr	r3, [pc, #96]	; (800234c <Menu_it+0x290>)
 80022ea:	f8b3 3046 	ldrh.w	r3, [r3, #70]	; 0x46
 80022ee:	429a      	cmp	r2, r3
 80022f0:	d00c      	beq.n	800230c <Menu_it+0x250>
			Soldering_Heat_Gun.Temperature_Set_Prew=Soldering_Heat_Gun.Temperature_Pressets.Manual;
 80022f2:	4b16      	ldr	r3, [pc, #88]	; (800234c <Menu_it+0x290>)
 80022f4:	f8b3 2046 	ldrh.w	r2, [r3, #70]	; 0x46
 80022f8:	4b14      	ldr	r3, [pc, #80]	; (800234c <Menu_it+0x290>)
 80022fa:	f8a3 2068 	strh.w	r2, [r3, #104]	; 0x68
			Soldering_Heat_Gun_Set_Temperature(&Soldering_Heat_Gun, MANUAL);
 80022fe:	2100      	movs	r1, #0
 8002300:	4812      	ldr	r0, [pc, #72]	; (800234c <Menu_it+0x290>)
 8002302:	f000 ff4e 	bl	80031a2 <Soldering_Heat_Gun_Set_Temperature>
			Soldering_Heat_Gun_Flash_Reset_Rewrite_Timer(&Soldering_Heat_Gun);
 8002306:	4811      	ldr	r0, [pc, #68]	; (800234c <Menu_it+0x290>)
 8002308:	f000 fffe 	bl	8003308 <Soldering_Heat_Gun_Flash_Reset_Rewrite_Timer>
		}
		if(Soldering_Separator.Temperature_Set_Prew!=Soldering_Separator.Temperature_Pressets.Manual){
 800230c:	4b10      	ldr	r3, [pc, #64]	; (8002350 <Menu_it+0x294>)
 800230e:	f8b3 2068 	ldrh.w	r2, [r3, #104]	; 0x68
 8002312:	4b0f      	ldr	r3, [pc, #60]	; (8002350 <Menu_it+0x294>)
 8002314:	f8b3 3046 	ldrh.w	r3, [r3, #70]	; 0x46
 8002318:	429a      	cmp	r2, r3
 800231a:	f43f aedb 	beq.w	80020d4 <Menu_it+0x18>
			Soldering_Separator.Temperature_Set_Prew=Soldering_Separator.Temperature_Pressets.Manual;
 800231e:	4b0c      	ldr	r3, [pc, #48]	; (8002350 <Menu_it+0x294>)
 8002320:	f8b3 2046 	ldrh.w	r2, [r3, #70]	; 0x46
 8002324:	4b0a      	ldr	r3, [pc, #40]	; (8002350 <Menu_it+0x294>)
 8002326:	f8a3 2068 	strh.w	r2, [r3, #104]	; 0x68
			Soldering_Separator_Set_Temperature(&Soldering_Separator, MANUAL);
 800232a:	2100      	movs	r1, #0
 800232c:	4808      	ldr	r0, [pc, #32]	; (8002350 <Menu_it+0x294>)
 800232e:	f001 f841 	bl	80033b4 <Soldering_Separator_Set_Temperature>
			Soldering_Separator_Flash_Reset_Rewrite_Timer(&Soldering_Separator);
 8002332:	4807      	ldr	r0, [pc, #28]	; (8002350 <Menu_it+0x294>)
 8002334:	f001 f8ce 	bl	80034d4 <Soldering_Separator_Flash_Reset_Rewrite_Timer>
		if(Incoder_Button_State_P2==Incoder_Button_long){
 8002338:	e6cc      	b.n	80020d4 <Menu_it+0x18>
 800233a:	bf00      	nop
 800233c:	200004fc 	.word	0x200004fc
 8002340:	200004fe 	.word	0x200004fe
 8002344:	200004f4 	.word	0x200004f4
 8002348:	20000828 	.word	0x20000828
 800234c:	200008c4 	.word	0x200008c4
 8002350:	20000950 	.word	0x20000950
 8002354:	200004fd 	.word	0x200004fd
 8002358:	2000086e 	.word	0x2000086e
 800235c:	200004f8 	.word	0x200004f8
 8002360:	2000090a 	.word	0x2000090a
 8002364:	20000996 	.word	0x20000996
 8002368:	200008ba 	.word	0x200008ba
 800236c:	200008ac 	.word	0x200008ac
 8002370:	200008b0 	.word	0x200008b0
 8002374:	200008aa 	.word	0x200008aa
 8002378:	200009ce 	.word	0x200009ce
 800237c:	200008d4 	.word	0x200008d4
 8002380:	20000946 	.word	0x20000946
 8002384:	2000092a 	.word	0x2000092a
 8002388:	20000930 	.word	0x20000930
 800238c:	200009c0 	.word	0x200009c0
 8002390:	200009b6 	.word	0x200009b6
 8002394:	200009bc 	.word	0x200009bc

08002398 <OLED_Send_Comand>:
 8002398:	b580      	push	{r7, lr}
 800239a:	b086      	sub	sp, #24
 800239c:	af02      	add	r7, sp, #8
 800239e:	6078      	str	r0, [r7, #4]
 80023a0:	460b      	mov	r3, r1
 80023a2:	70fb      	strb	r3, [r7, #3]
 80023a4:	2300      	movs	r3, #0
 80023a6:	733b      	strb	r3, [r7, #12]
 80023a8:	2380      	movs	r3, #128	; 0x80
 80023aa:	733b      	strb	r3, [r7, #12]
 80023ac:	78fb      	ldrb	r3, [r7, #3]
 80023ae:	737b      	strb	r3, [r7, #13]
 80023b0:	687b      	ldr	r3, [r7, #4]
 80023b2:	6818      	ldr	r0, [r3, #0]
 80023b4:	687b      	ldr	r3, [r7, #4]
 80023b6:	8899      	ldrh	r1, [r3, #4]
 80023b8:	f107 020c 	add.w	r2, r7, #12
 80023bc:	f44f 737a 	mov.w	r3, #1000	; 0x3e8
 80023c0:	9300      	str	r3, [sp, #0]
 80023c2:	2302      	movs	r3, #2
 80023c4:	f004 fbb6 	bl	8006b34 <HAL_I2C_Master_Transmit>
 80023c8:	bf00      	nop
 80023ca:	3710      	adds	r7, #16
 80023cc:	46bd      	mov	sp, r7
 80023ce:	bd80      	pop	{r7, pc}

080023d0 <OLED_Search_Adress>:
 80023d0:	b580      	push	{r7, lr}
 80023d2:	b084      	sub	sp, #16
 80023d4:	af00      	add	r7, sp, #0
 80023d6:	6078      	str	r0, [r7, #4]
 80023d8:	2300      	movs	r3, #0
 80023da:	60fb      	str	r3, [r7, #12]
 80023dc:	e012      	b.n	8002404 <OLED_Search_Adress+0x34>
 80023de:	687b      	ldr	r3, [r7, #4]
 80023e0:	6818      	ldr	r0, [r3, #0]
 80023e2:	68fb      	ldr	r3, [r7, #12]
 80023e4:	b299      	uxth	r1, r3
 80023e6:	2302      	movs	r3, #2
 80023e8:	220a      	movs	r2, #10
 80023ea:	f004 fca1 	bl	8006d30 <HAL_I2C_IsDeviceReady>
 80023ee:	4603      	mov	r3, r0
 80023f0:	2b00      	cmp	r3, #0
 80023f2:	d104      	bne.n	80023fe <OLED_Search_Adress+0x2e>
 80023f4:	68fb      	ldr	r3, [r7, #12]
 80023f6:	b29a      	uxth	r2, r3
 80023f8:	687b      	ldr	r3, [r7, #4]
 80023fa:	809a      	strh	r2, [r3, #4]
 80023fc:	e006      	b.n	800240c <OLED_Search_Adress+0x3c>
 80023fe:	68fb      	ldr	r3, [r7, #12]
 8002400:	3301      	adds	r3, #1
 8002402:	60fb      	str	r3, [r7, #12]
 8002404:	68fb      	ldr	r3, [r7, #12]
 8002406:	2bff      	cmp	r3, #255	; 0xff
 8002408:	dde9      	ble.n	80023de <OLED_Search_Adress+0xe>
 800240a:	bf00      	nop
 800240c:	bf00      	nop
 800240e:	3710      	adds	r7, #16
 8002410:	46bd      	mov	sp, r7
 8002412:	bd80      	pop	{r7, pc}

08002414 <OLED_ini>:
 8002414:	b580      	push	{r7, lr}
 8002416:	b082      	sub	sp, #8
 8002418:	af00      	add	r7, sp, #0
 800241a:	6078      	str	r0, [r7, #4]
 800241c:	21af      	movs	r1, #175	; 0xaf
 800241e:	6878      	ldr	r0, [r7, #4]
 8002420:	f7ff ffba 	bl	8002398 <OLED_Send_Comand>
 8002424:	21a6      	movs	r1, #166	; 0xa6
 8002426:	6878      	ldr	r0, [r7, #4]
 8002428:	f7ff ffb6 	bl	8002398 <OLED_Send_Comand>
 800242c:	2120      	movs	r1, #32
 800242e:	6878      	ldr	r0, [r7, #4]
 8002430:	f7ff ffb2 	bl	8002398 <OLED_Send_Comand>
 8002434:	2100      	movs	r1, #0
 8002436:	6878      	ldr	r0, [r7, #4]
 8002438:	f7ff ffae 	bl	8002398 <OLED_Send_Comand>
 800243c:	218d      	movs	r1, #141	; 0x8d
 800243e:	6878      	ldr	r0, [r7, #4]
 8002440:	f7ff ffaa 	bl	8002398 <OLED_Send_Comand>
 8002444:	21a4      	movs	r1, #164	; 0xa4
 8002446:	6878      	ldr	r0, [r7, #4]
 8002448:	f7ff ffa6 	bl	8002398 <OLED_Send_Comand>
 800244c:	21a0      	movs	r1, #160	; 0xa0
 800244e:	6878      	ldr	r0, [r7, #4]
 8002450:	f7ff ffa2 	bl	8002398 <OLED_Send_Comand>
 8002454:	21c7      	movs	r1, #199	; 0xc7
 8002456:	6878      	ldr	r0, [r7, #4]
 8002458:	f7ff ff9e 	bl	8002398 <OLED_Send_Comand>
 800245c:	2121      	movs	r1, #33	; 0x21
 800245e:	6878      	ldr	r0, [r7, #4]
 8002460:	f7ff ff9a 	bl	8002398 <OLED_Send_Comand>
 8002464:	2100      	movs	r1, #0
 8002466:	6878      	ldr	r0, [r7, #4]
 8002468:	f7ff ff96 	bl	8002398 <OLED_Send_Comand>
 800246c:	217d      	movs	r1, #125	; 0x7d
 800246e:	6878      	ldr	r0, [r7, #4]
 8002470:	f7ff ff92 	bl	8002398 <OLED_Send_Comand>
 8002474:	2122      	movs	r1, #34	; 0x22
 8002476:	6878      	ldr	r0, [r7, #4]
 8002478:	f7ff ff8e 	bl	8002398 <OLED_Send_Comand>
 800247c:	2100      	movs	r1, #0
 800247e:	6878      	ldr	r0, [r7, #4]
 8002480:	f7ff ff8a 	bl	8002398 <OLED_Send_Comand>
 8002484:	2107      	movs	r1, #7
 8002486:	6878      	ldr	r0, [r7, #4]
 8002488:	f7ff ff86 	bl	8002398 <OLED_Send_Comand>
 800248c:	6878      	ldr	r0, [r7, #4]
 800248e:	f000 f85f 	bl	8002550 <OLED_Clear_Display>
 8002492:	bf00      	nop
 8002494:	3708      	adds	r7, #8
 8002496:	46bd      	mov	sp, r7
 8002498:	bd80      	pop	{r7, pc}

0800249a <OLED_Set_Cursor>:
 800249a:	b580      	push	{r7, lr}
 800249c:	b082      	sub	sp, #8
 800249e:	af00      	add	r7, sp, #0
 80024a0:	6078      	str	r0, [r7, #4]
 80024a2:	460b      	mov	r3, r1
 80024a4:	807b      	strh	r3, [r7, #2]
 80024a6:	4613      	mov	r3, r2
 80024a8:	707b      	strb	r3, [r7, #1]
 80024aa:	787b      	ldrb	r3, [r7, #1]
 80024ac:	f063 034f 	orn	r3, r3, #79	; 0x4f
 80024b0:	b2db      	uxtb	r3, r3
 80024b2:	4619      	mov	r1, r3
 80024b4:	6878      	ldr	r0, [r7, #4]
 80024b6:	f7ff ff6f 	bl	8002398 <OLED_Send_Comand>
 80024ba:	887b      	ldrh	r3, [r7, #2]
 80024bc:	b2db      	uxtb	r3, r3
 80024be:	f003 030f 	and.w	r3, r3, #15
 80024c2:	b2db      	uxtb	r3, r3
 80024c4:	4619      	mov	r1, r3
 80024c6:	6878      	ldr	r0, [r7, #4]
 80024c8:	f7ff ff66 	bl	8002398 <OLED_Send_Comand>
 80024cc:	887b      	ldrh	r3, [r7, #2]
 80024ce:	091b      	lsrs	r3, r3, #4
 80024d0:	b29b      	uxth	r3, r3
 80024d2:	b2db      	uxtb	r3, r3
 80024d4:	f003 030f 	and.w	r3, r3, #15
 80024d8:	b2db      	uxtb	r3, r3
 80024da:	3310      	adds	r3, #16
 80024dc:	b2db      	uxtb	r3, r3
 80024de:	4619      	mov	r1, r3
 80024e0:	6878      	ldr	r0, [r7, #4]
 80024e2:	f7ff ff59 	bl	8002398 <OLED_Send_Comand>
 80024e6:	bf00      	nop
 80024e8:	3708      	adds	r7, #8
 80024ea:	46bd      	mov	sp, r7
 80024ec:	bd80      	pop	{r7, pc}

080024ee <OLED_Set_Char_Cursor>:
 80024ee:	b580      	push	{r7, lr}
 80024f0:	b082      	sub	sp, #8
 80024f2:	af00      	add	r7, sp, #0
 80024f4:	6078      	str	r0, [r7, #4]
 80024f6:	460b      	mov	r3, r1
 80024f8:	807b      	strh	r3, [r7, #2]
 80024fa:	4613      	mov	r3, r2
 80024fc:	707b      	strb	r3, [r7, #1]
 80024fe:	887b      	ldrh	r3, [r7, #2]
 8002500:	461a      	mov	r2, r3
 8002502:	0052      	lsls	r2, r2, #1
 8002504:	4413      	add	r3, r2
 8002506:	005b      	lsls	r3, r3, #1
 8002508:	807b      	strh	r3, [r7, #2]
 800250a:	787b      	ldrb	r3, [r7, #1]
 800250c:	f063 034f 	orn	r3, r3, #79	; 0x4f
 8002510:	b2db      	uxtb	r3, r3
 8002512:	4619      	mov	r1, r3
 8002514:	6878      	ldr	r0, [r7, #4]
 8002516:	f7ff ff3f 	bl	8002398 <OLED_Send_Comand>
 800251a:	887b      	ldrh	r3, [r7, #2]
 800251c:	b2db      	uxtb	r3, r3
 800251e:	f003 030f 	and.w	r3, r3, #15
 8002522:	b2db      	uxtb	r3, r3
 8002524:	4619      	mov	r1, r3
 8002526:	6878      	ldr	r0, [r7, #4]
 8002528:	f7ff ff36 	bl	8002398 <OLED_Send_Comand>
 800252c:	887b      	ldrh	r3, [r7, #2]
 800252e:	091b      	lsrs	r3, r3, #4
 8002530:	b29b      	uxth	r3, r3
 8002532:	b2db      	uxtb	r3, r3
 8002534:	f003 030f 	and.w	r3, r3, #15
 8002538:	b2db      	uxtb	r3, r3
 800253a:	3310      	adds	r3, #16
 800253c:	b2db      	uxtb	r3, r3
 800253e:	4619      	mov	r1, r3
 8002540:	6878      	ldr	r0, [r7, #4]
 8002542:	f7ff ff29 	bl	8002398 <OLED_Send_Comand>
 8002546:	bf00      	nop
 8002548:	3708      	adds	r7, #8
 800254a:	46bd      	mov	sp, r7
 800254c:	bd80      	pop	{r7, pc}
	...

08002550 <OLED_Clear_Display>:
 8002550:	b580      	push	{r7, lr}
 8002552:	b086      	sub	sp, #24
 8002554:	af02      	add	r7, sp, #8
 8002556:	6078      	str	r0, [r7, #4]
 8002558:	4b10      	ldr	r3, [pc, #64]	; (800259c <OLED_Clear_Display+0x4c>)
 800255a:	2240      	movs	r2, #64	; 0x40
 800255c:	701a      	strb	r2, [r3, #0]
 800255e:	2300      	movs	r3, #0
 8002560:	73fb      	strb	r3, [r7, #15]
 8002562:	e013      	b.n	800258c <OLED_Clear_Display+0x3c>
 8002564:	7bfb      	ldrb	r3, [r7, #15]
 8002566:	461a      	mov	r2, r3
 8002568:	2100      	movs	r1, #0
 800256a:	6878      	ldr	r0, [r7, #4]
 800256c:	f7ff ff95 	bl	800249a <OLED_Set_Cursor>
 8002570:	687b      	ldr	r3, [r7, #4]
 8002572:	6818      	ldr	r0, [r3, #0]
 8002574:	687b      	ldr	r3, [r7, #4]
 8002576:	8899      	ldrh	r1, [r3, #4]
 8002578:	f44f 737a 	mov.w	r3, #1000	; 0x3e8
 800257c:	9300      	str	r3, [sp, #0]
 800257e:	2381      	movs	r3, #129	; 0x81
 8002580:	4a06      	ldr	r2, [pc, #24]	; (800259c <OLED_Clear_Display+0x4c>)
 8002582:	f004 fad7 	bl	8006b34 <HAL_I2C_Master_Transmit>
 8002586:	7bfb      	ldrb	r3, [r7, #15]
 8002588:	3301      	adds	r3, #1
 800258a:	73fb      	strb	r3, [r7, #15]
 800258c:	7bfb      	ldrb	r3, [r7, #15]
 800258e:	2b07      	cmp	r3, #7
 8002590:	d9e8      	bls.n	8002564 <OLED_Clear_Display+0x14>
 8002592:	bf00      	nop
 8002594:	bf00      	nop
 8002596:	3710      	adds	r7, #16
 8002598:	46bd      	mov	sp, r7
 800259a:	bd80      	pop	{r7, pc}
 800259c:	20000504 	.word	0x20000504

080025a0 <OLED_Send_Char>:
 80025a0:	b580      	push	{r7, lr}
 80025a2:	b088      	sub	sp, #32
 80025a4:	af02      	add	r7, sp, #8
 80025a6:	6078      	str	r0, [r7, #4]
 80025a8:	460b      	mov	r3, r1
 80025aa:	70fb      	strb	r3, [r7, #3]
 80025ac:	2300      	movs	r3, #0
 80025ae:	60bb      	str	r3, [r7, #8]
 80025b0:	f107 030c 	add.w	r3, r7, #12
 80025b4:	2100      	movs	r1, #0
 80025b6:	460a      	mov	r2, r1
 80025b8:	801a      	strh	r2, [r3, #0]
 80025ba:	460a      	mov	r2, r1
 80025bc:	709a      	strb	r2, [r3, #2]
 80025be:	2340      	movs	r3, #64	; 0x40
 80025c0:	723b      	strb	r3, [r7, #8]
 80025c2:	78fb      	ldrb	r3, [r7, #3]
 80025c4:	f1a3 0220 	sub.w	r2, r3, #32
 80025c8:	4613      	mov	r3, r2
 80025ca:	005b      	lsls	r3, r3, #1
 80025cc:	4413      	add	r3, r2
 80025ce:	005b      	lsls	r3, r3, #1
 80025d0:	613b      	str	r3, [r7, #16]
 80025d2:	2301      	movs	r3, #1
 80025d4:	617b      	str	r3, [r7, #20]
 80025d6:	e010      	b.n	80025fa <OLED_Send_Char+0x5a>
 80025d8:	693a      	ldr	r2, [r7, #16]
 80025da:	697b      	ldr	r3, [r7, #20]
 80025dc:	4413      	add	r3, r2
 80025de:	3b01      	subs	r3, #1
 80025e0:	4a0f      	ldr	r2, [pc, #60]	; (8002620 <OLED_Send_Char+0x80>)
 80025e2:	f832 3013 	ldrh.w	r3, [r2, r3, lsl #1]
 80025e6:	b2d9      	uxtb	r1, r3
 80025e8:	f107 0208 	add.w	r2, r7, #8
 80025ec:	697b      	ldr	r3, [r7, #20]
 80025ee:	4413      	add	r3, r2
 80025f0:	460a      	mov	r2, r1
 80025f2:	701a      	strb	r2, [r3, #0]
 80025f4:	697b      	ldr	r3, [r7, #20]
 80025f6:	3301      	adds	r3, #1
 80025f8:	617b      	str	r3, [r7, #20]
 80025fa:	697b      	ldr	r3, [r7, #20]
 80025fc:	2b06      	cmp	r3, #6
 80025fe:	ddeb      	ble.n	80025d8 <OLED_Send_Char+0x38>
 8002600:	687b      	ldr	r3, [r7, #4]
 8002602:	6818      	ldr	r0, [r3, #0]
 8002604:	687b      	ldr	r3, [r7, #4]
 8002606:	8899      	ldrh	r1, [r3, #4]
 8002608:	f107 0208 	add.w	r2, r7, #8
 800260c:	f44f 737a 	mov.w	r3, #1000	; 0x3e8
 8002610:	9300      	str	r3, [sp, #0]
 8002612:	2307      	movs	r3, #7
 8002614:	f004 fa8e 	bl	8006b34 <HAL_I2C_Master_Transmit>
 8002618:	bf00      	nop
 800261a:	3718      	adds	r7, #24
 800261c:	46bd      	mov	sp, r7
 800261e:	bd80      	pop	{r7, pc}
 8002620:	20000004 	.word	0x20000004

08002624 <OLED_Clear_Line>:
 8002624:	b580      	push	{r7, lr}
 8002626:	b084      	sub	sp, #16
 8002628:	af02      	add	r7, sp, #8
 800262a:	6078      	str	r0, [r7, #4]
 800262c:	460b      	mov	r3, r1
 800262e:	70fb      	strb	r3, [r7, #3]
 8002630:	78fb      	ldrb	r3, [r7, #3]
 8002632:	461a      	mov	r2, r3
 8002634:	2100      	movs	r1, #0
 8002636:	6878      	ldr	r0, [r7, #4]
 8002638:	f7ff ff2f 	bl	800249a <OLED_Set_Cursor>
 800263c:	687b      	ldr	r3, [r7, #4]
 800263e:	6818      	ldr	r0, [r3, #0]
 8002640:	687b      	ldr	r3, [r7, #4]
 8002642:	8899      	ldrh	r1, [r3, #4]
 8002644:	f44f 737a 	mov.w	r3, #1000	; 0x3e8
 8002648:	9300      	str	r3, [sp, #0]
 800264a:	2381      	movs	r3, #129	; 0x81
 800264c:	4a03      	ldr	r2, [pc, #12]	; (800265c <OLED_Clear_Line+0x38>)
 800264e:	f004 fa71 	bl	8006b34 <HAL_I2C_Master_Transmit>
 8002652:	bf00      	nop
 8002654:	3708      	adds	r7, #8
 8002656:	46bd      	mov	sp, r7
 8002658:	bd80      	pop	{r7, pc}
 800265a:	bf00      	nop
 800265c:	20000504 	.word	0x20000504

08002660 <OLED_Send_String>:
 8002660:	b590      	push	{r4, r7, lr}
 8002662:	b0a9      	sub	sp, #164	; 0xa4
 8002664:	af02      	add	r7, sp, #8
 8002666:	6078      	str	r0, [r7, #4]
 8002668:	6039      	str	r1, [r7, #0]
 800266a:	2300      	movs	r3, #0
 800266c:	60bb      	str	r3, [r7, #8]
 800266e:	f107 030c 	add.w	r3, r7, #12
 8002672:	227b      	movs	r2, #123	; 0x7b
 8002674:	2100      	movs	r1, #0
 8002676:	4618      	mov	r0, r3
 8002678:	f006 fbc2 	bl	8008e00 <memset>
 800267c:	2340      	movs	r3, #64	; 0x40
 800267e:	723b      	strb	r3, [r7, #8]
 8002680:	2300      	movs	r3, #0
 8002682:	f8c7 3094 	str.w	r3, [r7, #148]	; 0x94
 8002686:	2300      	movs	r3, #0
 8002688:	f8c7 3090 	str.w	r3, [r7, #144]	; 0x90
 800268c:	2300      	movs	r3, #0
 800268e:	f887 308e 	strb.w	r3, [r7, #142]	; 0x8e
 8002692:	e076      	b.n	8002782 <OLED_Send_String+0x122>
 8002694:	f8d7 3094 	ldr.w	r3, [r7, #148]	; 0x94
 8002698:	683a      	ldr	r2, [r7, #0]
 800269a:	4413      	add	r3, r2
 800269c:	781b      	ldrb	r3, [r3, #0]
 800269e:	2b0d      	cmp	r3, #13
 80026a0:	d006      	beq.n	80026b0 <OLED_Send_String+0x50>
 80026a2:	f8d7 3094 	ldr.w	r3, [r7, #148]	; 0x94
 80026a6:	683a      	ldr	r2, [r7, #0]
 80026a8:	4413      	add	r3, r2
 80026aa:	781b      	ldrb	r3, [r3, #0]
 80026ac:	2b0a      	cmp	r3, #10
 80026ae:	d105      	bne.n	80026bc <OLED_Send_String+0x5c>
 80026b0:	f8d7 3094 	ldr.w	r3, [r7, #148]	; 0x94
 80026b4:	3301      	adds	r3, #1
 80026b6:	f8c7 3094 	str.w	r3, [r7, #148]	; 0x94
 80026ba:	e062      	b.n	8002782 <OLED_Send_String+0x122>
 80026bc:	f8d7 3094 	ldr.w	r3, [r7, #148]	; 0x94
 80026c0:	683a      	ldr	r2, [r7, #0]
 80026c2:	4413      	add	r3, r2
 80026c4:	781b      	ldrb	r3, [r3, #0]
 80026c6:	f1a3 0220 	sub.w	r2, r3, #32
 80026ca:	4613      	mov	r3, r2
 80026cc:	005b      	lsls	r3, r3, #1
 80026ce:	4413      	add	r3, r2
 80026d0:	005b      	lsls	r3, r3, #1
 80026d2:	f8c7 3088 	str.w	r3, [r7, #136]	; 0x88
 80026d6:	2300      	movs	r3, #0
 80026d8:	f887 308f 	strb.w	r3, [r7, #143]	; 0x8f
 80026dc:	e01b      	b.n	8002716 <OLED_Send_String+0xb6>
 80026de:	f897 208f 	ldrb.w	r2, [r7, #143]	; 0x8f
 80026e2:	f8d7 3088 	ldr.w	r3, [r7, #136]	; 0x88
 80026e6:	4413      	add	r3, r2
 80026e8:	4a36      	ldr	r2, [pc, #216]	; (80027c4 <OLED_Send_String+0x164>)
 80026ea:	f832 0013 	ldrh.w	r0, [r2, r3, lsl #1]
 80026ee:	f897 108f 	ldrb.w	r1, [r7, #143]	; 0x8f
 80026f2:	f8d7 2090 	ldr.w	r2, [r7, #144]	; 0x90
 80026f6:	4613      	mov	r3, r2
 80026f8:	005b      	lsls	r3, r3, #1
 80026fa:	4413      	add	r3, r2
 80026fc:	005b      	lsls	r3, r3, #1
 80026fe:	440b      	add	r3, r1
 8002700:	3301      	adds	r3, #1
 8002702:	b2c2      	uxtb	r2, r0
 8002704:	3398      	adds	r3, #152	; 0x98
 8002706:	443b      	add	r3, r7
 8002708:	f803 2c90 	strb.w	r2, [r3, #-144]
 800270c:	f897 308f 	ldrb.w	r3, [r7, #143]	; 0x8f
 8002710:	3301      	adds	r3, #1
 8002712:	f887 308f 	strb.w	r3, [r7, #143]	; 0x8f
 8002716:	f897 308f 	ldrb.w	r3, [r7, #143]	; 0x8f
 800271a:	2b05      	cmp	r3, #5
 800271c:	d9df      	bls.n	80026de <OLED_Send_String+0x7e>
 800271e:	f8d7 3094 	ldr.w	r3, [r7, #148]	; 0x94
 8002722:	3301      	adds	r3, #1
 8002724:	f8c7 3094 	str.w	r3, [r7, #148]	; 0x94
 8002728:	f8d7 3090 	ldr.w	r3, [r7, #144]	; 0x90
 800272c:	3301      	adds	r3, #1
 800272e:	f8c7 3090 	str.w	r3, [r7, #144]	; 0x90
 8002732:	f8d7 3090 	ldr.w	r3, [r7, #144]	; 0x90
 8002736:	2b14      	cmp	r3, #20
 8002738:	dd23      	ble.n	8002782 <OLED_Send_String+0x122>
 800273a:	f897 308e 	ldrb.w	r3, [r7, #142]	; 0x8e
 800273e:	461a      	mov	r2, r3
 8002740:	2100      	movs	r1, #0
 8002742:	6878      	ldr	r0, [r7, #4]
 8002744:	f7ff fea9 	bl	800249a <OLED_Set_Cursor>
 8002748:	687b      	ldr	r3, [r7, #4]
 800274a:	6818      	ldr	r0, [r3, #0]
 800274c:	687b      	ldr	r3, [r7, #4]
 800274e:	8899      	ldrh	r1, [r3, #4]
 8002750:	f8d7 3090 	ldr.w	r3, [r7, #144]	; 0x90
 8002754:	b29b      	uxth	r3, r3
 8002756:	461a      	mov	r2, r3
 8002758:	0052      	lsls	r2, r2, #1
 800275a:	4413      	add	r3, r2
 800275c:	005b      	lsls	r3, r3, #1
 800275e:	b29b      	uxth	r3, r3
 8002760:	3301      	adds	r3, #1
 8002762:	b29b      	uxth	r3, r3
 8002764:	f107 0208 	add.w	r2, r7, #8
 8002768:	f44f 747a 	mov.w	r4, #1000	; 0x3e8
 800276c:	9400      	str	r4, [sp, #0]
 800276e:	f004 f9e1 	bl	8006b34 <HAL_I2C_Master_Transmit>
 8002772:	f897 308e 	ldrb.w	r3, [r7, #142]	; 0x8e
 8002776:	3301      	adds	r3, #1
 8002778:	f887 308e 	strb.w	r3, [r7, #142]	; 0x8e
 800277c:	2300      	movs	r3, #0
 800277e:	f8c7 3090 	str.w	r3, [r7, #144]	; 0x90
 8002782:	f8d7 3094 	ldr.w	r3, [r7, #148]	; 0x94
 8002786:	683a      	ldr	r2, [r7, #0]
 8002788:	4413      	add	r3, r2
 800278a:	781b      	ldrb	r3, [r3, #0]
 800278c:	2b00      	cmp	r3, #0
 800278e:	d181      	bne.n	8002694 <OLED_Send_String+0x34>
 8002790:	687b      	ldr	r3, [r7, #4]
 8002792:	6818      	ldr	r0, [r3, #0]
 8002794:	687b      	ldr	r3, [r7, #4]
 8002796:	8899      	ldrh	r1, [r3, #4]
 8002798:	f8d7 3090 	ldr.w	r3, [r7, #144]	; 0x90
 800279c:	b29b      	uxth	r3, r3
 800279e:	461a      	mov	r2, r3
 80027a0:	0052      	lsls	r2, r2, #1
 80027a2:	4413      	add	r3, r2
 80027a4:	005b      	lsls	r3, r3, #1
 80027a6:	b29b      	uxth	r3, r3
 80027a8:	3301      	adds	r3, #1
 80027aa:	b29b      	uxth	r3, r3
 80027ac:	f107 0208 	add.w	r2, r7, #8
 80027b0:	f44f 747a 	mov.w	r4, #1000	; 0x3e8
 80027b4:	9400      	str	r4, [sp, #0]
 80027b6:	f004 f9bd 	bl	8006b34 <HAL_I2C_Master_Transmit>
 80027ba:	bf00      	nop
 80027bc:	379c      	adds	r7, #156	; 0x9c
 80027be:	46bd      	mov	sp, r7
 80027c0:	bd90      	pop	{r4, r7, pc}
 80027c2:	bf00      	nop
 80027c4:	20000004 	.word	0x20000004

080027c8 <PAC_Control_Vector_Create>:
 *      Author: I
 */
#include "PAC.h"

//---------------------------------------------------------------------------------
struct PAC_Control_Vector *PAC_Control_Vector_Create(struct PAC *self, struct PAC_Control_Vector *element){
 80027c8:	b590      	push	{r4, r7, lr}
 80027ca:	b085      	sub	sp, #20
 80027cc:	af00      	add	r7, sp, #0
 80027ce:	6078      	str	r0, [r7, #4]
 80027d0:	6039      	str	r1, [r7, #0]
	struct PAC_Control_Vector *NEW_Element= malloc(sizeof(struct PAC_Control_Vector));
 80027d2:	2010      	movs	r0, #16
 80027d4:	f006 fa60 	bl	8008c98 <malloc>
 80027d8:	4603      	mov	r3, r0
 80027da:	60bb      	str	r3, [r7, #8]
	*NEW_Element=*element;
 80027dc:	68ba      	ldr	r2, [r7, #8]
 80027de:	683b      	ldr	r3, [r7, #0]
 80027e0:	4614      	mov	r4, r2
 80027e2:	cb0f      	ldmia	r3, {r0, r1, r2, r3}
 80027e4:	e884 000f 	stmia.w	r4, {r0, r1, r2, r3}
	NEW_Element->next=NULL;
 80027e8:	68bb      	ldr	r3, [r7, #8]
 80027ea:	2200      	movs	r2, #0
 80027ec:	601a      	str	r2, [r3, #0]
	if(self->PAC_Control_Vector_Head==NULL){
 80027ee:	687b      	ldr	r3, [r7, #4]
 80027f0:	685b      	ldr	r3, [r3, #4]
 80027f2:	2b00      	cmp	r3, #0
 80027f4:	d103      	bne.n	80027fe <PAC_Control_Vector_Create+0x36>
		self->PAC_Control_Vector_Head=NEW_Element;
 80027f6:	687b      	ldr	r3, [r7, #4]
 80027f8:	68ba      	ldr	r2, [r7, #8]
 80027fa:	605a      	str	r2, [r3, #4]
 80027fc:	e00d      	b.n	800281a <PAC_Control_Vector_Create+0x52>
	}else{
		struct PAC_Control_Vector *now=self->PAC_Control_Vector_Head;
 80027fe:	687b      	ldr	r3, [r7, #4]
 8002800:	685b      	ldr	r3, [r3, #4]
 8002802:	60fb      	str	r3, [r7, #12]
		while(now->next!=NULL){
 8002804:	e002      	b.n	800280c <PAC_Control_Vector_Create+0x44>
			now=now->next;
 8002806:	68fb      	ldr	r3, [r7, #12]
 8002808:	681b      	ldr	r3, [r3, #0]
 800280a:	60fb      	str	r3, [r7, #12]
		while(now->next!=NULL){
 800280c:	68fb      	ldr	r3, [r7, #12]
 800280e:	681b      	ldr	r3, [r3, #0]
 8002810:	2b00      	cmp	r3, #0
 8002812:	d1f8      	bne.n	8002806 <PAC_Control_Vector_Create+0x3e>
		}
		now->next=NEW_Element;
 8002814:	68fb      	ldr	r3, [r7, #12]
 8002816:	68ba      	ldr	r2, [r7, #8]
 8002818:	601a      	str	r2, [r3, #0]
	}
	return NEW_Element;
 800281a:	68bb      	ldr	r3, [r7, #8]
}
 800281c:	4618      	mov	r0, r3
 800281e:	3714      	adds	r7, #20
 8002820:	46bd      	mov	sp, r7
 8002822:	bd90      	pop	{r4, r7, pc}

08002824 <PAC_Control_Vector_PIN_Reset>:
//---------------------------------------------------------------------------------
void PAC_Control_Vector_PIN_Reset(struct PAC_Control_Vector *self){
 8002824:	b580      	push	{r7, lr}
 8002826:	b082      	sub	sp, #8
 8002828:	af00      	add	r7, sp, #0
 800282a:	6078      	str	r0, [r7, #4]
	while(self!=NULL){
 800282c:	e00a      	b.n	8002844 <PAC_Control_Vector_PIN_Reset+0x20>
		HAL_GPIO_WritePin(self->GPIO, self->PIN, GPIO_PIN_RESET);
 800282e:	687b      	ldr	r3, [r7, #4]
 8002830:	6898      	ldr	r0, [r3, #8]
 8002832:	687b      	ldr	r3, [r7, #4]
 8002834:	889b      	ldrh	r3, [r3, #4]
 8002836:	2200      	movs	r2, #0
 8002838:	4619      	mov	r1, r3
 800283a:	f004 f806 	bl	800684a <HAL_GPIO_WritePin>
		self=self->next;
 800283e:	687b      	ldr	r3, [r7, #4]
 8002840:	681b      	ldr	r3, [r3, #0]
 8002842:	607b      	str	r3, [r7, #4]
	while(self!=NULL){
 8002844:	687b      	ldr	r3, [r7, #4]
 8002846:	2b00      	cmp	r3, #0
 8002848:	d1f1      	bne.n	800282e <PAC_Control_Vector_PIN_Reset+0xa>
	}
}
 800284a:	bf00      	nop
 800284c:	bf00      	nop
 800284e:	3708      	adds	r7, #8
 8002850:	46bd      	mov	sp, r7
 8002852:	bd80      	pop	{r7, pc}

08002854 <PAC_Controll_Callback>:
//---------------------------------------------------------------------------------
void PAC_Controll_Callback(struct PAC *self){
 8002854:	b580      	push	{r7, lr}
 8002856:	b084      	sub	sp, #16
 8002858:	af00      	add	r7, sp, #0
 800285a:	6078      	str	r0, [r7, #4]
	struct PAC_Control_Vector *now=self->PAC_Control_Vector_Head;
 800285c:	687b      	ldr	r3, [r7, #4]
 800285e:	685b      	ldr	r3, [r3, #4]
 8002860:	60fb      	str	r3, [r7, #12]
	do{
		if(now->State==PAC_Control_ON){
 8002862:	68fb      	ldr	r3, [r7, #12]
 8002864:	7b9b      	ldrb	r3, [r3, #14]
 8002866:	2b01      	cmp	r3, #1
 8002868:	d125      	bne.n	80028b6 <PAC_Controll_Callback+0x62>
			if(self->ZCD->TIM_Counter==(self->ZCD->MAX_TIM_Counter-now->Control_Value)){
 800286a:	687b      	ldr	r3, [r7, #4]
 800286c:	681b      	ldr	r3, [r3, #0]
 800286e:	889b      	ldrh	r3, [r3, #4]
 8002870:	461a      	mov	r2, r3
 8002872:	687b      	ldr	r3, [r7, #4]
 8002874:	681b      	ldr	r3, [r3, #0]
 8002876:	88db      	ldrh	r3, [r3, #6]
 8002878:	4619      	mov	r1, r3
 800287a:	68fb      	ldr	r3, [r7, #12]
 800287c:	899b      	ldrh	r3, [r3, #12]
 800287e:	1acb      	subs	r3, r1, r3
 8002880:	429a      	cmp	r2, r3
 8002882:	d108      	bne.n	8002896 <PAC_Controll_Callback+0x42>
				HAL_GPIO_WritePin(now->GPIO, now->PIN, GPIO_PIN_SET);
 8002884:	68fb      	ldr	r3, [r7, #12]
 8002886:	6898      	ldr	r0, [r3, #8]
 8002888:	68fb      	ldr	r3, [r7, #12]
 800288a:	889b      	ldrh	r3, [r3, #4]
 800288c:	2201      	movs	r2, #1
 800288e:	4619      	mov	r1, r3
 8002890:	f003 ffdb 	bl	800684a <HAL_GPIO_WritePin>
 8002894:	e00f      	b.n	80028b6 <PAC_Controll_Callback+0x62>
			}else if(self->ZCD->TIM_Counter>=self->ZCD->MAX_TIM_Counter){
 8002896:	687b      	ldr	r3, [r7, #4]
 8002898:	681b      	ldr	r3, [r3, #0]
 800289a:	889a      	ldrh	r2, [r3, #4]
 800289c:	687b      	ldr	r3, [r7, #4]
 800289e:	681b      	ldr	r3, [r3, #0]
 80028a0:	88db      	ldrh	r3, [r3, #6]
 80028a2:	429a      	cmp	r2, r3
 80028a4:	d307      	bcc.n	80028b6 <PAC_Controll_Callback+0x62>
				HAL_GPIO_WritePin(now->GPIO, now->PIN, GPIO_PIN_RESET);
 80028a6:	68fb      	ldr	r3, [r7, #12]
 80028a8:	6898      	ldr	r0, [r3, #8]
 80028aa:	68fb      	ldr	r3, [r7, #12]
 80028ac:	889b      	ldrh	r3, [r3, #4]
 80028ae:	2200      	movs	r2, #0
 80028b0:	4619      	mov	r1, r3
 80028b2:	f003 ffca 	bl	800684a <HAL_GPIO_WritePin>
			}
		}
		now=now->next;
 80028b6:	68fb      	ldr	r3, [r7, #12]
 80028b8:	681b      	ldr	r3, [r3, #0]
 80028ba:	60fb      	str	r3, [r7, #12]
	}while(now!=NULL);
 80028bc:	68fb      	ldr	r3, [r7, #12]
 80028be:	2b00      	cmp	r3, #0
 80028c0:	d1cf      	bne.n	8002862 <PAC_Controll_Callback+0xe>
}
 80028c2:	bf00      	nop
 80028c4:	bf00      	nop
 80028c6:	3710      	adds	r7, #16
 80028c8:	46bd      	mov	sp, r7
 80028ca:	bd80      	pop	{r7, pc}

080028cc <ZCD_Falling_Adge_Callback>:
//---------------------------------------------------------------------------------
void ZCD_Falling_Adge_Callback(struct PAC *self){
 80028cc:	b480      	push	{r7}
 80028ce:	b083      	sub	sp, #12
 80028d0:	af00      	add	r7, sp, #0
 80028d2:	6078      	str	r0, [r7, #4]
	if(self->ZCD->State==ZCD_STATE_SETUP){
 80028d4:	687b      	ldr	r3, [r7, #4]
 80028d6:	681b      	ldr	r3, [r3, #0]
 80028d8:	785b      	ldrb	r3, [r3, #1]
 80028da:	2b02      	cmp	r3, #2
 80028dc:	d105      	bne.n	80028ea <ZCD_Falling_Adge_Callback+0x1e>
		self->ZCD->Frequency_Counter++;
 80028de:	687b      	ldr	r3, [r7, #4]
 80028e0:	681b      	ldr	r3, [r3, #0]
 80028e2:	78da      	ldrb	r2, [r3, #3]
 80028e4:	3201      	adds	r2, #1
 80028e6:	b2d2      	uxtb	r2, r2
 80028e8:	70da      	strb	r2, [r3, #3]
	}
	self->ZCD->TIM_Counter=0;
 80028ea:	687b      	ldr	r3, [r7, #4]
 80028ec:	681b      	ldr	r3, [r3, #0]
 80028ee:	2200      	movs	r2, #0
 80028f0:	809a      	strh	r2, [r3, #4]
}
 80028f2:	bf00      	nop
 80028f4:	370c      	adds	r7, #12
 80028f6:	46bd      	mov	sp, r7
 80028f8:	bc80      	pop	{r7}
 80028fa:	4770      	bx	lr

080028fc <ZCD_Rising_Adge_Callback>:
//---------------------------------------------------------------------------------
void ZCD_Rising_Adge_Callback(struct PAC *self){
 80028fc:	b580      	push	{r7, lr}
 80028fe:	b082      	sub	sp, #8
 8002900:	af00      	add	r7, sp, #0
 8002902:	6078      	str	r0, [r7, #4]
	if(self->ZCD->State==ZCD_STATE_SETUP){
 8002904:	687b      	ldr	r3, [r7, #4]
 8002906:	681b      	ldr	r3, [r3, #0]
 8002908:	785b      	ldrb	r3, [r3, #1]
 800290a:	2b02      	cmp	r3, #2
 800290c:	d115      	bne.n	800293a <ZCD_Rising_Adge_Callback+0x3e>
		if(self->ZCD->Frequency!=0){
 800290e:	687b      	ldr	r3, [r7, #4]
 8002910:	681b      	ldr	r3, [r3, #0]
 8002912:	789b      	ldrb	r3, [r3, #2]
 8002914:	2b00      	cmp	r3, #0
 8002916:	d010      	beq.n	800293a <ZCD_Rising_Adge_Callback+0x3e>
			self->ZCD->MAX_TIM_Counter=self->ZCD->TIM_Counter-3;
 8002918:	687b      	ldr	r3, [r7, #4]
 800291a:	681b      	ldr	r3, [r3, #0]
 800291c:	889a      	ldrh	r2, [r3, #4]
 800291e:	687b      	ldr	r3, [r7, #4]
 8002920:	681b      	ldr	r3, [r3, #0]
 8002922:	3a03      	subs	r2, #3
 8002924:	b292      	uxth	r2, r2
 8002926:	80da      	strh	r2, [r3, #6]
			ZCD_ON_Callback(self->ZCD);
 8002928:	687b      	ldr	r3, [r7, #4]
 800292a:	681b      	ldr	r3, [r3, #0]
 800292c:	4618      	mov	r0, r3
 800292e:	f000 ff0f 	bl	8003750 <ZCD_ON_Callback>
			self->ZCD->State=ZCD_STATE_ON;
 8002932:	687b      	ldr	r3, [r7, #4]
 8002934:	681b      	ldr	r3, [r3, #0]
 8002936:	2201      	movs	r2, #1
 8002938:	705a      	strb	r2, [r3, #1]
		}
	}
	PAC_Control_Vector_PIN_Reset(self->PAC_Control_Vector_Head);
 800293a:	687b      	ldr	r3, [r7, #4]
 800293c:	685b      	ldr	r3, [r3, #4]
 800293e:	4618      	mov	r0, r3
 8002940:	f7ff ff70 	bl	8002824 <PAC_Control_Vector_PIN_Reset>
}
 8002944:	bf00      	nop
 8002946:	3708      	adds	r7, #8
 8002948:	46bd      	mov	sp, r7
 800294a:	bd80      	pop	{r7, pc}

0800294c <ZCD_ini>:
//---------------------------------------------------------------------------------
void ZCD_ini(struct ZCD *self){
 800294c:	b480      	push	{r7}
 800294e:	b083      	sub	sp, #12
 8002950:	af00      	add	r7, sp, #0
 8002952:	6078      	str	r0, [r7, #4]
	self->Pin_State_Now=0;
 8002954:	687a      	ldr	r2, [r7, #4]
 8002956:	7813      	ldrb	r3, [r2, #0]
 8002958:	f36f 0300 	bfc	r3, #0, #1
 800295c:	7013      	strb	r3, [r2, #0]
	self->Pin_State_Prew=0;
 800295e:	687a      	ldr	r2, [r7, #4]
 8002960:	7813      	ldrb	r3, [r2, #0]
 8002962:	f36f 0341 	bfc	r3, #1, #1
 8002966:	7013      	strb	r3, [r2, #0]
	self->Frequency=0;
 8002968:	687b      	ldr	r3, [r7, #4]
 800296a:	2200      	movs	r2, #0
 800296c:	709a      	strb	r2, [r3, #2]
	self->MAX_TIM_Counter=0;
 800296e:	687b      	ldr	r3, [r7, #4]
 8002970:	2200      	movs	r2, #0
 8002972:	80da      	strh	r2, [r3, #6]
	self->TIM_Counter=0;
 8002974:	687b      	ldr	r3, [r7, #4]
 8002976:	2200      	movs	r2, #0
 8002978:	809a      	strh	r2, [r3, #4]
}
 800297a:	bf00      	nop
 800297c:	370c      	adds	r7, #12
 800297e:	46bd      	mov	sp, r7
 8002980:	bc80      	pop	{r7}
 8002982:	4770      	bx	lr

08002984 <ZCD_OFF>:
//---------------------------------------------------------------------------------
void ZCD_OFF(struct ZCD *self){
 8002984:	b480      	push	{r7}
 8002986:	b083      	sub	sp, #12
 8002988:	af00      	add	r7, sp, #0
 800298a:	6078      	str	r0, [r7, #4]
	self->State=ZCD_STATE_OFF;
 800298c:	687b      	ldr	r3, [r7, #4]
 800298e:	2200      	movs	r2, #0
 8002990:	705a      	strb	r2, [r3, #1]
	self->Frequency=0;
 8002992:	687b      	ldr	r3, [r7, #4]
 8002994:	2200      	movs	r2, #0
 8002996:	709a      	strb	r2, [r3, #2]
}
 8002998:	bf00      	nop
 800299a:	370c      	adds	r7, #12
 800299c:	46bd      	mov	sp, r7
 800299e:	bc80      	pop	{r7}
 80029a0:	4770      	bx	lr

080029a2 <ZCD_ON>:
//---------------------------------------------------------------------------------
void ZCD_ON(struct ZCD *self){
 80029a2:	b480      	push	{r7}
 80029a4:	b083      	sub	sp, #12
 80029a6:	af00      	add	r7, sp, #0
 80029a8:	6078      	str	r0, [r7, #4]
	self->State=ZCD_STATE_SETUP;
 80029aa:	687b      	ldr	r3, [r7, #4]
 80029ac:	2202      	movs	r2, #2
 80029ae:	705a      	strb	r2, [r3, #1]
}
 80029b0:	bf00      	nop
 80029b2:	370c      	adds	r7, #12
 80029b4:	46bd      	mov	sp, r7
 80029b6:	bc80      	pop	{r7}
 80029b8:	4770      	bx	lr

080029ba <PAC_ON>:
//---------------------------------------------------------------------------------
void PAC_ON(struct PAC *self){
 80029ba:	b580      	push	{r7, lr}
 80029bc:	b082      	sub	sp, #8
 80029be:	af00      	add	r7, sp, #0
 80029c0:	6078      	str	r0, [r7, #4]
	if(self->ZCD->State==ZCD_STATE_OFF){
 80029c2:	687b      	ldr	r3, [r7, #4]
 80029c4:	681b      	ldr	r3, [r3, #0]
 80029c6:	785b      	ldrb	r3, [r3, #1]
 80029c8:	2b00      	cmp	r3, #0
 80029ca:	d109      	bne.n	80029e0 <PAC_ON+0x26>
		ZCD_ini(self->ZCD);
 80029cc:	687b      	ldr	r3, [r7, #4]
 80029ce:	681b      	ldr	r3, [r3, #0]
 80029d0:	4618      	mov	r0, r3
 80029d2:	f7ff ffbb 	bl	800294c <ZCD_ini>
		ZCD_ON(self->ZCD);
 80029d6:	687b      	ldr	r3, [r7, #4]
 80029d8:	681b      	ldr	r3, [r3, #0]
 80029da:	4618      	mov	r0, r3
 80029dc:	f7ff ffe1 	bl	80029a2 <ZCD_ON>
	}
}
 80029e0:	bf00      	nop
 80029e2:	3708      	adds	r7, #8
 80029e4:	46bd      	mov	sp, r7
 80029e6:	bd80      	pop	{r7, pc}

080029e8 <PAC_OFF>:
//---------------------------------------------------------------------------------
void PAC_OFF(struct PAC *self){
 80029e8:	b580      	push	{r7, lr}
 80029ea:	b084      	sub	sp, #16
 80029ec:	af00      	add	r7, sp, #0
 80029ee:	6078      	str	r0, [r7, #4]

	struct PAC_Control_Vector *now;
	uint8_t State=0;
 80029f0:	2300      	movs	r3, #0
 80029f2:	72fb      	strb	r3, [r7, #11]
	now=self->PAC_Control_Vector_Head;
 80029f4:	687b      	ldr	r3, [r7, #4]
 80029f6:	685b      	ldr	r3, [r3, #4]
 80029f8:	60fb      	str	r3, [r7, #12]

	while(now!=NULL){
 80029fa:	e013      	b.n	8002a24 <PAC_OFF+0x3c>
		State|=now->State;
 80029fc:	68fb      	ldr	r3, [r7, #12]
 80029fe:	7b9a      	ldrb	r2, [r3, #14]
 8002a00:	7afb      	ldrb	r3, [r7, #11]
 8002a02:	4313      	orrs	r3, r2
 8002a04:	72fb      	strb	r3, [r7, #11]
		if(now->State==PAC_Control_OFF)
 8002a06:	68fb      	ldr	r3, [r7, #12]
 8002a08:	7b9b      	ldrb	r3, [r3, #14]
 8002a0a:	2b00      	cmp	r3, #0
 8002a0c:	d107      	bne.n	8002a1e <PAC_OFF+0x36>
			HAL_GPIO_WritePin(now->GPIO, now->PIN, GPIO_PIN_RESET);
 8002a0e:	68fb      	ldr	r3, [r7, #12]
 8002a10:	6898      	ldr	r0, [r3, #8]
 8002a12:	68fb      	ldr	r3, [r7, #12]
 8002a14:	889b      	ldrh	r3, [r3, #4]
 8002a16:	2200      	movs	r2, #0
 8002a18:	4619      	mov	r1, r3
 8002a1a:	f003 ff16 	bl	800684a <HAL_GPIO_WritePin>
		now=now->next;
 8002a1e:	68fb      	ldr	r3, [r7, #12]
 8002a20:	681b      	ldr	r3, [r3, #0]
 8002a22:	60fb      	str	r3, [r7, #12]
	while(now!=NULL){
 8002a24:	68fb      	ldr	r3, [r7, #12]
 8002a26:	2b00      	cmp	r3, #0
 8002a28:	d1e8      	bne.n	80029fc <PAC_OFF+0x14>
	}
	if(State==PAC_Control_OFF){
 8002a2a:	7afb      	ldrb	r3, [r7, #11]
 8002a2c:	2b00      	cmp	r3, #0
 8002a2e:	d104      	bne.n	8002a3a <PAC_OFF+0x52>
		ZCD_OFF(self->ZCD);
 8002a30:	687b      	ldr	r3, [r7, #4]
 8002a32:	681b      	ldr	r3, [r3, #0]
 8002a34:	4618      	mov	r0, r3
 8002a36:	f7ff ffa5 	bl	8002984 <ZCD_OFF>
	}

}
 8002a3a:	bf00      	nop
 8002a3c:	3710      	adds	r7, #16
 8002a3e:	46bd      	mov	sp, r7
 8002a40:	bd80      	pop	{r7, pc}

08002a42 <PAC_EXTI>:
//---------------------------------------------------------------------------------
uint8_t PAC_EXTI(struct PAC *self,uint16_t *GPIO){
 8002a42:	b580      	push	{r7, lr}
 8002a44:	b082      	sub	sp, #8
 8002a46:	af00      	add	r7, sp, #0
 8002a48:	6078      	str	r0, [r7, #4]
 8002a4a:	6039      	str	r1, [r7, #0]
	if(self->ZCD->State!=ZCD_STATE_OFF){
 8002a4c:	687b      	ldr	r3, [r7, #4]
 8002a4e:	681b      	ldr	r3, [r3, #0]
 8002a50:	785b      	ldrb	r3, [r3, #1]
 8002a52:	2b00      	cmp	r3, #0
 8002a54:	d047      	beq.n	8002ae6 <PAC_EXTI+0xa4>
		if(*GPIO==self->ZCD->EXTI_PIN){
 8002a56:	683b      	ldr	r3, [r7, #0]
 8002a58:	881a      	ldrh	r2, [r3, #0]
 8002a5a:	687b      	ldr	r3, [r7, #4]
 8002a5c:	681b      	ldr	r3, [r3, #0]
 8002a5e:	891b      	ldrh	r3, [r3, #8]
 8002a60:	429a      	cmp	r2, r3
 8002a62:	d140      	bne.n	8002ae6 <PAC_EXTI+0xa4>
			self->ZCD->Pin_State_Now=HAL_GPIO_ReadPin(self->ZCD->GPIO,self->ZCD->EXTI_PIN);
 8002a64:	687b      	ldr	r3, [r7, #4]
 8002a66:	681b      	ldr	r3, [r3, #0]
 8002a68:	68da      	ldr	r2, [r3, #12]
 8002a6a:	687b      	ldr	r3, [r7, #4]
 8002a6c:	681b      	ldr	r3, [r3, #0]
 8002a6e:	891b      	ldrh	r3, [r3, #8]
 8002a70:	4619      	mov	r1, r3
 8002a72:	4610      	mov	r0, r2
 8002a74:	f003 fed2 	bl	800681c <HAL_GPIO_ReadPin>
 8002a78:	4603      	mov	r3, r0
 8002a7a:	4619      	mov	r1, r3
 8002a7c:	687b      	ldr	r3, [r7, #4]
 8002a7e:	681a      	ldr	r2, [r3, #0]
 8002a80:	460b      	mov	r3, r1
 8002a82:	f003 0301 	and.w	r3, r3, #1
 8002a86:	b2d9      	uxtb	r1, r3
 8002a88:	7813      	ldrb	r3, [r2, #0]
 8002a8a:	f361 0300 	bfi	r3, r1, #0, #1
 8002a8e:	7013      	strb	r3, [r2, #0]
			if(self->ZCD->Pin_State_Now!=self->ZCD->Pin_State_Prew){
 8002a90:	687b      	ldr	r3, [r7, #4]
 8002a92:	681b      	ldr	r3, [r3, #0]
 8002a94:	781b      	ldrb	r3, [r3, #0]
 8002a96:	f3c3 0300 	ubfx	r3, r3, #0, #1
 8002a9a:	b2da      	uxtb	r2, r3
 8002a9c:	687b      	ldr	r3, [r7, #4]
 8002a9e:	681b      	ldr	r3, [r3, #0]
 8002aa0:	781b      	ldrb	r3, [r3, #0]
 8002aa2:	f3c3 0340 	ubfx	r3, r3, #1, #1
 8002aa6:	b2db      	uxtb	r3, r3
 8002aa8:	429a      	cmp	r2, r3
 8002aaa:	d00e      	beq.n	8002aca <PAC_EXTI+0x88>
				if(self->ZCD->Pin_State_Now==GPIO_PIN_RESET){
 8002aac:	687b      	ldr	r3, [r7, #4]
 8002aae:	681b      	ldr	r3, [r3, #0]
 8002ab0:	781b      	ldrb	r3, [r3, #0]
 8002ab2:	f003 0301 	and.w	r3, r3, #1
 8002ab6:	b2db      	uxtb	r3, r3
 8002ab8:	2b00      	cmp	r3, #0
 8002aba:	d103      	bne.n	8002ac4 <PAC_EXTI+0x82>
					ZCD_Falling_Adge_Callback(self);
 8002abc:	6878      	ldr	r0, [r7, #4]
 8002abe:	f7ff ff05 	bl	80028cc <ZCD_Falling_Adge_Callback>
 8002ac2:	e002      	b.n	8002aca <PAC_EXTI+0x88>
				}
				else{
					ZCD_Rising_Adge_Callback(self);
 8002ac4:	6878      	ldr	r0, [r7, #4]
 8002ac6:	f7ff ff19 	bl	80028fc <ZCD_Rising_Adge_Callback>
				}
			}
			self->ZCD->Pin_State_Prew=self->ZCD->Pin_State_Now;
 8002aca:	687b      	ldr	r3, [r7, #4]
 8002acc:	681b      	ldr	r3, [r3, #0]
 8002ace:	687a      	ldr	r2, [r7, #4]
 8002ad0:	6812      	ldr	r2, [r2, #0]
 8002ad2:	781b      	ldrb	r3, [r3, #0]
 8002ad4:	f3c3 0300 	ubfx	r3, r3, #0, #1
 8002ad8:	b2d9      	uxtb	r1, r3
 8002ada:	7813      	ldrb	r3, [r2, #0]
 8002adc:	f361 0341 	bfi	r3, r1, #1, #1
 8002ae0:	7013      	strb	r3, [r2, #0]
			return 1;
 8002ae2:	2301      	movs	r3, #1
 8002ae4:	e000      	b.n	8002ae8 <PAC_EXTI+0xa6>
		}
	}
	return 0;
 8002ae6:	2300      	movs	r3, #0
}
 8002ae8:	4618      	mov	r0, r3
 8002aea:	3708      	adds	r7, #8
 8002aec:	46bd      	mov	sp, r7
 8002aee:	bd80      	pop	{r7, pc}

08002af0 <PAC_it>:
//---------------------------------------------------------------------------------
void PAC_it(struct PAC *self){
 8002af0:	b580      	push	{r7, lr}
 8002af2:	b082      	sub	sp, #8
 8002af4:	af00      	add	r7, sp, #0
 8002af6:	6078      	str	r0, [r7, #4]
	static uint16_t count=0;
	if(self->ZCD->State!=ZCD_STATE_OFF){
 8002af8:	687b      	ldr	r3, [r7, #4]
 8002afa:	681b      	ldr	r3, [r3, #0]
 8002afc:	785b      	ldrb	r3, [r3, #1]
 8002afe:	2b00      	cmp	r3, #0
 8002b00:	d025      	beq.n	8002b4e <PAC_it+0x5e>
		if(self->ZCD->State==ZCD_STATE_SETUP){
 8002b02:	687b      	ldr	r3, [r7, #4]
 8002b04:	681b      	ldr	r3, [r3, #0]
 8002b06:	785b      	ldrb	r3, [r3, #1]
 8002b08:	2b02      	cmp	r3, #2
 8002b0a:	d117      	bne.n	8002b3c <PAC_it+0x4c>
			if(count++==9999){
 8002b0c:	4b12      	ldr	r3, [pc, #72]	; (8002b58 <PAC_it+0x68>)
 8002b0e:	881b      	ldrh	r3, [r3, #0]
 8002b10:	1c5a      	adds	r2, r3, #1
 8002b12:	b291      	uxth	r1, r2
 8002b14:	4a10      	ldr	r2, [pc, #64]	; (8002b58 <PAC_it+0x68>)
 8002b16:	8011      	strh	r1, [r2, #0]
 8002b18:	f242 720f 	movw	r2, #9999	; 0x270f
 8002b1c:	4293      	cmp	r3, r2
 8002b1e:	d110      	bne.n	8002b42 <PAC_it+0x52>
				self->ZCD->Frequency=self->ZCD->Frequency_Counter;
 8002b20:	687b      	ldr	r3, [r7, #4]
 8002b22:	681a      	ldr	r2, [r3, #0]
 8002b24:	687b      	ldr	r3, [r7, #4]
 8002b26:	681b      	ldr	r3, [r3, #0]
 8002b28:	78d2      	ldrb	r2, [r2, #3]
 8002b2a:	709a      	strb	r2, [r3, #2]
				self->ZCD->Frequency_Counter=0;
 8002b2c:	687b      	ldr	r3, [r7, #4]
 8002b2e:	681b      	ldr	r3, [r3, #0]
 8002b30:	2200      	movs	r2, #0
 8002b32:	70da      	strb	r2, [r3, #3]
				count=0;
 8002b34:	4b08      	ldr	r3, [pc, #32]	; (8002b58 <PAC_it+0x68>)
 8002b36:	2200      	movs	r2, #0
 8002b38:	801a      	strh	r2, [r3, #0]
 8002b3a:	e002      	b.n	8002b42 <PAC_it+0x52>
			}
		}else{
			PAC_Controll_Callback(self);
 8002b3c:	6878      	ldr	r0, [r7, #4]
 8002b3e:	f7ff fe89 	bl	8002854 <PAC_Controll_Callback>
		}
		self->ZCD->TIM_Counter++;
 8002b42:	687b      	ldr	r3, [r7, #4]
 8002b44:	681b      	ldr	r3, [r3, #0]
 8002b46:	889a      	ldrh	r2, [r3, #4]
 8002b48:	3201      	adds	r2, #1
 8002b4a:	b292      	uxth	r2, r2
 8002b4c:	809a      	strh	r2, [r3, #4]
	}
}
 8002b4e:	bf00      	nop
 8002b50:	3708      	adds	r7, #8
 8002b52:	46bd      	mov	sp, r7
 8002b54:	bd80      	pop	{r7, pc}
 8002b56:	bf00      	nop
 8002b58:	20000586 	.word	0x20000586

08002b5c <PID_ini>:
 8002b5c:	b480      	push	{r7}
 8002b5e:	b083      	sub	sp, #12
 8002b60:	af00      	add	r7, sp, #0
 8002b62:	6078      	str	r0, [r7, #4]
 8002b64:	687b      	ldr	r3, [r7, #4]
 8002b66:	f04f 0200 	mov.w	r2, #0
 8002b6a:	619a      	str	r2, [r3, #24]
 8002b6c:	687b      	ldr	r3, [r7, #4]
 8002b6e:	f04f 0200 	mov.w	r2, #0
 8002b72:	615a      	str	r2, [r3, #20]
 8002b74:	bf00      	nop
 8002b76:	370c      	adds	r7, #12
 8002b78:	46bd      	mov	sp, r7
 8002b7a:	bc80      	pop	{r7}
 8002b7c:	4770      	bx	lr
	...

08002b80 <PID_it>:
 8002b80:	b590      	push	{r4, r7, lr}
 8002b82:	b087      	sub	sp, #28
 8002b84:	af00      	add	r7, sp, #0
 8002b86:	6078      	str	r0, [r7, #4]
 8002b88:	687b      	ldr	r3, [r7, #4]
 8002b8a:	69da      	ldr	r2, [r3, #28]
 8002b8c:	687b      	ldr	r3, [r7, #4]
 8002b8e:	6a1b      	ldr	r3, [r3, #32]
 8002b90:	4619      	mov	r1, r3
 8002b92:	4610      	mov	r0, r2
 8002b94:	f7fd fae6 	bl	8000164 <__aeabi_fsub>
 8002b98:	4603      	mov	r3, r0
 8002b9a:	617b      	str	r3, [r7, #20]
 8002b9c:	687b      	ldr	r3, [r7, #4]
 8002b9e:	695c      	ldr	r4, [r3, #20]
 8002ba0:	687b      	ldr	r3, [r7, #4]
 8002ba2:	68db      	ldr	r3, [r3, #12]
 8002ba4:	6979      	ldr	r1, [r7, #20]
 8002ba6:	4618      	mov	r0, r3
 8002ba8:	f7fd fbe6 	bl	8000378 <__aeabi_fmul>
 8002bac:	4603      	mov	r3, r0
 8002bae:	4619      	mov	r1, r3
 8002bb0:	4620      	mov	r0, r4
 8002bb2:	f7fd fad9 	bl	8000168 <__addsf3>
 8002bb6:	4603      	mov	r3, r0
 8002bb8:	461a      	mov	r2, r3
 8002bba:	687b      	ldr	r3, [r7, #4]
 8002bbc:	615a      	str	r2, [r3, #20]
 8002bbe:	687b      	ldr	r3, [r7, #4]
 8002bc0:	699b      	ldr	r3, [r3, #24]
 8002bc2:	4619      	mov	r1, r3
 8002bc4:	6978      	ldr	r0, [r7, #20]
 8002bc6:	f7fd facd 	bl	8000164 <__aeabi_fsub>
 8002bca:	4603      	mov	r3, r0
 8002bcc:	461a      	mov	r2, r3
 8002bce:	687b      	ldr	r3, [r7, #4]
 8002bd0:	68db      	ldr	r3, [r3, #12]
 8002bd2:	4619      	mov	r1, r3
 8002bd4:	4610      	mov	r0, r2
 8002bd6:	f7fd fc83 	bl	80004e0 <__aeabi_fdiv>
 8002bda:	4603      	mov	r3, r0
 8002bdc:	613b      	str	r3, [r7, #16]
 8002bde:	687b      	ldr	r3, [r7, #4]
 8002be0:	697a      	ldr	r2, [r7, #20]
 8002be2:	619a      	str	r2, [r3, #24]
 8002be4:	687b      	ldr	r3, [r7, #4]
 8002be6:	681b      	ldr	r3, [r3, #0]
 8002be8:	6979      	ldr	r1, [r7, #20]
 8002bea:	4618      	mov	r0, r3
 8002bec:	f7fd fbc4 	bl	8000378 <__aeabi_fmul>
 8002bf0:	4603      	mov	r3, r0
 8002bf2:	461c      	mov	r4, r3
 8002bf4:	687b      	ldr	r3, [r7, #4]
 8002bf6:	695a      	ldr	r2, [r3, #20]
 8002bf8:	687b      	ldr	r3, [r7, #4]
 8002bfa:	685b      	ldr	r3, [r3, #4]
 8002bfc:	4619      	mov	r1, r3
 8002bfe:	4610      	mov	r0, r2
 8002c00:	f7fd fbba 	bl	8000378 <__aeabi_fmul>
 8002c04:	4603      	mov	r3, r0
 8002c06:	4619      	mov	r1, r3
 8002c08:	4620      	mov	r0, r4
 8002c0a:	f7fd faad 	bl	8000168 <__addsf3>
 8002c0e:	4603      	mov	r3, r0
 8002c10:	461c      	mov	r4, r3
 8002c12:	687b      	ldr	r3, [r7, #4]
 8002c14:	689b      	ldr	r3, [r3, #8]
 8002c16:	6939      	ldr	r1, [r7, #16]
 8002c18:	4618      	mov	r0, r3
 8002c1a:	f7fd fbad 	bl	8000378 <__aeabi_fmul>
 8002c1e:	4603      	mov	r3, r0
 8002c20:	4619      	mov	r1, r3
 8002c22:	4620      	mov	r0, r4
 8002c24:	f7fd faa0 	bl	8000168 <__addsf3>
 8002c28:	4603      	mov	r3, r0
 8002c2a:	60fb      	str	r3, [r7, #12]
 8002c2c:	687b      	ldr	r3, [r7, #4]
 8002c2e:	6a1a      	ldr	r2, [r3, #32]
 8002c30:	687b      	ldr	r3, [r7, #4]
 8002c32:	69db      	ldr	r3, [r3, #28]
 8002c34:	4619      	mov	r1, r3
 8002c36:	4610      	mov	r0, r2
 8002c38:	f7fd fa94 	bl	8000164 <__aeabi_fsub>
 8002c3c:	4603      	mov	r3, r0
 8002c3e:	4916      	ldr	r1, [pc, #88]	; (8002c98 <PID_it+0x118>)
 8002c40:	4618      	mov	r0, r3
 8002c42:	f7fd fd55 	bl	80006f0 <__aeabi_fcmpgt>
 8002c46:	4603      	mov	r3, r0
 8002c48:	2b00      	cmp	r3, #0
 8002c4a:	d002      	beq.n	8002c52 <PID_it+0xd2>
 8002c4c:	6878      	ldr	r0, [r7, #4]
 8002c4e:	f7ff ff85 	bl	8002b5c <PID_ini>
 8002c52:	f04f 0100 	mov.w	r1, #0
 8002c56:	68f8      	ldr	r0, [r7, #12]
 8002c58:	f7fd fd2c 	bl	80006b4 <__aeabi_fcmplt>
 8002c5c:	4603      	mov	r3, r0
 8002c5e:	2b00      	cmp	r3, #0
 8002c60:	d001      	beq.n	8002c66 <PID_it+0xe6>
 8002c62:	2300      	movs	r3, #0
 8002c64:	e013      	b.n	8002c8e <PID_it+0x10e>
 8002c66:	687b      	ldr	r3, [r7, #4]
 8002c68:	8a1b      	ldrh	r3, [r3, #16]
 8002c6a:	4618      	mov	r0, r3
 8002c6c:	f7fd fb30 	bl	80002d0 <__aeabi_i2f>
 8002c70:	4603      	mov	r3, r0
 8002c72:	4619      	mov	r1, r3
 8002c74:	68f8      	ldr	r0, [r7, #12]
 8002c76:	f7fd fd27 	bl	80006c8 <__aeabi_fcmple>
 8002c7a:	4603      	mov	r3, r0
 8002c7c:	2b00      	cmp	r3, #0
 8002c7e:	d004      	beq.n	8002c8a <PID_it+0x10a>
 8002c80:	68f8      	ldr	r0, [r7, #12]
 8002c82:	f7fd fd65 	bl	8000750 <__aeabi_f2uiz>
 8002c86:	4603      	mov	r3, r0
 8002c88:	e001      	b.n	8002c8e <PID_it+0x10e>
 8002c8a:	687b      	ldr	r3, [r7, #4]
 8002c8c:	8a1b      	ldrh	r3, [r3, #16]
 8002c8e:	4618      	mov	r0, r3
 8002c90:	371c      	adds	r7, #28
 8002c92:	46bd      	mov	sp, r7
 8002c94:	bd90      	pop	{r4, r7, pc}
 8002c96:	bf00      	nop
 8002c98:	42c80000 	.word	0x42c80000

08002c9c <PID_Set_Point>:
 8002c9c:	b580      	push	{r7, lr}
 8002c9e:	b082      	sub	sp, #8
 8002ca0:	af00      	add	r7, sp, #0
 8002ca2:	6078      	str	r0, [r7, #4]
 8002ca4:	6039      	str	r1, [r7, #0]
 8002ca6:	6838      	ldr	r0, [r7, #0]
 8002ca8:	f7fd fb12 	bl	80002d0 <__aeabi_i2f>
 8002cac:	4602      	mov	r2, r0
 8002cae:	687b      	ldr	r3, [r7, #4]
 8002cb0:	61da      	str	r2, [r3, #28]
 8002cb2:	bf00      	nop
 8002cb4:	3708      	adds	r7, #8
 8002cb6:	46bd      	mov	sp, r7
 8002cb8:	bd80      	pop	{r7, pc}

08002cba <PID_Set_Point_Now>:
 8002cba:	b580      	push	{r7, lr}
 8002cbc:	b082      	sub	sp, #8
 8002cbe:	af00      	add	r7, sp, #0
 8002cc0:	6078      	str	r0, [r7, #4]
 8002cc2:	6039      	str	r1, [r7, #0]
 8002cc4:	6838      	ldr	r0, [r7, #0]
 8002cc6:	f7fd fb03 	bl	80002d0 <__aeabi_i2f>
 8002cca:	4602      	mov	r2, r0
 8002ccc:	687b      	ldr	r3, [r7, #4]
 8002cce:	621a      	str	r2, [r3, #32]
 8002cd0:	bf00      	nop
 8002cd2:	3708      	adds	r7, #8
 8002cd4:	46bd      	mov	sp, r7
 8002cd6:	bd80      	pop	{r7, pc}

08002cd8 <Set_Temperature>:
#include "Soldering_Station.h"
//---------------------------------------------------------------------------------
uint16_t Set_Temperature(uint16_t *Temperature_Set, enum MODE *MODE,struct Temperature_Pressets *Temperature_Pressets, struct Temperature_Corection *Temperature_Corection){
 8002cd8:	b480      	push	{r7}
 8002cda:	b085      	sub	sp, #20
 8002cdc:	af00      	add	r7, sp, #0
 8002cde:	60f8      	str	r0, [r7, #12]
 8002ce0:	60b9      	str	r1, [r7, #8]
 8002ce2:	607a      	str	r2, [r7, #4]
 8002ce4:	603b      	str	r3, [r7, #0]
	 * Temperature_Setresul value;
	 * MODE - MANUAL PRESSET1 PRESSET2 SLEEP
	 * struct Temperature_Pressets *Temperature_Pressets struct wich contain all MODE presets;
	 */

	switch(*MODE){
 8002ce6:	68bb      	ldr	r3, [r7, #8]
 8002ce8:	781b      	ldrb	r3, [r3, #0]
 8002cea:	2b03      	cmp	r3, #3
 8002cec:	d835      	bhi.n	8002d5a <Set_Temperature+0x82>
 8002cee:	a201      	add	r2, pc, #4	; (adr r2, 8002cf4 <Set_Temperature+0x1c>)
 8002cf0:	f852 f023 	ldr.w	pc, [r2, r3, lsl #2]
 8002cf4:	08002d05 	.word	0x08002d05
 8002cf8:	08002d1d 	.word	0x08002d1d
 8002cfc:	08002d35 	.word	0x08002d35
 8002d00:	08002d4d 	.word	0x08002d4d
			case MANUAL:
				*Temperature_Set=Temperature_Pressets->Manual;
 8002d04:	687b      	ldr	r3, [r7, #4]
 8002d06:	881a      	ldrh	r2, [r3, #0]
 8002d08:	68fb      	ldr	r3, [r7, #12]
 8002d0a:	801a      	strh	r2, [r3, #0]
				return (uint16_t)*Temperature_Set+Temperature_Corection->Manual;
 8002d0c:	68fb      	ldr	r3, [r7, #12]
 8002d0e:	881a      	ldrh	r2, [r3, #0]
 8002d10:	683b      	ldr	r3, [r7, #0]
 8002d12:	681b      	ldr	r3, [r3, #0]
 8002d14:	b29b      	uxth	r3, r3
 8002d16:	4413      	add	r3, r2
 8002d18:	b29b      	uxth	r3, r3
 8002d1a:	e01f      	b.n	8002d5c <Set_Temperature+0x84>
				break;
			case PRESSET1:
				*Temperature_Set=Temperature_Pressets->Presset1;
 8002d1c:	687b      	ldr	r3, [r7, #4]
 8002d1e:	885a      	ldrh	r2, [r3, #2]
 8002d20:	68fb      	ldr	r3, [r7, #12]
 8002d22:	801a      	strh	r2, [r3, #0]
				return (uint16_t)*Temperature_Set+Temperature_Corection->Presset1;
 8002d24:	68fb      	ldr	r3, [r7, #12]
 8002d26:	881a      	ldrh	r2, [r3, #0]
 8002d28:	683b      	ldr	r3, [r7, #0]
 8002d2a:	685b      	ldr	r3, [r3, #4]
 8002d2c:	b29b      	uxth	r3, r3
 8002d2e:	4413      	add	r3, r2
 8002d30:	b29b      	uxth	r3, r3
 8002d32:	e013      	b.n	8002d5c <Set_Temperature+0x84>
				break;
			case PRESSET2:
				*Temperature_Set=Temperature_Pressets->Presset2;
 8002d34:	687b      	ldr	r3, [r7, #4]
 8002d36:	889a      	ldrh	r2, [r3, #4]
 8002d38:	68fb      	ldr	r3, [r7, #12]
 8002d3a:	801a      	strh	r2, [r3, #0]
				return (uint16_t)*Temperature_Set+Temperature_Corection->Presset2;
 8002d3c:	68fb      	ldr	r3, [r7, #12]
 8002d3e:	881a      	ldrh	r2, [r3, #0]
 8002d40:	683b      	ldr	r3, [r7, #0]
 8002d42:	689b      	ldr	r3, [r3, #8]
 8002d44:	b29b      	uxth	r3, r3
 8002d46:	4413      	add	r3, r2
 8002d48:	b29b      	uxth	r3, r3
 8002d4a:	e007      	b.n	8002d5c <Set_Temperature+0x84>
				break;
			case SLEEP:
				*Temperature_Set=Temperature_Pressets->Sleep;
 8002d4c:	687b      	ldr	r3, [r7, #4]
 8002d4e:	88da      	ldrh	r2, [r3, #6]
 8002d50:	68fb      	ldr	r3, [r7, #12]
 8002d52:	801a      	strh	r2, [r3, #0]
				return (uint16_t)*Temperature_Set;
 8002d54:	68fb      	ldr	r3, [r7, #12]
 8002d56:	881b      	ldrh	r3, [r3, #0]
 8002d58:	e000      	b.n	8002d5c <Set_Temperature+0x84>
				break;
		}
	return 0;
 8002d5a:	2300      	movs	r3, #0
}
 8002d5c:	4618      	mov	r0, r3
 8002d5e:	3714      	adds	r7, #20
 8002d60:	46bd      	mov	sp, r7
 8002d62:	bc80      	pop	{r7}
 8002d64:	4770      	bx	lr
 8002d66:	bf00      	nop

08002d68 <Solder_Iron_it>:
//---------------------------------------------------------------------------------
void Vibration_Sensor_it(struct Soldering_Iron *self);
//---------------------------------------------------------------------------------
void Solder_Iron_it(struct Soldering_Iron *self){
 8002d68:	b590      	push	{r4, r7, lr}
 8002d6a:	b083      	sub	sp, #12
 8002d6c:	af00      	add	r7, sp, #0
 8002d6e:	6078      	str	r0, [r7, #4]
	/**
	 * PID and Filter iteration for Soldering_Iron
	 */
	Vibration_Sensor_it(self);			// We can read state of Vibration Sensor only when PWM is stopped
 8002d70:	6878      	ldr	r0, [r7, #4]
 8002d72:	f000 f92a 	bl	8002fca <Vibration_Sensor_it>
	Button_it(&self->Full_Power_Button); // We can read state of button only when PWM is stopped
 8002d76:	687b      	ldr	r3, [r7, #4]
 8002d78:	3364      	adds	r3, #100	; 0x64
 8002d7a:	4618      	mov	r0, r3
 8002d7c:	f7fd fe57 	bl	8000a2e <Button_it>
	if(self->State==1){
 8002d80:	687b      	ldr	r3, [r7, #4]
 8002d82:	f893 3092 	ldrb.w	r3, [r3, #146]	; 0x92
 8002d86:	2b01      	cmp	r3, #1
 8002d88:	d120      	bne.n	8002dcc <Solder_Iron_it+0x64>
	  HAL_TIM_PWM_Start(self->PWM_htim, TIM_CHANNEL_4);
 8002d8a:	687b      	ldr	r3, [r7, #4]
 8002d8c:	6fdb      	ldr	r3, [r3, #124]	; 0x7c
 8002d8e:	210c      	movs	r1, #12
 8002d90:	4618      	mov	r0, r3
 8002d92:	f005 f8b9 	bl	8007f08 <HAL_TIM_PWM_Start>
	  PID_Set_Point_Now(&self->PID,(int)(self->Temperature=Filter_Combined(&self->Filter))); //PID it
 8002d96:	687c      	ldr	r4, [r7, #4]
 8002d98:	687b      	ldr	r3, [r7, #4]
 8002d9a:	3324      	adds	r3, #36	; 0x24
 8002d9c:	4618      	mov	r0, r3
 8002d9e:	f7fd fffc 	bl	8000d9a <Filter_Combined>
 8002da2:	4603      	mov	r3, r0
 8002da4:	461a      	mov	r2, r3
 8002da6:	687b      	ldr	r3, [r7, #4]
 8002da8:	f8c3 2088 	str.w	r2, [r3, #136]	; 0x88
 8002dac:	687b      	ldr	r3, [r7, #4]
 8002dae:	f8d3 3088 	ldr.w	r3, [r3, #136]	; 0x88
 8002db2:	4619      	mov	r1, r3
 8002db4:	4620      	mov	r0, r4
 8002db6:	f7ff ff80 	bl	8002cba <PID_Set_Point_Now>
	  self->PWM_htim->Instance->CCR4=PID_it(&self->PID);
 8002dba:	687a      	ldr	r2, [r7, #4]
 8002dbc:	687b      	ldr	r3, [r7, #4]
 8002dbe:	6fdb      	ldr	r3, [r3, #124]	; 0x7c
 8002dc0:	681c      	ldr	r4, [r3, #0]
 8002dc2:	4610      	mov	r0, r2
 8002dc4:	f7ff fedc 	bl	8002b80 <PID_it>
 8002dc8:	4603      	mov	r3, r0
 8002dca:	6423      	str	r3, [r4, #64]	; 0x40
	}
}
 8002dcc:	bf00      	nop
 8002dce:	370c      	adds	r7, #12
 8002dd0:	46bd      	mov	sp, r7
 8002dd2:	bd90      	pop	{r4, r7, pc}

08002dd4 <Solder_Iron_Sleep_Time_Resset>:
//---------------------------------------------------------------------------------
void Solder_Iron_Sleep_Time_Resset(struct Soldering_Iron *self){
 8002dd4:	b480      	push	{r7}
 8002dd6:	b083      	sub	sp, #12
 8002dd8:	af00      	add	r7, sp, #0
 8002dda:	6078      	str	r0, [r7, #4]
	/**
	 * Reset sleep mode timer and if last mode was Sleep Set previous mode;
	 */
	if(self->MODE==SLEEP)
 8002ddc:	687b      	ldr	r3, [r7, #4]
 8002dde:	f893 3044 	ldrb.w	r3, [r3, #68]	; 0x44
 8002de2:	2b03      	cmp	r3, #3
 8002de4:	d105      	bne.n	8002df2 <Solder_Iron_Sleep_Time_Resset+0x1e>
		self->MODE=self->PREW_MODE;
 8002de6:	687b      	ldr	r3, [r7, #4]
 8002de8:	f893 2045 	ldrb.w	r2, [r3, #69]	; 0x45
 8002dec:	687b      	ldr	r3, [r7, #4]
 8002dee:	f883 2044 	strb.w	r2, [r3, #68]	; 0x44
	self->Timer=0;
 8002df2:	687b      	ldr	r3, [r7, #4]
 8002df4:	2200      	movs	r2, #0
 8002df6:	f8a3 208c 	strh.w	r2, [r3, #140]	; 0x8c
}
 8002dfa:	bf00      	nop
 8002dfc:	370c      	adds	r7, #12
 8002dfe:	46bd      	mov	sp, r7
 8002e00:	bc80      	pop	{r7}
 8002e02:	4770      	bx	lr

08002e04 <Solder_Iron_tim_it>:
//---------------------------------------------------------------------------------
void Solder_Iron_tim_it(struct Soldering_Iron *self){
 8002e04:	b580      	push	{r7, lr}
 8002e06:	b082      	sub	sp, #8
 8002e08:	af00      	add	r7, sp, #0
 8002e0a:	6078      	str	r0, [r7, #4]
	 * Solder_Iron_tim_it Main purples ones a second create Button event for full power button and sleep Mode management
	 */
	static uint8_t Button_prescaler=0;
	static uint8_t TIM_prescaler=0;

	if(Button_prescaler++==20){
 8002e0c:	4b24      	ldr	r3, [pc, #144]	; (8002ea0 <Solder_Iron_tim_it+0x9c>)
 8002e0e:	781b      	ldrb	r3, [r3, #0]
 8002e10:	1c5a      	adds	r2, r3, #1
 8002e12:	b2d1      	uxtb	r1, r2
 8002e14:	4a22      	ldr	r2, [pc, #136]	; (8002ea0 <Solder_Iron_tim_it+0x9c>)
 8002e16:	7011      	strb	r1, [r2, #0]
 8002e18:	2b14      	cmp	r3, #20
 8002e1a:	d102      	bne.n	8002e22 <Solder_Iron_tim_it+0x1e>
		//Button_EXTI(&self->Full_Power_Button,&self->Full_Power_Button.PIN);
		Button_prescaler=0;
 8002e1c:	4b20      	ldr	r3, [pc, #128]	; (8002ea0 <Solder_Iron_tim_it+0x9c>)
 8002e1e:	2200      	movs	r2, #0
 8002e20:	701a      	strb	r2, [r3, #0]
	}

	if(TIM_prescaler++==10){
 8002e22:	4b20      	ldr	r3, [pc, #128]	; (8002ea4 <Solder_Iron_tim_it+0xa0>)
 8002e24:	781b      	ldrb	r3, [r3, #0]
 8002e26:	1c5a      	adds	r2, r3, #1
 8002e28:	b2d1      	uxtb	r1, r2
 8002e2a:	4a1e      	ldr	r2, [pc, #120]	; (8002ea4 <Solder_Iron_tim_it+0xa0>)
 8002e2c:	7011      	strb	r1, [r2, #0]
 8002e2e:	2b0a      	cmp	r3, #10
 8002e30:	d131      	bne.n	8002e96 <Solder_Iron_tim_it+0x92>
		if(self->State){
 8002e32:	687b      	ldr	r3, [r7, #4]
 8002e34:	f893 3092 	ldrb.w	r3, [r3, #146]	; 0x92
 8002e38:	2b00      	cmp	r3, #0
 8002e3a:	d029      	beq.n	8002e90 <Solder_Iron_tim_it+0x8c>
			if(self->Timer++==self->Sleep_time){						//if Time more than Sleep time value set sleep mode
 8002e3c:	687b      	ldr	r3, [r7, #4]
 8002e3e:	f8b3 308c 	ldrh.w	r3, [r3, #140]	; 0x8c
 8002e42:	1c5a      	adds	r2, r3, #1
 8002e44:	b291      	uxth	r1, r2
 8002e46:	687a      	ldr	r2, [r7, #4]
 8002e48:	f8a2 108c 	strh.w	r1, [r2, #140]	; 0x8c
 8002e4c:	687a      	ldr	r2, [r7, #4]
 8002e4e:	f892 208e 	ldrb.w	r2, [r2, #142]	; 0x8e
 8002e52:	b292      	uxth	r2, r2
 8002e54:	4293      	cmp	r3, r2
 8002e56:	d10a      	bne.n	8002e6e <Solder_Iron_tim_it+0x6a>
				self->PREW_MODE=self->MODE;
 8002e58:	687b      	ldr	r3, [r7, #4]
 8002e5a:	f893 2044 	ldrb.w	r2, [r3, #68]	; 0x44
 8002e5e:	687b      	ldr	r3, [r7, #4]
 8002e60:	f883 2045 	strb.w	r2, [r3, #69]	; 0x45
				Solder_Iron_Set_Temperature(self, SLEEP);						//Set Sleep Mode Temperature preset
 8002e64:	2103      	movs	r1, #3
 8002e66:	6878      	ldr	r0, [r7, #4]
 8002e68:	f000 f861 	bl	8002f2e <Solder_Iron_Set_Temperature>
 8002e6c:	e010      	b.n	8002e90 <Solder_Iron_tim_it+0x8c>
			}else if(self->Timer==self->Disable_time+self->Sleep_time)//if time more than Disable_time+Sleep_time Turn OFF Soldering_Iron
 8002e6e:	687b      	ldr	r3, [r7, #4]
 8002e70:	f8b3 308c 	ldrh.w	r3, [r3, #140]	; 0x8c
 8002e74:	461a      	mov	r2, r3
 8002e76:	687b      	ldr	r3, [r7, #4]
 8002e78:	f8b3 3090 	ldrh.w	r3, [r3, #144]	; 0x90
 8002e7c:	4619      	mov	r1, r3
 8002e7e:	687b      	ldr	r3, [r7, #4]
 8002e80:	f893 308e 	ldrb.w	r3, [r3, #142]	; 0x8e
 8002e84:	440b      	add	r3, r1
 8002e86:	429a      	cmp	r2, r3
 8002e88:	d102      	bne.n	8002e90 <Solder_Iron_tim_it+0x8c>
				Solder_Iron_OFF(self);
 8002e8a:	6878      	ldr	r0, [r7, #4]
 8002e8c:	f000 f83d 	bl	8002f0a <Solder_Iron_OFF>
		}
		TIM_prescaler=0;
 8002e90:	4b04      	ldr	r3, [pc, #16]	; (8002ea4 <Solder_Iron_tim_it+0xa0>)
 8002e92:	2200      	movs	r2, #0
 8002e94:	701a      	strb	r2, [r3, #0]
	}
}
 8002e96:	bf00      	nop
 8002e98:	3708      	adds	r7, #8
 8002e9a:	46bd      	mov	sp, r7
 8002e9c:	bd80      	pop	{r7, pc}
 8002e9e:	bf00      	nop
 8002ea0:	20000588 	.word	0x20000588
 8002ea4:	20000589 	.word	0x20000589

08002ea8 <Solder_Iron_ini>:

//---------------------------------------------------------------------------------
void Solder_Iron_ini(struct Soldering_Iron *self){
 8002ea8:	b580      	push	{r7, lr}
 8002eaa:	b082      	sub	sp, #8
 8002eac:	af00      	add	r7, sp, #0
 8002eae:	6078      	str	r0, [r7, #4]
	/**
	 * Basic initialization of all part for starting all processes
	 */
	PID_ini(&self->PID);
 8002eb0:	687b      	ldr	r3, [r7, #4]
 8002eb2:	4618      	mov	r0, r3
 8002eb4:	f7ff fe52 	bl	8002b5c <PID_ini>
	Filter_ini(&self->Filter);
 8002eb8:	687b      	ldr	r3, [r7, #4]
 8002eba:	3324      	adds	r3, #36	; 0x24
 8002ebc:	4618      	mov	r0, r3
 8002ebe:	f7fd ff07 	bl	8000cd0 <Filter_ini>
	Button_ini(&self->Full_Power_Button);
 8002ec2:	687b      	ldr	r3, [r7, #4]
 8002ec4:	3364      	adds	r3, #100	; 0x64
 8002ec6:	4618      	mov	r0, r3
 8002ec8:	f7fd fdf2 	bl	8000ab0 <Button_ini>
	Flash_Rewrite_Timer_ini(&self->Flash_Rewrite_Timer);
 8002ecc:	687b      	ldr	r3, [r7, #4]
 8002ece:	3394      	adds	r3, #148	; 0x94
 8002ed0:	4618      	mov	r0, r3
 8002ed2:	f000 fc2d 	bl	8003730 <Flash_Rewrite_Timer_ini>
}
 8002ed6:	bf00      	nop
 8002ed8:	3708      	adds	r7, #8
 8002eda:	46bd      	mov	sp, r7
 8002edc:	bd80      	pop	{r7, pc}

08002ede <Solder_Iron_ON>:

//---------------------------------------------------------------------------------
void Solder_Iron_ON(struct Soldering_Iron *self){
 8002ede:	b580      	push	{r7, lr}
 8002ee0:	b082      	sub	sp, #8
 8002ee2:	af00      	add	r7, sp, #0
 8002ee4:	6078      	str	r0, [r7, #4]
	Solder_Iron_Sleep_Time_Resset(self);  	//Reset Sleep_timer
 8002ee6:	6878      	ldr	r0, [r7, #4]
 8002ee8:	f7ff ff74 	bl	8002dd4 <Solder_Iron_Sleep_Time_Resset>
	Solder_Iron_Set_Temperature(self,self->MODE);		//Set Temperature
 8002eec:	687b      	ldr	r3, [r7, #4]
 8002eee:	f893 3044 	ldrb.w	r3, [r3, #68]	; 0x44
 8002ef2:	4619      	mov	r1, r3
 8002ef4:	6878      	ldr	r0, [r7, #4]
 8002ef6:	f000 f81a 	bl	8002f2e <Solder_Iron_Set_Temperature>
	self->State=Soldering_Iron_ON;
 8002efa:	687b      	ldr	r3, [r7, #4]
 8002efc:	2201      	movs	r2, #1
 8002efe:	f883 2092 	strb.w	r2, [r3, #146]	; 0x92
}
 8002f02:	bf00      	nop
 8002f04:	3708      	adds	r7, #8
 8002f06:	46bd      	mov	sp, r7
 8002f08:	bd80      	pop	{r7, pc}

08002f0a <Solder_Iron_OFF>:
//---------------------------------------------------------------------------------
void Solder_Iron_OFF(struct Soldering_Iron *self){
 8002f0a:	b580      	push	{r7, lr}
 8002f0c:	b082      	sub	sp, #8
 8002f0e:	af00      	add	r7, sp, #0
 8002f10:	6078      	str	r0, [r7, #4]
	self->State=Soldering_Iron_OFF;
 8002f12:	687b      	ldr	r3, [r7, #4]
 8002f14:	2200      	movs	r2, #0
 8002f16:	f883 2092 	strb.w	r2, [r3, #146]	; 0x92
	Solder_Iron_Sleep_Time_Resset(self); 	//Reset Sleep_timer
 8002f1a:	6878      	ldr	r0, [r7, #4]
 8002f1c:	f7ff ff5a 	bl	8002dd4 <Solder_Iron_Sleep_Time_Resset>
	Solder_Iron_ini(self);					//Reset All Spldering Iron parameters
 8002f20:	6878      	ldr	r0, [r7, #4]
 8002f22:	f7ff ffc1 	bl	8002ea8 <Solder_Iron_ini>
}
 8002f26:	bf00      	nop
 8002f28:	3708      	adds	r7, #8
 8002f2a:	46bd      	mov	sp, r7
 8002f2c:	bd80      	pop	{r7, pc}

08002f2e <Solder_Iron_Set_Temperature>:
//---------------------------------------------------------------------------------
void Solder_Iron_Set_Temperature(struct Soldering_Iron *self, enum MODE MODE){
 8002f2e:	b580      	push	{r7, lr}
 8002f30:	b084      	sub	sp, #16
 8002f32:	af00      	add	r7, sp, #0
 8002f34:	6078      	str	r0, [r7, #4]
 8002f36:	460b      	mov	r3, r1
 8002f38:	70fb      	strb	r3, [r7, #3]
	/**
	 * Solder_Iron_Set_Temperature based on MODE and Full_Power_Button
	 * Set Point for PID
	 */
	uint16_t Temperature_Corected;
	self->MODE=MODE;
 8002f3a:	687b      	ldr	r3, [r7, #4]
 8002f3c:	78fa      	ldrb	r2, [r7, #3]
 8002f3e:	f883 2044 	strb.w	r2, [r3, #68]	; 0x44
	Temperature_Corected=Set_Temperature(&self->Temperature_Set, &self->MODE,&self->Temperature_Pressets, &self->Temperature_Corection);
 8002f42:	687b      	ldr	r3, [r7, #4]
 8002f44:	f103 0084 	add.w	r0, r3, #132	; 0x84
 8002f48:	687b      	ldr	r3, [r7, #4]
 8002f4a:	f103 0144 	add.w	r1, r3, #68	; 0x44
 8002f4e:	687b      	ldr	r3, [r7, #4]
 8002f50:	f103 0246 	add.w	r2, r3, #70	; 0x46
 8002f54:	687b      	ldr	r3, [r7, #4]
 8002f56:	3350      	adds	r3, #80	; 0x50
 8002f58:	f7ff febe 	bl	8002cd8 <Set_Temperature>
 8002f5c:	4603      	mov	r3, r0
 8002f5e:	81fb      	strh	r3, [r7, #14]
	if(self->Full_Power_State==1){
 8002f60:	687b      	ldr	r3, [r7, #4]
 8002f62:	f893 3082 	ldrb.w	r3, [r3, #130]	; 0x82
 8002f66:	2b01      	cmp	r3, #1
 8002f68:	d125      	bne.n	8002fb6 <Solder_Iron_Set_Temperature+0x88>
		if((self->Temperature_Set+self->Add_Temperature)<MAX_ADC_Value){
 8002f6a:	687b      	ldr	r3, [r7, #4]
 8002f6c:	f8b3 3084 	ldrh.w	r3, [r3, #132]	; 0x84
 8002f70:	461a      	mov	r2, r3
 8002f72:	687b      	ldr	r3, [r7, #4]
 8002f74:	f8b3 3080 	ldrh.w	r3, [r3, #128]	; 0x80
 8002f78:	4413      	add	r3, r2
 8002f7a:	f640 62d7 	movw	r2, #3799	; 0xed7
 8002f7e:	4293      	cmp	r3, r2
 8002f80:	dc11      	bgt.n	8002fa6 <Solder_Iron_Set_Temperature+0x78>
			self->Temperature_Set+=self->Add_Temperature;
 8002f82:	687b      	ldr	r3, [r7, #4]
 8002f84:	f8b3 2084 	ldrh.w	r2, [r3, #132]	; 0x84
 8002f88:	687b      	ldr	r3, [r7, #4]
 8002f8a:	f8b3 3080 	ldrh.w	r3, [r3, #128]	; 0x80
 8002f8e:	4413      	add	r3, r2
 8002f90:	b29a      	uxth	r2, r3
 8002f92:	687b      	ldr	r3, [r7, #4]
 8002f94:	f8a3 2084 	strh.w	r2, [r3, #132]	; 0x84
			Temperature_Corected+=self->Add_Temperature;
 8002f98:	687b      	ldr	r3, [r7, #4]
 8002f9a:	f8b3 2080 	ldrh.w	r2, [r3, #128]	; 0x80
 8002f9e:	89fb      	ldrh	r3, [r7, #14]
 8002fa0:	4413      	add	r3, r2
 8002fa2:	81fb      	strh	r3, [r7, #14]
 8002fa4:	e007      	b.n	8002fb6 <Solder_Iron_Set_Temperature+0x88>
		}
		else{
			self->Temperature_Set=MAX_ADC_Value;
 8002fa6:	687b      	ldr	r3, [r7, #4]
 8002fa8:	f640 62d8 	movw	r2, #3800	; 0xed8
 8002fac:	f8a3 2084 	strh.w	r2, [r3, #132]	; 0x84
			Temperature_Corected=MAX_ADC_Value;
 8002fb0:	f640 63d8 	movw	r3, #3800	; 0xed8
 8002fb4:	81fb      	strh	r3, [r7, #14]
		}
	}
	PID_Set_Point(&self->PID, Temperature_Corected);				//Set Point for PID
 8002fb6:	687b      	ldr	r3, [r7, #4]
 8002fb8:	89fa      	ldrh	r2, [r7, #14]
 8002fba:	4611      	mov	r1, r2
 8002fbc:	4618      	mov	r0, r3
 8002fbe:	f7ff fe6d 	bl	8002c9c <PID_Set_Point>
}
 8002fc2:	bf00      	nop
 8002fc4:	3710      	adds	r7, #16
 8002fc6:	46bd      	mov	sp, r7
 8002fc8:	bd80      	pop	{r7, pc}

08002fca <Vibration_Sensor_it>:
//---------------------------------------------------------------------------------
void Vibration_Sensor_it(struct Soldering_Iron *self){
 8002fca:	b580      	push	{r7, lr}
 8002fcc:	b082      	sub	sp, #8
 8002fce:	af00      	add	r7, sp, #0
 8002fd0:	6078      	str	r0, [r7, #4]
	/**
	 * Vibration sensor have not any check
	 * Main function reset Sleep timer when rising / falling edge
	 */
	self->VS.State=HAL_GPIO_ReadPin(self->VS.GPIO,self->VS.EXTI_PIN);					//Read Pin State
 8002fd2:	687b      	ldr	r3, [r7, #4]
 8002fd4:	6dda      	ldr	r2, [r3, #92]	; 0x5c
 8002fd6:	687b      	ldr	r3, [r7, #4]
 8002fd8:	f8b3 3060 	ldrh.w	r3, [r3, #96]	; 0x60
 8002fdc:	4619      	mov	r1, r3
 8002fde:	4610      	mov	r0, r2
 8002fe0:	f003 fc1c 	bl	800681c <HAL_GPIO_ReadPin>
 8002fe4:	4603      	mov	r3, r0
 8002fe6:	461a      	mov	r2, r3
 8002fe8:	687b      	ldr	r3, [r7, #4]
 8002fea:	f883 2062 	strb.w	r2, [r3, #98]	; 0x62
		if(self->VS.State!=self->VS.Prew_State){											//IF ReadState!=Prew_Stae
 8002fee:	687b      	ldr	r3, [r7, #4]
 8002ff0:	f893 2062 	ldrb.w	r2, [r3, #98]	; 0x62
 8002ff4:	687b      	ldr	r3, [r7, #4]
 8002ff6:	f893 3063 	ldrb.w	r3, [r3, #99]	; 0x63
 8002ffa:	429a      	cmp	r2, r3
 8002ffc:	d009      	beq.n	8003012 <Vibration_Sensor_it+0x48>
			Solder_Iron_Sleep_Time_Resset(self);											//Sleep Timer Reset and current MODE(sleep) set previous mode(Manual/Preset1/Preset2)
 8002ffe:	6878      	ldr	r0, [r7, #4]
 8003000:	f7ff fee8 	bl	8002dd4 <Solder_Iron_Sleep_Time_Resset>
			Solder_Iron_Set_Temperature(self,self->MODE);												//Set previous mode temperature before sleep mode temperature;
 8003004:	687b      	ldr	r3, [r7, #4]
 8003006:	f893 3044 	ldrb.w	r3, [r3, #68]	; 0x44
 800300a:	4619      	mov	r1, r3
 800300c:	6878      	ldr	r0, [r7, #4]
 800300e:	f7ff ff8e 	bl	8002f2e <Solder_Iron_Set_Temperature>
		}
		self->VS.Prew_State=self->VS.State;												//Prew State = Read State
 8003012:	687b      	ldr	r3, [r7, #4]
 8003014:	f893 2062 	ldrb.w	r2, [r3, #98]	; 0x62
 8003018:	687b      	ldr	r3, [r7, #4]
 800301a:	f883 2063 	strb.w	r2, [r3, #99]	; 0x63
}
 800301e:	bf00      	nop
 8003020:	3708      	adds	r7, #8
 8003022:	46bd      	mov	sp, r7
 8003024:	bd80      	pop	{r7, pc}

08003026 <Solder_Iron_Flash_Write_Struct>:
//---------------------------------------------------------------------------------				// Solder_Iron Flash
uint32_t Solder_Iron_Flash_Write_Struct(struct Soldering_Iron *self,uint32_t addr){
 8003026:	b580      	push	{r7, lr}
 8003028:	b082      	sub	sp, #8
 800302a:	af00      	add	r7, sp, #0
 800302c:	6078      	str	r0, [r7, #4]
 800302e:	6039      	str	r1, [r7, #0]
	/**
	 * Using to write main structure Soldering_Iron into Flash Memory for an address
	 * return address of the end of writing
	 */
	return Flash_Write (addr, self, sizeof(*self));
 8003030:	229c      	movs	r2, #156	; 0x9c
 8003032:	6879      	ldr	r1, [r7, #4]
 8003034:	6838      	ldr	r0, [r7, #0]
 8003036:	f7fd ff14 	bl	8000e62 <Flash_Write>
 800303a:	4603      	mov	r3, r0
}
 800303c:	4618      	mov	r0, r3
 800303e:	3708      	adds	r7, #8
 8003040:	46bd      	mov	sp, r7
 8003042:	bd80      	pop	{r7, pc}

08003044 <Solder_Iron_Flash_Read_Struct>:
//---------------------------------------------------------------------------------
uint8_t Solder_Iron_Flash_Read_Struct(struct Soldering_Iron *self,uint32_t addr){
 8003044:	b580      	push	{r7, lr}
 8003046:	b0aa      	sub	sp, #168	; 0xa8
 8003048:	af00      	add	r7, sp, #0
 800304a:	6078      	str	r0, [r7, #4]
 800304c:	6039      	str	r1, [r7, #0]
	 * Using to read main structure Soldering_Iron from Flash Memory for an address
	 * return HAL_OK is read  struct was successful  and HAL_ERROR if not
	 * If reading is correct function write all data into a structure
	 */
	struct Soldering_Iron Read_Struct;
	Flash_Read (addr, &Read_Struct, sizeof(*self));			//Read struct into copy
 800304e:	f107 030c 	add.w	r3, r7, #12
 8003052:	229c      	movs	r2, #156	; 0x9c
 8003054:	4619      	mov	r1, r3
 8003056:	6838      	ldr	r0, [r7, #0]
 8003058:	f7fd ff40 	bl	8000edc <Flash_Read>
	if(Read_Struct.Flash_Key==Soldering_Iron_Struct_Key){	//Check if wrote data is a struct
 800305c:	f8d7 30a4 	ldr.w	r3, [r7, #164]	; 0xa4
 8003060:	4a08      	ldr	r2, [pc, #32]	; (8003084 <Solder_Iron_Flash_Read_Struct+0x40>)
 8003062:	4293      	cmp	r3, r2
 8003064:	d109      	bne.n	800307a <Solder_Iron_Flash_Read_Struct+0x36>
		*self=Read_Struct;
 8003066:	687b      	ldr	r3, [r7, #4]
 8003068:	4618      	mov	r0, r3
 800306a:	f107 030c 	add.w	r3, r7, #12
 800306e:	229c      	movs	r2, #156	; 0x9c
 8003070:	4619      	mov	r1, r3
 8003072:	f005 ff11 	bl	8008e98 <memcpy>
		return HAL_OK;
 8003076:	2300      	movs	r3, #0
 8003078:	e000      	b.n	800307c <Solder_Iron_Flash_Read_Struct+0x38>
	}else
		return HAL_ERROR;
 800307a:	2301      	movs	r3, #1
}
 800307c:	4618      	mov	r0, r3
 800307e:	37a8      	adds	r7, #168	; 0xa8
 8003080:	46bd      	mov	sp, r7
 8003082:	bd80      	pop	{r7, pc}
 8003084:	0801f802 	.word	0x0801f802

08003088 <Solder_Iron_Flash_Read_Manual_Temperature>:
//---------------------------------------------------------------------------------
uint8_t Solder_Iron_Flash_Read_Manual_Temperature(struct Soldering_Iron *self){
 8003088:	b580      	push	{r7, lr}
 800308a:	b082      	sub	sp, #8
 800308c:	af00      	add	r7, sp, #0
 800308e:	6078      	str	r0, [r7, #4]
	/**
	 * Using to read structure Temperature_Pressets from Flash Memory for an Page
	 * return HAL_OK or HAL_ERROR
	 */
	return Flash_Read_Manual_Temperature(&self->Temperature_Pressets, Soldering_Iron_Manual_Temperature_Flash_Key, Soldering_Iron_Manual_Temperature_Flash_Page);
 8003090:	687b      	ldr	r3, [r7, #4]
 8003092:	3346      	adds	r3, #70	; 0x46
 8003094:	227d      	movs	r2, #125	; 0x7d
 8003096:	4904      	ldr	r1, [pc, #16]	; (80030a8 <Solder_Iron_Flash_Read_Manual_Temperature+0x20>)
 8003098:	4618      	mov	r0, r3
 800309a:	f000 fabe 	bl	800361a <Flash_Read_Manual_Temperature>
 800309e:	4603      	mov	r3, r0
}
 80030a0:	4618      	mov	r0, r3
 80030a2:	3708      	adds	r7, #8
 80030a4:	46bd      	mov	sp, r7
 80030a6:	bd80      	pop	{r7, pc}
 80030a8:	0801f806 	.word	0x0801f806

080030ac <Solder_Iron_Flash_Reset_Rewrite_Timer>:
//---------------------------------------------------------------------------------
void Solder_Iron_Flash_Reset_Rewrite_Timer(struct Soldering_Iron *self){
 80030ac:	b580      	push	{r7, lr}
 80030ae:	b082      	sub	sp, #8
 80030b0:	af00      	add	r7, sp, #0
 80030b2:	6078      	str	r0, [r7, #4]
	/**
	 * This function reset rewrite timer.
	 */
	Flash_Reset_Rewrite_Timer(&self->Flash_Rewrite_Timer);
 80030b4:	687b      	ldr	r3, [r7, #4]
 80030b6:	3394      	adds	r3, #148	; 0x94
 80030b8:	4618      	mov	r0, r3
 80030ba:	f000 fadb 	bl	8003674 <Flash_Reset_Rewrite_Timer>
}
 80030be:	bf00      	nop
 80030c0:	3708      	adds	r7, #8
 80030c2:	46bd      	mov	sp, r7
 80030c4:	bd80      	pop	{r7, pc}

080030c6 <Soldering_Heat_Gun_ini>:
//-----------------------------------------------------------------------------------------------------------------------------------// Heat gun
void Soldering_Heat_Gun_ini(struct Soldering_Heat_Gun *self){
 80030c6:	b580      	push	{r7, lr}
 80030c8:	b082      	sub	sp, #8
 80030ca:	af00      	add	r7, sp, #0
 80030cc:	6078      	str	r0, [r7, #4]
	/**
	 * Basic initialization of all part for starting all processes
	 */
	PID_ini(&self->PID);
 80030ce:	687b      	ldr	r3, [r7, #4]
 80030d0:	4618      	mov	r0, r3
 80030d2:	f7ff fd43 	bl	8002b5c <PID_ini>
	Filter_ini(&self->Filter);
 80030d6:	687b      	ldr	r3, [r7, #4]
 80030d8:	3324      	adds	r3, #36	; 0x24
 80030da:	4618      	mov	r0, r3
 80030dc:	f7fd fdf8 	bl	8000cd0 <Filter_ini>
	Flash_Rewrite_Timer_ini(&self->Flash_Rewrite_Timer);
 80030e0:	687b      	ldr	r3, [r7, #4]
 80030e2:	3384      	adds	r3, #132	; 0x84
 80030e4:	4618      	mov	r0, r3
 80030e6:	f000 fb23 	bl	8003730 <Flash_Rewrite_Timer_ini>
}
 80030ea:	bf00      	nop
 80030ec:	3708      	adds	r7, #8
 80030ee:	46bd      	mov	sp, r7
 80030f0:	bd80      	pop	{r7, pc}

080030f2 <Soldering_Heat_Gun_ON>:
//---------------------------------------------------------------------------------
void Soldering_Heat_Gun_ON(struct Soldering_Heat_Gun *self){
 80030f2:	b580      	push	{r7, lr}
 80030f4:	b082      	sub	sp, #8
 80030f6:	af00      	add	r7, sp, #0
 80030f8:	6078      	str	r0, [r7, #4]
	/**
	 * Turn ON Heat Gun
	 */
	PAC_ON(self->PAC);							//Turn ON Phase Angle Control
 80030fa:	687b      	ldr	r3, [r7, #4]
 80030fc:	6e1b      	ldr	r3, [r3, #96]	; 0x60
 80030fe:	4618      	mov	r0, r3
 8003100:	f7ff fc5b 	bl	80029ba <PAC_ON>
	self->PAC_Control->State=PAC_Control_ON;	//Turn ON Control value for Phase Angle Control
 8003104:	687b      	ldr	r3, [r7, #4]
 8003106:	6ddb      	ldr	r3, [r3, #92]	; 0x5c
 8003108:	2201      	movs	r2, #1
 800310a:	739a      	strb	r2, [r3, #14]
	PID_ini(&self->PID);						//Reset PID
 800310c:	687b      	ldr	r3, [r7, #4]
 800310e:	4618      	mov	r0, r3
 8003110:	f7ff fd24 	bl	8002b5c <PID_ini>
	Filter_ini(&self->Filter);					//Reset Filter
 8003114:	687b      	ldr	r3, [r7, #4]
 8003116:	3324      	adds	r3, #36	; 0x24
 8003118:	4618      	mov	r0, r3
 800311a:	f7fd fdd9 	bl	8000cd0 <Filter_ini>

	HAL_GPIO_WritePin(self->OFF_GPIO, self->OFF_PIN, GPIO_PIN_RESET);		//Set manual mode to FAN rotating speed controll
 800311e:	687b      	ldr	r3, [r7, #4]
 8003120:	6f58      	ldr	r0, [r3, #116]	; 0x74
 8003122:	687b      	ldr	r3, [r7, #4]
 8003124:	f8b3 3070 	ldrh.w	r3, [r3, #112]	; 0x70
 8003128:	2200      	movs	r2, #0
 800312a:	4619      	mov	r1, r3
 800312c:	f003 fb8d 	bl	800684a <HAL_GPIO_WritePin>
	HAL_GPIO_WritePin(self->MANUAL_GPIO, self->MANUAL_PIN, GPIO_PIN_SET);
 8003130:	687b      	ldr	r3, [r7, #4]
 8003132:	6fd8      	ldr	r0, [r3, #124]	; 0x7c
 8003134:	687b      	ldr	r3, [r7, #4]
 8003136:	f8b3 3078 	ldrh.w	r3, [r3, #120]	; 0x78
 800313a:	2201      	movs	r2, #1
 800313c:	4619      	mov	r1, r3
 800313e:	f003 fb84 	bl	800684a <HAL_GPIO_WritePin>

	self->State=Heat_Gun_ON;					//Set turn ON State
 8003142:	687b      	ldr	r3, [r7, #4]
 8003144:	2201      	movs	r2, #1
 8003146:	f883 2082 	strb.w	r2, [r3, #130]	; 0x82
}
 800314a:	bf00      	nop
 800314c:	3708      	adds	r7, #8
 800314e:	46bd      	mov	sp, r7
 8003150:	bd80      	pop	{r7, pc}

08003152 <Soldering_Heat_Gun_OFF>:
//---------------------------------------------------------------------------------
void Soldering_Heat_Gun_OFF(struct Soldering_Heat_Gun *self){
 8003152:	b580      	push	{r7, lr}
 8003154:	b082      	sub	sp, #8
 8003156:	af00      	add	r7, sp, #0
 8003158:	6078      	str	r0, [r7, #4]
	/**
	 * Turn OFF Heat Gun
	 */
	self->State=Heat_Gun_COOLING;					//Set COOLING State. It needs to cool heat gun to Temperature_Coolling. After set Turn OFF state
 800315a:	687b      	ldr	r3, [r7, #4]
 800315c:	2202      	movs	r2, #2
 800315e:	f883 2082 	strb.w	r2, [r3, #130]	; 0x82
	self->PAC_Control->State=PAC_Control_OFF;		//Turn OFF Control value for Phase Angle Control
 8003162:	687b      	ldr	r3, [r7, #4]
 8003164:	6ddb      	ldr	r3, [r3, #92]	; 0x5c
 8003166:	2200      	movs	r2, #0
 8003168:	739a      	strb	r2, [r3, #14]
	PAC_OFF(self->PAC);								// Turn OFF Phase Angle Control
 800316a:	687b      	ldr	r3, [r7, #4]
 800316c:	6e1b      	ldr	r3, [r3, #96]	; 0x60
 800316e:	4618      	mov	r0, r3
 8003170:	f7ff fc3a 	bl	80029e8 <PAC_OFF>
	HAL_GPIO_WritePin(self->PAC_Control->GPIO, self->PAC_Control->PIN, GPIO_PIN_RESET); //Turn ON Full Speed FAN rotation
 8003174:	687b      	ldr	r3, [r7, #4]
 8003176:	6ddb      	ldr	r3, [r3, #92]	; 0x5c
 8003178:	6898      	ldr	r0, [r3, #8]
 800317a:	687b      	ldr	r3, [r7, #4]
 800317c:	6ddb      	ldr	r3, [r3, #92]	; 0x5c
 800317e:	889b      	ldrh	r3, [r3, #4]
 8003180:	2200      	movs	r2, #0
 8003182:	4619      	mov	r1, r3
 8003184:	f003 fb61 	bl	800684a <HAL_GPIO_WritePin>
	HAL_GPIO_WritePin(self->MANUAL_GPIO, self->MANUAL_PIN, GPIO_PIN_RESET);
 8003188:	687b      	ldr	r3, [r7, #4]
 800318a:	6fd8      	ldr	r0, [r3, #124]	; 0x7c
 800318c:	687b      	ldr	r3, [r7, #4]
 800318e:	f8b3 3078 	ldrh.w	r3, [r3, #120]	; 0x78
 8003192:	2200      	movs	r2, #0
 8003194:	4619      	mov	r1, r3
 8003196:	f003 fb58 	bl	800684a <HAL_GPIO_WritePin>
}
 800319a:	bf00      	nop
 800319c:	3708      	adds	r7, #8
 800319e:	46bd      	mov	sp, r7
 80031a0:	bd80      	pop	{r7, pc}

080031a2 <Soldering_Heat_Gun_Set_Temperature>:
//---------------------------------------------------------------------------------
void Soldering_Heat_Gun_Set_Temperature(struct Soldering_Heat_Gun *self,enum MODE MODE){
 80031a2:	b590      	push	{r4, r7, lr}
 80031a4:	b083      	sub	sp, #12
 80031a6:	af00      	add	r7, sp, #0
 80031a8:	6078      	str	r0, [r7, #4]
 80031aa:	460b      	mov	r3, r1
 80031ac:	70fb      	strb	r3, [r7, #3]
	/**
	 * Heat_Gun set temperature for PID based on mode
	 * Needs set mode struct.mode(MANUAL/PRESET1..) Before use
	 */
	self->MODE=MODE;
 80031ae:	687b      	ldr	r3, [r7, #4]
 80031b0:	78fa      	ldrb	r2, [r7, #3]
 80031b2:	f883 2044 	strb.w	r2, [r3, #68]	; 0x44
	PID_Set_Point(&self->PID, Set_Temperature(&self->Temperature_Set, &self->MODE,&self->Temperature_Pressets, &self->Temperature_Corection));
 80031b6:	687c      	ldr	r4, [r7, #4]
 80031b8:	687b      	ldr	r3, [r7, #4]
 80031ba:	f103 0066 	add.w	r0, r3, #102	; 0x66
 80031be:	687b      	ldr	r3, [r7, #4]
 80031c0:	f103 0144 	add.w	r1, r3, #68	; 0x44
 80031c4:	687b      	ldr	r3, [r7, #4]
 80031c6:	f103 0246 	add.w	r2, r3, #70	; 0x46
 80031ca:	687b      	ldr	r3, [r7, #4]
 80031cc:	3350      	adds	r3, #80	; 0x50
 80031ce:	f7ff fd83 	bl	8002cd8 <Set_Temperature>
 80031d2:	4603      	mov	r3, r0
 80031d4:	4619      	mov	r1, r3
 80031d6:	4620      	mov	r0, r4
 80031d8:	f7ff fd60 	bl	8002c9c <PID_Set_Point>
}
 80031dc:	bf00      	nop
 80031de:	370c      	adds	r7, #12
 80031e0:	46bd      	mov	sp, r7
 80031e2:	bd90      	pop	{r4, r7, pc}

080031e4 <Soldering_Heat_Gun_it>:

//---------------------------------------------------------------------------------
void Soldering_Heat_Gun_it(struct Soldering_Heat_Gun *self){
 80031e4:	b580      	push	{r7, lr}
 80031e6:	b082      	sub	sp, #8
 80031e8:	af00      	add	r7, sp, #0
 80031ea:	6078      	str	r0, [r7, #4]
	/**
	 * Main function PID and Filter iteration for Soldering_Heat_Gun
	 * Secondary Cooling Heat GUN
	 */
	if(self->State==Heat_Gun_ON&&self->PAC->ZCD->State==ZCD_STATE_ON){									//if Heat GUN turn ON && ZCD ON
 80031ec:	687b      	ldr	r3, [r7, #4]
 80031ee:	f893 3082 	ldrb.w	r3, [r3, #130]	; 0x82
 80031f2:	2b01      	cmp	r3, #1
 80031f4:	d11f      	bne.n	8003236 <Soldering_Heat_Gun_it+0x52>
 80031f6:	687b      	ldr	r3, [r7, #4]
 80031f8:	6e1b      	ldr	r3, [r3, #96]	; 0x60
 80031fa:	681b      	ldr	r3, [r3, #0]
 80031fc:	785b      	ldrb	r3, [r3, #1]
 80031fe:	2b01      	cmp	r3, #1
 8003200:	d119      	bne.n	8003236 <Soldering_Heat_Gun_it+0x52>
		self->Temperature=Filter_Combined(&self->Filter);												//Filter and set current Temperature
 8003202:	687b      	ldr	r3, [r7, #4]
 8003204:	3324      	adds	r3, #36	; 0x24
 8003206:	4618      	mov	r0, r3
 8003208:	f7fd fdc7 	bl	8000d9a <Filter_Combined>
 800320c:	4603      	mov	r3, r0
 800320e:	461a      	mov	r2, r3
 8003210:	687b      	ldr	r3, [r7, #4]
 8003212:	66da      	str	r2, [r3, #108]	; 0x6c
		PID_Set_Point_Now(&self->PID,(int)(self->Temperature));											//Heat_Gun PID IT;
 8003214:	687a      	ldr	r2, [r7, #4]
 8003216:	687b      	ldr	r3, [r7, #4]
 8003218:	6edb      	ldr	r3, [r3, #108]	; 0x6c
 800321a:	4619      	mov	r1, r3
 800321c:	4610      	mov	r0, r2
 800321e:	f7ff fd4c 	bl	8002cba <PID_Set_Point_Now>
		self->PAC_Control->Control_Value=(uint16_t)PID_it(&self->PID);									//Set PAC control value
 8003222:	687b      	ldr	r3, [r7, #4]
 8003224:	4618      	mov	r0, r3
 8003226:	f7ff fcab 	bl	8002b80 <PID_it>
 800322a:	4602      	mov	r2, r0
 800322c:	687b      	ldr	r3, [r7, #4]
 800322e:	6ddb      	ldr	r3, [r3, #92]	; 0x5c
 8003230:	b292      	uxth	r2, r2
 8003232:	819a      	strh	r2, [r3, #12]
		if(self->Temperature<=self->Temperature_Coolling){												//if the current temperature is less than  Temperature_Coolling
			self->State=Heat_Gun_OFF;																	//Turn off heat gun
			HAL_GPIO_WritePin(self->OFF_GPIO, self->OFF_PIN, GPIO_PIN_SET);								// Turn OF FAN rotating
		}
	}
}
 8003234:	e021      	b.n	800327a <Soldering_Heat_Gun_it+0x96>
	}else if(self->State==Heat_Gun_COOLING){															//if Heat GUN Cooling
 8003236:	687b      	ldr	r3, [r7, #4]
 8003238:	f893 3082 	ldrb.w	r3, [r3, #130]	; 0x82
 800323c:	2b02      	cmp	r3, #2
 800323e:	d11c      	bne.n	800327a <Soldering_Heat_Gun_it+0x96>
		self->Temperature=Filter_Combined(&self->Filter);												//and set current Temperature
 8003240:	687b      	ldr	r3, [r7, #4]
 8003242:	3324      	adds	r3, #36	; 0x24
 8003244:	4618      	mov	r0, r3
 8003246:	f7fd fda8 	bl	8000d9a <Filter_Combined>
 800324a:	4603      	mov	r3, r0
 800324c:	461a      	mov	r2, r3
 800324e:	687b      	ldr	r3, [r7, #4]
 8003250:	66da      	str	r2, [r3, #108]	; 0x6c
		if(self->Temperature<=self->Temperature_Coolling){												//if the current temperature is less than  Temperature_Coolling
 8003252:	687b      	ldr	r3, [r7, #4]
 8003254:	6edb      	ldr	r3, [r3, #108]	; 0x6c
 8003256:	687a      	ldr	r2, [r7, #4]
 8003258:	f8b2 2080 	ldrh.w	r2, [r2, #128]	; 0x80
 800325c:	4293      	cmp	r3, r2
 800325e:	d80c      	bhi.n	800327a <Soldering_Heat_Gun_it+0x96>
			self->State=Heat_Gun_OFF;																	//Turn off heat gun
 8003260:	687b      	ldr	r3, [r7, #4]
 8003262:	2200      	movs	r2, #0
 8003264:	f883 2082 	strb.w	r2, [r3, #130]	; 0x82
			HAL_GPIO_WritePin(self->OFF_GPIO, self->OFF_PIN, GPIO_PIN_SET);								// Turn OF FAN rotating
 8003268:	687b      	ldr	r3, [r7, #4]
 800326a:	6f58      	ldr	r0, [r3, #116]	; 0x74
 800326c:	687b      	ldr	r3, [r7, #4]
 800326e:	f8b3 3070 	ldrh.w	r3, [r3, #112]	; 0x70
 8003272:	2201      	movs	r2, #1
 8003274:	4619      	mov	r1, r3
 8003276:	f003 fae8 	bl	800684a <HAL_GPIO_WritePin>
}
 800327a:	bf00      	nop
 800327c:	3708      	adds	r7, #8
 800327e:	46bd      	mov	sp, r7
 8003280:	bd80      	pop	{r7, pc}

08003282 <Soldering_Heat_Gun_Flash_Write_Struct>:
//---------------------------------------------------------------------------------						// Heat_Gun Flash
uint32_t Soldering_Heat_Gun_Flash_Write_Struct(struct Soldering_Heat_Gun *self,uint32_t addr){
 8003282:	b580      	push	{r7, lr}
 8003284:	b082      	sub	sp, #8
 8003286:	af00      	add	r7, sp, #0
 8003288:	6078      	str	r0, [r7, #4]
 800328a:	6039      	str	r1, [r7, #0]
	/**
	 * Using to write main structure Soldering_Heat_Gun into Flash Memory for an address
	 * return address of the end of writing
	 */
	return Flash_Write (addr, self, sizeof(*self));
 800328c:	228c      	movs	r2, #140	; 0x8c
 800328e:	6879      	ldr	r1, [r7, #4]
 8003290:	6838      	ldr	r0, [r7, #0]
 8003292:	f7fd fde6 	bl	8000e62 <Flash_Write>
 8003296:	4603      	mov	r3, r0
}
 8003298:	4618      	mov	r0, r3
 800329a:	3708      	adds	r7, #8
 800329c:	46bd      	mov	sp, r7
 800329e:	bd80      	pop	{r7, pc}

080032a0 <Soldering_Heat_Gun_Flash_Read_Struct>:
//---------------------------------------------------------------------------------
uint8_t Soldering_Heat_Gun_Flash_Read_Struct(struct Soldering_Heat_Gun *self,uint32_t addr){
 80032a0:	b580      	push	{r7, lr}
 80032a2:	b0a6      	sub	sp, #152	; 0x98
 80032a4:	af00      	add	r7, sp, #0
 80032a6:	6078      	str	r0, [r7, #4]
 80032a8:	6039      	str	r1, [r7, #0]
	 * Using to read main structure Soldering_Heat_Gun from Flash Memory for an address
	 * return HAL_OK is read  struct was successful  and HAL_ERROR if not
	 * If reading is correct function write all data into a structure
	 */
	struct Soldering_Heat_Gun Read_Struct;
	Flash_Read (addr, &Read_Struct, sizeof(*self));						//Read struct into copy
 80032aa:	f107 030c 	add.w	r3, r7, #12
 80032ae:	228c      	movs	r2, #140	; 0x8c
 80032b0:	4619      	mov	r1, r3
 80032b2:	6838      	ldr	r0, [r7, #0]
 80032b4:	f7fd fe12 	bl	8000edc <Flash_Read>
	if(Read_Struct.Flash_Key==Soldering_Heat_Gun_Struct_Key){			//Check if wrote data is a struct
 80032b8:	f8d7 3094 	ldr.w	r3, [r7, #148]	; 0x94
 80032bc:	4a08      	ldr	r2, [pc, #32]	; (80032e0 <Soldering_Heat_Gun_Flash_Read_Struct+0x40>)
 80032be:	4293      	cmp	r3, r2
 80032c0:	d109      	bne.n	80032d6 <Soldering_Heat_Gun_Flash_Read_Struct+0x36>
		*self=Read_Struct;
 80032c2:	687b      	ldr	r3, [r7, #4]
 80032c4:	4618      	mov	r0, r3
 80032c6:	f107 030c 	add.w	r3, r7, #12
 80032ca:	228c      	movs	r2, #140	; 0x8c
 80032cc:	4619      	mov	r1, r3
 80032ce:	f005 fde3 	bl	8008e98 <memcpy>
		return HAL_OK;
 80032d2:	2300      	movs	r3, #0
 80032d4:	e000      	b.n	80032d8 <Soldering_Heat_Gun_Flash_Read_Struct+0x38>
	}else
		return HAL_ERROR;
 80032d6:	2301      	movs	r3, #1
}
 80032d8:	4618      	mov	r0, r3
 80032da:	3798      	adds	r7, #152	; 0x98
 80032dc:	46bd      	mov	sp, r7
 80032de:	bd80      	pop	{r7, pc}
 80032e0:	0801f804 	.word	0x0801f804

080032e4 <Soldering_Heat_Gun_Flash_Read_Manual_Temperature>:
//---------------------------------------------------------------------------------
uint8_t Soldering_Heat_Gun_Flash_Read_Manual_Temperature(struct Soldering_Heat_Gun *self){
 80032e4:	b580      	push	{r7, lr}
 80032e6:	b082      	sub	sp, #8
 80032e8:	af00      	add	r7, sp, #0
 80032ea:	6078      	str	r0, [r7, #4]
	/**
	 * Using to read structure Temperature_Pressets from Flash Memory for an Page
	 * return HAL_OK or HAL_ERROR
	 */
	return Flash_Read_Manual_Temperature(&self->Temperature_Pressets, Soldering_Heat_Gun_Manual_Temperature_Flash_Key, Soldering_Heat_Gun_Manual_Temperature_Flash_Page);
 80032ec:	687b      	ldr	r3, [r7, #4]
 80032ee:	3346      	adds	r3, #70	; 0x46
 80032f0:	227c      	movs	r2, #124	; 0x7c
 80032f2:	4904      	ldr	r1, [pc, #16]	; (8003304 <Soldering_Heat_Gun_Flash_Read_Manual_Temperature+0x20>)
 80032f4:	4618      	mov	r0, r3
 80032f6:	f000 f990 	bl	800361a <Flash_Read_Manual_Temperature>
 80032fa:	4603      	mov	r3, r0
}
 80032fc:	4618      	mov	r0, r3
 80032fe:	3708      	adds	r7, #8
 8003300:	46bd      	mov	sp, r7
 8003302:	bd80      	pop	{r7, pc}
 8003304:	0801f808 	.word	0x0801f808

08003308 <Soldering_Heat_Gun_Flash_Reset_Rewrite_Timer>:
//---------------------------------------------------------------------------------
void Soldering_Heat_Gun_Flash_Reset_Rewrite_Timer(struct Soldering_Heat_Gun *self){
 8003308:	b580      	push	{r7, lr}
 800330a:	b082      	sub	sp, #8
 800330c:	af00      	add	r7, sp, #0
 800330e:	6078      	str	r0, [r7, #4]
	/**
	 * This function reset rewrite timer.
	 */
	Flash_Reset_Rewrite_Timer(&self->Flash_Rewrite_Timer);
 8003310:	687b      	ldr	r3, [r7, #4]
 8003312:	3384      	adds	r3, #132	; 0x84
 8003314:	4618      	mov	r0, r3
 8003316:	f000 f9ad 	bl	8003674 <Flash_Reset_Rewrite_Timer>
}
 800331a:	bf00      	nop
 800331c:	3708      	adds	r7, #8
 800331e:	46bd      	mov	sp, r7
 8003320:	bd80      	pop	{r7, pc}

08003322 <Soldering_Separator_ini>:
//---------------------------------------------------------------------------------------------------------------------------------//Soldering_Separator
void Soldering_Separator_ini(struct Soldering_Separator *self){
 8003322:	b580      	push	{r7, lr}
 8003324:	b082      	sub	sp, #8
 8003326:	af00      	add	r7, sp, #0
 8003328:	6078      	str	r0, [r7, #4]
	/**
	 * Basic initialization of all part for starting all processes
	 */
	PID_ini(&self->PID);
 800332a:	687b      	ldr	r3, [r7, #4]
 800332c:	4618      	mov	r0, r3
 800332e:	f7ff fc15 	bl	8002b5c <PID_ini>
	Filter_ini(&self->Filter);
 8003332:	687b      	ldr	r3, [r7, #4]
 8003334:	3324      	adds	r3, #36	; 0x24
 8003336:	4618      	mov	r0, r3
 8003338:	f7fd fcca 	bl	8000cd0 <Filter_ini>
	Flash_Rewrite_Timer_ini(&self->Flash_Rewrite_Timer);
 800333c:	687b      	ldr	r3, [r7, #4]
 800333e:	3372      	adds	r3, #114	; 0x72
 8003340:	4618      	mov	r0, r3
 8003342:	f000 f9f5 	bl	8003730 <Flash_Rewrite_Timer_ini>
}
 8003346:	bf00      	nop
 8003348:	3708      	adds	r7, #8
 800334a:	46bd      	mov	sp, r7
 800334c:	bd80      	pop	{r7, pc}

0800334e <Soldering_Separator_ON>:
//---------------------------------------------------------------------------------
void Soldering_Separator_ON(struct Soldering_Separator *self){
 800334e:	b580      	push	{r7, lr}
 8003350:	b082      	sub	sp, #8
 8003352:	af00      	add	r7, sp, #0
 8003354:	6078      	str	r0, [r7, #4]
	/**
	 * Turn ON Soldering_Separator
	 */
	PAC_ON(self->PAC);								//Turn ON Phase Angle Control
 8003356:	687b      	ldr	r3, [r7, #4]
 8003358:	6e1b      	ldr	r3, [r3, #96]	; 0x60
 800335a:	4618      	mov	r0, r3
 800335c:	f7ff fb2d 	bl	80029ba <PAC_ON>
	self->PAC_Control->State=PAC_Control_ON;		//Turn ON Control value for Phase Angle Control
 8003360:	687b      	ldr	r3, [r7, #4]
 8003362:	6ddb      	ldr	r3, [r3, #92]	; 0x5c
 8003364:	2201      	movs	r2, #1
 8003366:	739a      	strb	r2, [r3, #14]
	PID_ini(&self->PID);							//Reset PID
 8003368:	687b      	ldr	r3, [r7, #4]
 800336a:	4618      	mov	r0, r3
 800336c:	f7ff fbf6 	bl	8002b5c <PID_ini>
	Filter_ini(&self->Filter);						//Reset Filter
 8003370:	687b      	ldr	r3, [r7, #4]
 8003372:	3324      	adds	r3, #36	; 0x24
 8003374:	4618      	mov	r0, r3
 8003376:	f7fd fcab 	bl	8000cd0 <Filter_ini>
	self->State=Separator_ON;						//Set Turn ON State
 800337a:	687b      	ldr	r3, [r7, #4]
 800337c:	2201      	movs	r2, #1
 800337e:	f883 2070 	strb.w	r2, [r3, #112]	; 0x70
}
 8003382:	bf00      	nop
 8003384:	3708      	adds	r7, #8
 8003386:	46bd      	mov	sp, r7
 8003388:	bd80      	pop	{r7, pc}

0800338a <Soldering_Separator_OFF>:
//---------------------------------------------------------------------------------
void Soldering_Separator_OFF(struct Soldering_Separator *self){
 800338a:	b580      	push	{r7, lr}
 800338c:	b082      	sub	sp, #8
 800338e:	af00      	add	r7, sp, #0
 8003390:	6078      	str	r0, [r7, #4]
	/**
	 * Turn OFF Soldering Separator
	 */
	self->PAC_Control->State=PAC_Control_OFF; 		//Turn OFF Control value for Phase Angle Control
 8003392:	687b      	ldr	r3, [r7, #4]
 8003394:	6ddb      	ldr	r3, [r3, #92]	; 0x5c
 8003396:	2200      	movs	r2, #0
 8003398:	739a      	strb	r2, [r3, #14]
	PAC_OFF(self->PAC);								// Turn OFF Phase Angle Control
 800339a:	687b      	ldr	r3, [r7, #4]
 800339c:	6e1b      	ldr	r3, [r3, #96]	; 0x60
 800339e:	4618      	mov	r0, r3
 80033a0:	f7ff fb22 	bl	80029e8 <PAC_OFF>
	self->State=Separator_OFF;						// Set Soldering_Separator Turn OFF State
 80033a4:	687b      	ldr	r3, [r7, #4]
 80033a6:	2200      	movs	r2, #0
 80033a8:	f883 2070 	strb.w	r2, [r3, #112]	; 0x70
}
 80033ac:	bf00      	nop
 80033ae:	3708      	adds	r7, #8
 80033b0:	46bd      	mov	sp, r7
 80033b2:	bd80      	pop	{r7, pc}

080033b4 <Soldering_Separator_Set_Temperature>:
//---------------------------------------------------------------------------------
void Soldering_Separator_Set_Temperature(struct Soldering_Separator *self, enum MODE MODE){
 80033b4:	b590      	push	{r4, r7, lr}
 80033b6:	b083      	sub	sp, #12
 80033b8:	af00      	add	r7, sp, #0
 80033ba:	6078      	str	r0, [r7, #4]
 80033bc:	460b      	mov	r3, r1
 80033be:	70fb      	strb	r3, [r7, #3]
	/**
	 * Soldering_Separator set temperature for PID based on mode
	 * Needs set mode struct.mode(MANUAL/PRESET1..) Before use
	 */
	self->MODE=MODE;
 80033c0:	687b      	ldr	r3, [r7, #4]
 80033c2:	78fa      	ldrb	r2, [r7, #3]
 80033c4:	f883 2044 	strb.w	r2, [r3, #68]	; 0x44
	PID_Set_Point(&self->PID, Set_Temperature(&self->Temperature_Set, &self->MODE,&self->Temperature_Pressets, &self->Temperature_Corection));
 80033c8:	687c      	ldr	r4, [r7, #4]
 80033ca:	687b      	ldr	r3, [r7, #4]
 80033cc:	f103 0066 	add.w	r0, r3, #102	; 0x66
 80033d0:	687b      	ldr	r3, [r7, #4]
 80033d2:	f103 0144 	add.w	r1, r3, #68	; 0x44
 80033d6:	687b      	ldr	r3, [r7, #4]
 80033d8:	f103 0246 	add.w	r2, r3, #70	; 0x46
 80033dc:	687b      	ldr	r3, [r7, #4]
 80033de:	3350      	adds	r3, #80	; 0x50
 80033e0:	f7ff fc7a 	bl	8002cd8 <Set_Temperature>
 80033e4:	4603      	mov	r3, r0
 80033e6:	4619      	mov	r1, r3
 80033e8:	4620      	mov	r0, r4
 80033ea:	f7ff fc57 	bl	8002c9c <PID_Set_Point>
}
 80033ee:	bf00      	nop
 80033f0:	370c      	adds	r7, #12
 80033f2:	46bd      	mov	sp, r7
 80033f4:	bd90      	pop	{r4, r7, pc}

080033f6 <Soldering_Separator_it>:

//---------------------------------------------------------------------------------
void Soldering_Separator_it(struct Soldering_Separator *self){
 80033f6:	b580      	push	{r7, lr}
 80033f8:	b082      	sub	sp, #8
 80033fa:	af00      	add	r7, sp, #0
 80033fc:	6078      	str	r0, [r7, #4]
	/**
	 * Main function PID and Filter iteration for Soldering_Separator
	 *
	 */
	if(self->State==Separator_ON&&self->PAC->ZCD->State==ZCD_STATE_ON){				//if Heat GUN turn ON && ZCD ON
 80033fe:	687b      	ldr	r3, [r7, #4]
 8003400:	f893 3070 	ldrb.w	r3, [r3, #112]	; 0x70
 8003404:	2b01      	cmp	r3, #1
 8003406:	d11e      	bne.n	8003446 <Soldering_Separator_it+0x50>
 8003408:	687b      	ldr	r3, [r7, #4]
 800340a:	6e1b      	ldr	r3, [r3, #96]	; 0x60
 800340c:	681b      	ldr	r3, [r3, #0]
 800340e:	785b      	ldrb	r3, [r3, #1]
 8003410:	2b01      	cmp	r3, #1
 8003412:	d118      	bne.n	8003446 <Soldering_Separator_it+0x50>
		self->Temperature=Filter_Combined(&self->Filter);							//Filter and set current Temperature
 8003414:	687b      	ldr	r3, [r7, #4]
 8003416:	3324      	adds	r3, #36	; 0x24
 8003418:	4618      	mov	r0, r3
 800341a:	f7fd fcbe 	bl	8000d9a <Filter_Combined>
 800341e:	4603      	mov	r3, r0
 8003420:	461a      	mov	r2, r3
 8003422:	687b      	ldr	r3, [r7, #4]
 8003424:	66da      	str	r2, [r3, #108]	; 0x6c
		PID_Set_Point_Now(&self->PID,(int)(self->Temperature));						//Soldering_Separator PID IT;
 8003426:	687a      	ldr	r2, [r7, #4]
 8003428:	687b      	ldr	r3, [r7, #4]
 800342a:	6edb      	ldr	r3, [r3, #108]	; 0x6c
 800342c:	4619      	mov	r1, r3
 800342e:	4610      	mov	r0, r2
 8003430:	f7ff fc43 	bl	8002cba <PID_Set_Point_Now>
		self->PAC_Control->Control_Value=(uint16_t)PID_it(&self->PID);				//Set PAC control value
 8003434:	687b      	ldr	r3, [r7, #4]
 8003436:	4618      	mov	r0, r3
 8003438:	f7ff fba2 	bl	8002b80 <PID_it>
 800343c:	4602      	mov	r2, r0
 800343e:	687b      	ldr	r3, [r7, #4]
 8003440:	6ddb      	ldr	r3, [r3, #92]	; 0x5c
 8003442:	b292      	uxth	r2, r2
 8003444:	819a      	strh	r2, [r3, #12]
	}
}
 8003446:	bf00      	nop
 8003448:	3708      	adds	r7, #8
 800344a:	46bd      	mov	sp, r7
 800344c:	bd80      	pop	{r7, pc}

0800344e <Soldering_Separator_Flash_Write_Struct>:
//---------------------------------------------------------------------------------						// Soldering_Separator Flash
uint32_t Soldering_Separator_Flash_Write_Struct(struct Soldering_Separator *self,uint32_t addr){
 800344e:	b580      	push	{r7, lr}
 8003450:	b082      	sub	sp, #8
 8003452:	af00      	add	r7, sp, #0
 8003454:	6078      	str	r0, [r7, #4]
 8003456:	6039      	str	r1, [r7, #0]
	return Flash_Write (addr, self, sizeof(*self));
 8003458:	227c      	movs	r2, #124	; 0x7c
 800345a:	6879      	ldr	r1, [r7, #4]
 800345c:	6838      	ldr	r0, [r7, #0]
 800345e:	f7fd fd00 	bl	8000e62 <Flash_Write>
 8003462:	4603      	mov	r3, r0
}
 8003464:	4618      	mov	r0, r3
 8003466:	3708      	adds	r7, #8
 8003468:	46bd      	mov	sp, r7
 800346a:	bd80      	pop	{r7, pc}

0800346c <Soldering_Separator_Flash_Read_Struct>:
//---------------------------------------------------------------------------------
uint8_t Soldering_Separator_Flash_Read_Struct(struct Soldering_Separator *self,uint32_t addr){
 800346c:	b580      	push	{r7, lr}
 800346e:	b0a2      	sub	sp, #136	; 0x88
 8003470:	af00      	add	r7, sp, #0
 8003472:	6078      	str	r0, [r7, #4]
 8003474:	6039      	str	r1, [r7, #0]
	struct Soldering_Separator Read_Struct;
	Flash_Read (addr, &Read_Struct, sizeof(*self));
 8003476:	f107 030c 	add.w	r3, r7, #12
 800347a:	227c      	movs	r2, #124	; 0x7c
 800347c:	4619      	mov	r1, r3
 800347e:	6838      	ldr	r0, [r7, #0]
 8003480:	f7fd fd2c 	bl	8000edc <Flash_Read>
	if(Read_Struct.Flash_Key==Soldering_Separator_Struct_Key){
 8003484:	f8d7 3084 	ldr.w	r3, [r7, #132]	; 0x84
 8003488:	4a08      	ldr	r2, [pc, #32]	; (80034ac <Soldering_Separator_Flash_Read_Struct+0x40>)
 800348a:	4293      	cmp	r3, r2
 800348c:	d109      	bne.n	80034a2 <Soldering_Separator_Flash_Read_Struct+0x36>
		*self=Read_Struct;
 800348e:	687b      	ldr	r3, [r7, #4]
 8003490:	4618      	mov	r0, r3
 8003492:	f107 030c 	add.w	r3, r7, #12
 8003496:	227c      	movs	r2, #124	; 0x7c
 8003498:	4619      	mov	r1, r3
 800349a:	f005 fcfd 	bl	8008e98 <memcpy>
		return HAL_OK;
 800349e:	2300      	movs	r3, #0
 80034a0:	e000      	b.n	80034a4 <Soldering_Separator_Flash_Read_Struct+0x38>
	}else
		return HAL_ERROR;
 80034a2:	2301      	movs	r3, #1
}
 80034a4:	4618      	mov	r0, r3
 80034a6:	3788      	adds	r7, #136	; 0x88
 80034a8:	46bd      	mov	sp, r7
 80034aa:	bd80      	pop	{r7, pc}
 80034ac:	1801f804 	.word	0x1801f804

080034b0 <Soldering_Separator_Flash_Read_Manual_Temperature>:
//---------------------------------------------------------------------------------
uint32_t Soldering_Separator_Flash_Write_Manual_Temperature(struct Soldering_Separator *self){
	return Write_Manual_Temperature(&self->Temperature_Pressets, Soldering_Separator_Manual_Temperature_Flash_Key, Soldering_Separator_Manual_Temperature_Flash_Page);
}
//---------------------------------------------------------------------------------
uint8_t Soldering_Separator_Flash_Read_Manual_Temperature(struct Soldering_Separator *self){
 80034b0:	b580      	push	{r7, lr}
 80034b2:	b082      	sub	sp, #8
 80034b4:	af00      	add	r7, sp, #0
 80034b6:	6078      	str	r0, [r7, #4]
	return Flash_Read_Manual_Temperature(&self->Temperature_Pressets, Soldering_Separator_Manual_Temperature_Flash_Key, Soldering_Separator_Manual_Temperature_Flash_Page);
 80034b8:	687b      	ldr	r3, [r7, #4]
 80034ba:	3346      	adds	r3, #70	; 0x46
 80034bc:	227b      	movs	r2, #123	; 0x7b
 80034be:	4904      	ldr	r1, [pc, #16]	; (80034d0 <Soldering_Separator_Flash_Read_Manual_Temperature+0x20>)
 80034c0:	4618      	mov	r0, r3
 80034c2:	f000 f8aa 	bl	800361a <Flash_Read_Manual_Temperature>
 80034c6:	4603      	mov	r3, r0
}
 80034c8:	4618      	mov	r0, r3
 80034ca:	3708      	adds	r7, #8
 80034cc:	46bd      	mov	sp, r7
 80034ce:	bd80      	pop	{r7, pc}
 80034d0:	1801f808 	.word	0x1801f808

080034d4 <Soldering_Separator_Flash_Reset_Rewrite_Timer>:
//---------------------------------------------------------------------------------
void Soldering_Separator_Flash_Reset_Rewrite_Timer(struct Soldering_Separator *self){
 80034d4:	b580      	push	{r7, lr}
 80034d6:	b082      	sub	sp, #8
 80034d8:	af00      	add	r7, sp, #0
 80034da:	6078      	str	r0, [r7, #4]
	Flash_Reset_Rewrite_Timer(&self->Flash_Rewrite_Timer);
 80034dc:	687b      	ldr	r3, [r7, #4]
 80034de:	3372      	adds	r3, #114	; 0x72
 80034e0:	4618      	mov	r0, r3
 80034e2:	f000 f8c7 	bl	8003674 <Flash_Reset_Rewrite_Timer>
}
 80034e6:	bf00      	nop
 80034e8:	3708      	adds	r7, #8
 80034ea:	46bd      	mov	sp, r7
 80034ec:	bd80      	pop	{r7, pc}
	...

080034f0 <Soldering_Station_Read_Struct>:
//---------------------------------------------------------------------------------------------------------------------------------//FLASH Read ALL_Struct
uint8_t Soldering_Station_Read_Struct(struct Soldering_Iron *Soldering_Iron, struct Soldering_Heat_Gun *Soldering_Heat_Gun, struct Soldering_Separator *Soldering_Separator){
 80034f0:	b580      	push	{r7, lr}
 80034f2:	b086      	sub	sp, #24
 80034f4:	af00      	add	r7, sp, #0
 80034f6:	60f8      	str	r0, [r7, #12]
 80034f8:	60b9      	str	r1, [r7, #8]
 80034fa:	607a      	str	r2, [r7, #4]

	uint8_t Status=HAL_OK;
 80034fc:	2300      	movs	r3, #0
 80034fe:	75fb      	strb	r3, [r7, #23]
	uint32_t addr = Flash_Base_Addr + Flash_Addr_Page_Size*Soldering_Station_ALL_Struct_Flash_Page;
 8003500:	4b13      	ldr	r3, [pc, #76]	; (8003550 <Soldering_Station_Read_Struct+0x60>)
 8003502:	613b      	str	r3, [r7, #16]
	Status|=Solder_Iron_Flash_Read_Struct(Soldering_Iron,addr);
 8003504:	6939      	ldr	r1, [r7, #16]
 8003506:	68f8      	ldr	r0, [r7, #12]
 8003508:	f7ff fd9c 	bl	8003044 <Solder_Iron_Flash_Read_Struct>
 800350c:	4603      	mov	r3, r0
 800350e:	461a      	mov	r2, r3
 8003510:	7dfb      	ldrb	r3, [r7, #23]
 8003512:	4313      	orrs	r3, r2
 8003514:	75fb      	strb	r3, [r7, #23]
	addr+=sizeof(*Soldering_Iron)+2;
 8003516:	693b      	ldr	r3, [r7, #16]
 8003518:	339e      	adds	r3, #158	; 0x9e
 800351a:	613b      	str	r3, [r7, #16]
	Status|=Soldering_Heat_Gun_Flash_Read_Struct(Soldering_Heat_Gun,addr);
 800351c:	6939      	ldr	r1, [r7, #16]
 800351e:	68b8      	ldr	r0, [r7, #8]
 8003520:	f7ff febe 	bl	80032a0 <Soldering_Heat_Gun_Flash_Read_Struct>
 8003524:	4603      	mov	r3, r0
 8003526:	461a      	mov	r2, r3
 8003528:	7dfb      	ldrb	r3, [r7, #23]
 800352a:	4313      	orrs	r3, r2
 800352c:	75fb      	strb	r3, [r7, #23]
	addr+=sizeof(*Soldering_Heat_Gun)+2;
 800352e:	693b      	ldr	r3, [r7, #16]
 8003530:	338e      	adds	r3, #142	; 0x8e
 8003532:	613b      	str	r3, [r7, #16]
	Status|=Soldering_Separator_Flash_Read_Struct(Soldering_Separator,addr);
 8003534:	6939      	ldr	r1, [r7, #16]
 8003536:	6878      	ldr	r0, [r7, #4]
 8003538:	f7ff ff98 	bl	800346c <Soldering_Separator_Flash_Read_Struct>
 800353c:	4603      	mov	r3, r0
 800353e:	461a      	mov	r2, r3
 8003540:	7dfb      	ldrb	r3, [r7, #23]
 8003542:	4313      	orrs	r3, r2
 8003544:	75fb      	strb	r3, [r7, #23]

	return Status;
 8003546:	7dfb      	ldrb	r3, [r7, #23]
}
 8003548:	4618      	mov	r0, r3
 800354a:	3718      	adds	r7, #24
 800354c:	46bd      	mov	sp, r7
 800354e:	bd80      	pop	{r7, pc}
 8003550:	0801f800 	.word	0x0801f800

08003554 <Soldering_Station_Write_Struct>:
//---------------------------------------------------------------------------------
uint8_t Soldering_Station_Write_Struct(struct Soldering_Iron *Soldering_Iron, struct Soldering_Heat_Gun *Soldering_Heat_Gun, struct Soldering_Separator *Soldering_Separator){
 8003554:	b580      	push	{r7, lr}
 8003556:	b086      	sub	sp, #24
 8003558:	af00      	add	r7, sp, #0
 800355a:	60f8      	str	r0, [r7, #12]
 800355c:	60b9      	str	r1, [r7, #8]
 800355e:	607a      	str	r2, [r7, #4]

	uint8_t Status=HAL_OK;
 8003560:	2300      	movs	r3, #0
 8003562:	75fb      	strb	r3, [r7, #23]

	uint32_t addr = Flash_Base_Addr + Flash_Addr_Page_Size*Soldering_Station_ALL_Struct_Flash_Page;
 8003564:	4b19      	ldr	r3, [pc, #100]	; (80035cc <Soldering_Station_Write_Struct+0x78>)
 8003566:	613b      	str	r3, [r7, #16]

	Flash_Erase (addr,sizeof(*Soldering_Iron)+2+sizeof(*Soldering_Heat_Gun)+2+sizeof(*Soldering_Separator));
 8003568:	f44f 71d4 	mov.w	r1, #424	; 0x1a8
 800356c:	6938      	ldr	r0, [r7, #16]
 800356e:	f7fd fc49 	bl	8000e04 <Flash_Erase>

	if(Solder_Iron_Flash_Write_Struct(Soldering_Iron,addr)==HAL_ERROR)
 8003572:	6939      	ldr	r1, [r7, #16]
 8003574:	68f8      	ldr	r0, [r7, #12]
 8003576:	f7ff fd56 	bl	8003026 <Solder_Iron_Flash_Write_Struct>
 800357a:	4603      	mov	r3, r0
 800357c:	2b01      	cmp	r3, #1
 800357e:	d103      	bne.n	8003588 <Soldering_Station_Write_Struct+0x34>
		Status|=HAL_ERROR;
 8003580:	7dfb      	ldrb	r3, [r7, #23]
 8003582:	f043 0301 	orr.w	r3, r3, #1
 8003586:	75fb      	strb	r3, [r7, #23]
	addr+=sizeof(*Soldering_Iron)+2;
 8003588:	693b      	ldr	r3, [r7, #16]
 800358a:	339e      	adds	r3, #158	; 0x9e
 800358c:	613b      	str	r3, [r7, #16]
	if(Soldering_Heat_Gun_Flash_Write_Struct(Soldering_Heat_Gun,addr)==HAL_ERROR)
 800358e:	6939      	ldr	r1, [r7, #16]
 8003590:	68b8      	ldr	r0, [r7, #8]
 8003592:	f7ff fe76 	bl	8003282 <Soldering_Heat_Gun_Flash_Write_Struct>
 8003596:	4603      	mov	r3, r0
 8003598:	2b01      	cmp	r3, #1
 800359a:	d103      	bne.n	80035a4 <Soldering_Station_Write_Struct+0x50>
		Status|=HAL_ERROR;
 800359c:	7dfb      	ldrb	r3, [r7, #23]
 800359e:	f043 0301 	orr.w	r3, r3, #1
 80035a2:	75fb      	strb	r3, [r7, #23]
	addr+=sizeof(*Soldering_Heat_Gun)+2;
 80035a4:	693b      	ldr	r3, [r7, #16]
 80035a6:	338e      	adds	r3, #142	; 0x8e
 80035a8:	613b      	str	r3, [r7, #16]
	if(Soldering_Separator_Flash_Write_Struct(Soldering_Separator,addr)==HAL_ERROR)
 80035aa:	6939      	ldr	r1, [r7, #16]
 80035ac:	6878      	ldr	r0, [r7, #4]
 80035ae:	f7ff ff4e 	bl	800344e <Soldering_Separator_Flash_Write_Struct>
 80035b2:	4603      	mov	r3, r0
 80035b4:	2b01      	cmp	r3, #1
 80035b6:	d103      	bne.n	80035c0 <Soldering_Station_Write_Struct+0x6c>
		Status|=HAL_ERROR;
 80035b8:	7dfb      	ldrb	r3, [r7, #23]
 80035ba:	f043 0301 	orr.w	r3, r3, #1
 80035be:	75fb      	strb	r3, [r7, #23]

	return Status;
 80035c0:	7dfb      	ldrb	r3, [r7, #23]
}
 80035c2:	4618      	mov	r0, r3
 80035c4:	3718      	adds	r7, #24
 80035c6:	46bd      	mov	sp, r7
 80035c8:	bd80      	pop	{r7, pc}
 80035ca:	bf00      	nop
 80035cc:	0801f800 	.word	0x0801f800

080035d0 <Write_Manual_Temperature>:
//---------------------------------------------------------------------------------
uint32_t Write_Manual_Temperature(struct Temperature_Pressets *self, uint32_t Flash_Key, uint8_t Flash_Page){
 80035d0:	b580      	push	{r7, lr}
 80035d2:	b086      	sub	sp, #24
 80035d4:	af00      	add	r7, sp, #0
 80035d6:	60f8      	str	r0, [r7, #12]
 80035d8:	60b9      	str	r1, [r7, #8]
 80035da:	4613      	mov	r3, r2
 80035dc:	71fb      	strb	r3, [r7, #7]

	uint32_t addr = Flash_Base_Addr + Flash_Addr_Page_Size*Flash_Page;
 80035de:	79fb      	ldrb	r3, [r7, #7]
 80035e0:	f503 3300 	add.w	r3, r3, #131072	; 0x20000
 80035e4:	029b      	lsls	r3, r3, #10
 80035e6:	617b      	str	r3, [r7, #20]

	Flash_Erase (addr,sizeof(self->Manual)+sizeof(Flash_Key));
 80035e8:	2106      	movs	r1, #6
 80035ea:	6978      	ldr	r0, [r7, #20]
 80035ec:	f7fd fc0a 	bl	8000e04 <Flash_Erase>

	Flash_Write (addr,&self->Manual, sizeof(self->Manual));
 80035f0:	68fb      	ldr	r3, [r7, #12]
 80035f2:	2202      	movs	r2, #2
 80035f4:	4619      	mov	r1, r3
 80035f6:	6978      	ldr	r0, [r7, #20]
 80035f8:	f7fd fc33 	bl	8000e62 <Flash_Write>

	addr+=sizeof(self->Manual)+2;
 80035fc:	697b      	ldr	r3, [r7, #20]
 80035fe:	3304      	adds	r3, #4
 8003600:	617b      	str	r3, [r7, #20]

	return Flash_Write (addr,&Flash_Key, sizeof(Flash_Key));
 8003602:	f107 0308 	add.w	r3, r7, #8
 8003606:	2204      	movs	r2, #4
 8003608:	4619      	mov	r1, r3
 800360a:	6978      	ldr	r0, [r7, #20]
 800360c:	f7fd fc29 	bl	8000e62 <Flash_Write>
 8003610:	4603      	mov	r3, r0

}
 8003612:	4618      	mov	r0, r3
 8003614:	3718      	adds	r7, #24
 8003616:	46bd      	mov	sp, r7
 8003618:	bd80      	pop	{r7, pc}

0800361a <Flash_Read_Manual_Temperature>:
//---------------------------------------------------------------------------------
uint8_t Flash_Read_Manual_Temperature(struct Temperature_Pressets *self, uint32_t Flash_Key, uint8_t Flash_Page){
 800361a:	b580      	push	{r7, lr}
 800361c:	b088      	sub	sp, #32
 800361e:	af00      	add	r7, sp, #0
 8003620:	60f8      	str	r0, [r7, #12]
 8003622:	60b9      	str	r1, [r7, #8]
 8003624:	4613      	mov	r3, r2
 8003626:	71fb      	strb	r3, [r7, #7]
	uint32_t addr = Flash_Base_Addr + Flash_Addr_Page_Size*Flash_Page;
 8003628:	79fb      	ldrb	r3, [r7, #7]
 800362a:	f503 3300 	add.w	r3, r3, #131072	; 0x20000
 800362e:	029b      	lsls	r3, r3, #10
 8003630:	61fb      	str	r3, [r7, #28]
	uint32_t Flash_Read_Key=0;
 8003632:	2300      	movs	r3, #0
 8003634:	61bb      	str	r3, [r7, #24]
	uint16_t Temperature;

	Flash_Read (addr, &Temperature, sizeof(self->Manual));
 8003636:	f107 0316 	add.w	r3, r7, #22
 800363a:	2202      	movs	r2, #2
 800363c:	4619      	mov	r1, r3
 800363e:	69f8      	ldr	r0, [r7, #28]
 8003640:	f7fd fc4c 	bl	8000edc <Flash_Read>
	addr+=sizeof(self->Manual)+2;
 8003644:	69fb      	ldr	r3, [r7, #28]
 8003646:	3304      	adds	r3, #4
 8003648:	61fb      	str	r3, [r7, #28]
	Flash_Read (addr, &Flash_Read_Key,  sizeof(Flash_Read_Key));
 800364a:	f107 0318 	add.w	r3, r7, #24
 800364e:	2204      	movs	r2, #4
 8003650:	4619      	mov	r1, r3
 8003652:	69f8      	ldr	r0, [r7, #28]
 8003654:	f7fd fc42 	bl	8000edc <Flash_Read>

	if(Flash_Read_Key==Flash_Key){
 8003658:	69bb      	ldr	r3, [r7, #24]
 800365a:	68ba      	ldr	r2, [r7, #8]
 800365c:	429a      	cmp	r2, r3
 800365e:	d104      	bne.n	800366a <Flash_Read_Manual_Temperature+0x50>
		self->Manual=Temperature;
 8003660:	8afa      	ldrh	r2, [r7, #22]
 8003662:	68fb      	ldr	r3, [r7, #12]
 8003664:	801a      	strh	r2, [r3, #0]
		return HAL_OK;
 8003666:	2300      	movs	r3, #0
 8003668:	e000      	b.n	800366c <Flash_Read_Manual_Temperature+0x52>
	}
	else
		return HAL_ERROR;
 800366a:	2301      	movs	r3, #1
}
 800366c:	4618      	mov	r0, r3
 800366e:	3720      	adds	r7, #32
 8003670:	46bd      	mov	sp, r7
 8003672:	bd80      	pop	{r7, pc}

08003674 <Flash_Reset_Rewrite_Timer>:
//---------------------------------------------------------------------------------
void Flash_Reset_Rewrite_Timer(struct Flash_Rewrite_Timer *self){
 8003674:	b480      	push	{r7}
 8003676:	b083      	sub	sp, #12
 8003678:	af00      	add	r7, sp, #0
 800367a:	6078      	str	r0, [r7, #4]
	self->Flash_Timer_Count=0;
 800367c:	687b      	ldr	r3, [r7, #4]
 800367e:	2200      	movs	r2, #0
 8003680:	801a      	strh	r2, [r3, #0]
	self->Flash_Timer_State=Flash_Timer_State_ON;
 8003682:	687b      	ldr	r3, [r7, #4]
 8003684:	2201      	movs	r2, #1
 8003686:	709a      	strb	r2, [r3, #2]
}
 8003688:	bf00      	nop
 800368a:	370c      	adds	r7, #12
 800368c:	46bd      	mov	sp, r7
 800368e:	bc80      	pop	{r7}
 8003690:	4770      	bx	lr

08003692 <Flash_Rewrite_Timer_it>:
//---------------------------------------------------------------------------------
void Flash_Rewrite_Timer_it(struct Flash_Rewrite_Timer *Flash_Rewrite_Timer, struct Temperature_Pressets *Temperature_Pressets,uint32_t Flash_Key, uint8_t Flash_Page){
 8003692:	b580      	push	{r7, lr}
 8003694:	b084      	sub	sp, #16
 8003696:	af00      	add	r7, sp, #0
 8003698:	60f8      	str	r0, [r7, #12]
 800369a:	60b9      	str	r1, [r7, #8]
 800369c:	607a      	str	r2, [r7, #4]
 800369e:	70fb      	strb	r3, [r7, #3]
	if(Flash_Rewrite_Timer->Flash_Timer_State==Flash_Timer_State_ON){
 80036a0:	68fb      	ldr	r3, [r7, #12]
 80036a2:	789b      	ldrb	r3, [r3, #2]
 80036a4:	2b01      	cmp	r3, #1
 80036a6:	d110      	bne.n	80036ca <Flash_Rewrite_Timer_it+0x38>
		if(Flash_Rewrite_Timer->Flash_Timer_Count++==Flash_Rewrite_Timer_Max_Count){
 80036a8:	68fb      	ldr	r3, [r7, #12]
 80036aa:	881b      	ldrh	r3, [r3, #0]
 80036ac:	1c5a      	adds	r2, r3, #1
 80036ae:	b291      	uxth	r1, r2
 80036b0:	68fa      	ldr	r2, [r7, #12]
 80036b2:	8011      	strh	r1, [r2, #0]
 80036b4:	2bc8      	cmp	r3, #200	; 0xc8
 80036b6:	d108      	bne.n	80036ca <Flash_Rewrite_Timer_it+0x38>
			Write_Manual_Temperature(Temperature_Pressets, Flash_Key, Flash_Page);
 80036b8:	78fb      	ldrb	r3, [r7, #3]
 80036ba:	461a      	mov	r2, r3
 80036bc:	6879      	ldr	r1, [r7, #4]
 80036be:	68b8      	ldr	r0, [r7, #8]
 80036c0:	f7ff ff86 	bl	80035d0 <Write_Manual_Temperature>
			Flash_Rewrite_Timer->Flash_Timer_State=Flash_Timer_State_OFF;
 80036c4:	68fb      	ldr	r3, [r7, #12]
 80036c6:	2200      	movs	r2, #0
 80036c8:	709a      	strb	r2, [r3, #2]
		}
	}
}
 80036ca:	bf00      	nop
 80036cc:	3710      	adds	r7, #16
 80036ce:	46bd      	mov	sp, r7
 80036d0:	bd80      	pop	{r7, pc}
	...

080036d4 <Flash_Rewrite_Timer_tim_it>:
//---------------------------------------------------------------------------------
void Flash_Rewrite_Timer_tim_it(struct Soldering_Iron *Soldering_Iron, struct Soldering_Heat_Gun *Soldering_Heat_Gun, struct Soldering_Separator *Soldering_Separator){
 80036d4:	b580      	push	{r7, lr}
 80036d6:	b084      	sub	sp, #16
 80036d8:	af00      	add	r7, sp, #0
 80036da:	60f8      	str	r0, [r7, #12]
 80036dc:	60b9      	str	r1, [r7, #8]
 80036de:	607a      	str	r2, [r7, #4]
	Flash_Rewrite_Timer_it(&Soldering_Iron->Flash_Rewrite_Timer, &Soldering_Iron->Temperature_Pressets, Soldering_Iron_Manual_Temperature_Flash_Key, Soldering_Iron_Manual_Temperature_Flash_Page);
 80036e0:	68fb      	ldr	r3, [r7, #12]
 80036e2:	f103 0094 	add.w	r0, r3, #148	; 0x94
 80036e6:	68fb      	ldr	r3, [r7, #12]
 80036e8:	f103 0146 	add.w	r1, r3, #70	; 0x46
 80036ec:	237d      	movs	r3, #125	; 0x7d
 80036ee:	4a0d      	ldr	r2, [pc, #52]	; (8003724 <Flash_Rewrite_Timer_tim_it+0x50>)
 80036f0:	f7ff ffcf 	bl	8003692 <Flash_Rewrite_Timer_it>
	Flash_Rewrite_Timer_it(&Soldering_Heat_Gun->Flash_Rewrite_Timer, &Soldering_Heat_Gun->Temperature_Pressets, Soldering_Heat_Gun_Manual_Temperature_Flash_Key, Soldering_Heat_Gun_Manual_Temperature_Flash_Page);
 80036f4:	68bb      	ldr	r3, [r7, #8]
 80036f6:	f103 0084 	add.w	r0, r3, #132	; 0x84
 80036fa:	68bb      	ldr	r3, [r7, #8]
 80036fc:	f103 0146 	add.w	r1, r3, #70	; 0x46
 8003700:	237c      	movs	r3, #124	; 0x7c
 8003702:	4a09      	ldr	r2, [pc, #36]	; (8003728 <Flash_Rewrite_Timer_tim_it+0x54>)
 8003704:	f7ff ffc5 	bl	8003692 <Flash_Rewrite_Timer_it>
	Flash_Rewrite_Timer_it(&Soldering_Separator->Flash_Rewrite_Timer, &Soldering_Separator->Temperature_Pressets, Soldering_Separator_Manual_Temperature_Flash_Key, Soldering_Separator_Manual_Temperature_Flash_Page);
 8003708:	687b      	ldr	r3, [r7, #4]
 800370a:	f103 0072 	add.w	r0, r3, #114	; 0x72
 800370e:	687b      	ldr	r3, [r7, #4]
 8003710:	f103 0146 	add.w	r1, r3, #70	; 0x46
 8003714:	237b      	movs	r3, #123	; 0x7b
 8003716:	4a05      	ldr	r2, [pc, #20]	; (800372c <Flash_Rewrite_Timer_tim_it+0x58>)
 8003718:	f7ff ffbb 	bl	8003692 <Flash_Rewrite_Timer_it>
}
 800371c:	bf00      	nop
 800371e:	3710      	adds	r7, #16
 8003720:	46bd      	mov	sp, r7
 8003722:	bd80      	pop	{r7, pc}
 8003724:	0801f806 	.word	0x0801f806
 8003728:	0801f808 	.word	0x0801f808
 800372c:	1801f808 	.word	0x1801f808

08003730 <Flash_Rewrite_Timer_ini>:
//---------------------------------------------------------------------------------
void Flash_Rewrite_Timer_ini(struct Flash_Rewrite_Timer *self){
 8003730:	b480      	push	{r7}
 8003732:	b083      	sub	sp, #12
 8003734:	af00      	add	r7, sp, #0
 8003736:	6078      	str	r0, [r7, #4]
	self->Flash_Timer_Count=0;
 8003738:	687b      	ldr	r3, [r7, #4]
 800373a:	2200      	movs	r2, #0
 800373c:	801a      	strh	r2, [r3, #0]
	self->Flash_Timer_State=Flash_Timer_State_OFF;
 800373e:	687b      	ldr	r3, [r7, #4]
 8003740:	2200      	movs	r2, #0
 8003742:	709a      	strb	r2, [r3, #2]
}
 8003744:	bf00      	nop
 8003746:	370c      	adds	r7, #12
 8003748:	46bd      	mov	sp, r7
 800374a:	bc80      	pop	{r7}
 800374c:	4770      	bx	lr
	...

08003750 <ZCD_ON_Callback>:
/* USER CODE END PFP */

/* Private user code ---------------------------------------------------------*/
/* USER CODE BEGIN 0 */
//---------------------------------------------------------------------------------
void ZCD_ON_Callback(struct ZCD *self){
 8003750:	b480      	push	{r7}
 8003752:	b083      	sub	sp, #12
 8003754:	af00      	add	r7, sp, #0
 8003756:	6078      	str	r0, [r7, #4]
	Soldering_Heat_Gun.PID.MAX_Control=ZCD.MAX_TIM_Counter;
 8003758:	4b06      	ldr	r3, [pc, #24]	; (8003774 <ZCD_ON_Callback+0x24>)
 800375a:	88da      	ldrh	r2, [r3, #6]
 800375c:	4b06      	ldr	r3, [pc, #24]	; (8003778 <ZCD_ON_Callback+0x28>)
 800375e:	821a      	strh	r2, [r3, #16]
	Soldering_Separator.PID.MAX_Control=ZCD.MAX_TIM_Counter;
 8003760:	4b04      	ldr	r3, [pc, #16]	; (8003774 <ZCD_ON_Callback+0x24>)
 8003762:	88da      	ldrh	r2, [r3, #6]
 8003764:	4b05      	ldr	r3, [pc, #20]	; (800377c <ZCD_ON_Callback+0x2c>)
 8003766:	821a      	strh	r2, [r3, #16]
}
 8003768:	bf00      	nop
 800376a:	370c      	adds	r7, #12
 800376c:	46bd      	mov	sp, r7
 800376e:	bc80      	pop	{r7}
 8003770:	4770      	bx	lr
 8003772:	bf00      	nop
 8003774:	200009cc 	.word	0x200009cc
 8003778:	200008c4 	.word	0x200008c4
 800377c:	20000950 	.word	0x20000950

08003780 <HAL_ADC_ConvCpltCallback>:
//--------------------------------------------------------------------------------- ADC_Callback
void HAL_ADC_ConvCpltCallback(ADC_HandleTypeDef* hadc)
{
 8003780:	b580      	push	{r7, lr}
 8003782:	b082      	sub	sp, #8
 8003784:	af00      	add	r7, sp, #0
 8003786:	6078      	str	r0, [r7, #4]
	Solder_Iron_it(&Soldering_Iron);				//PID_IT
 8003788:	4806      	ldr	r0, [pc, #24]	; (80037a4 <HAL_ADC_ConvCpltCallback+0x24>)
 800378a:	f7ff faed 	bl	8002d68 <Solder_Iron_it>
	Soldering_Heat_Gun_it(&Soldering_Heat_Gun);		//PID_IT
 800378e:	4806      	ldr	r0, [pc, #24]	; (80037a8 <HAL_ADC_ConvCpltCallback+0x28>)
 8003790:	f7ff fd28 	bl	80031e4 <Soldering_Heat_Gun_it>
	Soldering_Separator_it(&Soldering_Separator);
 8003794:	4805      	ldr	r0, [pc, #20]	; (80037ac <HAL_ADC_ConvCpltCallback+0x2c>)
 8003796:	f7ff fe2e 	bl	80033f6 <Soldering_Separator_it>
}
 800379a:	bf00      	nop
 800379c:	3708      	adds	r7, #8
 800379e:	46bd      	mov	sp, r7
 80037a0:	bd80      	pop	{r7, pc}
 80037a2:	bf00      	nop
 80037a4:	20000828 	.word	0x20000828
 80037a8:	200008c4 	.word	0x200008c4
 80037ac:	20000950 	.word	0x20000950

080037b0 <HAL_GPIO_EXTI_Callback>:
//--------------------------------------------------------------------------------- EXTI
void HAL_GPIO_EXTI_Callback(uint16_t GPIO_PIN)
{
 80037b0:	b580      	push	{r7, lr}
 80037b2:	b082      	sub	sp, #8
 80037b4:	af00      	add	r7, sp, #0
 80037b6:	4603      	mov	r3, r0
 80037b8:	80fb      	strh	r3, [r7, #6]
	if(PAC_EXTI(&PAC,&GPIO_PIN)!=1){
 80037ba:	1dbb      	adds	r3, r7, #6
 80037bc:	4619      	mov	r1, r3
 80037be:	480c      	ldr	r0, [pc, #48]	; (80037f0 <HAL_GPIO_EXTI_Callback+0x40>)
 80037c0:	f7ff f93f 	bl	8002a42 <PAC_EXTI>
 80037c4:	4603      	mov	r3, r0
 80037c6:	2b01      	cmp	r3, #1
 80037c8:	d00e      	beq.n	80037e8 <HAL_GPIO_EXTI_Callback+0x38>
		Button_Vector_EXTI(&Button_Vector,&GPIO_PIN);
 80037ca:	1dbb      	adds	r3, r7, #6
 80037cc:	4619      	mov	r1, r3
 80037ce:	4809      	ldr	r0, [pc, #36]	; (80037f4 <HAL_GPIO_EXTI_Callback+0x44>)
 80037d0:	f7fd f9d2 	bl	8000b78 <Button_Vector_EXTI>
		Incoder_EXTI(&Incoder_P2, &GPIO_PIN);
 80037d4:	1dbb      	adds	r3, r7, #6
 80037d6:	4619      	mov	r1, r3
 80037d8:	4807      	ldr	r0, [pc, #28]	; (80037f8 <HAL_GPIO_EXTI_Callback+0x48>)
 80037da:	f7fd f82e 	bl	800083a <Incoder_EXTI>
		Incoder_EXTI(&Incoder_P1, &GPIO_PIN);
 80037de:	1dbb      	adds	r3, r7, #6
 80037e0:	4619      	mov	r1, r3
 80037e2:	4806      	ldr	r0, [pc, #24]	; (80037fc <HAL_GPIO_EXTI_Callback+0x4c>)
 80037e4:	f7fd f829 	bl	800083a <Incoder_EXTI>
	}
}
 80037e8:	bf00      	nop
 80037ea:	3708      	adds	r7, #8
 80037ec:	46bd      	mov	sp, r7
 80037ee:	bd80      	pop	{r7, pc}
 80037f0:	200009dc 	.word	0x200009dc
 80037f4:	200007d4 	.word	0x200007d4
 80037f8:	2000077c 	.word	0x2000077c
 80037fc:	200007a8 	.word	0x200007a8

08003800 <HAL_TIM_PeriodElapsedCallback>:
//---------------------------------------------------------------------------------TIM_Callback
void HAL_TIM_PeriodElapsedCallback(TIM_HandleTypeDef *htim)
{
 8003800:	b580      	push	{r7, lr}
 8003802:	b082      	sub	sp, #8
 8003804:	af00      	add	r7, sp, #0
 8003806:	6078      	str	r0, [r7, #4]
	static uint8_t prescaler=1;


        if(htim->Instance == TIM1) //check if the interrupt comes from TIM1									//ADC DMA
 8003808:	687b      	ldr	r3, [r7, #4]
 800380a:	681b      	ldr	r3, [r3, #0]
 800380c:	4a1d      	ldr	r2, [pc, #116]	; (8003884 <HAL_TIM_PeriodElapsedCallback+0x84>)
 800380e:	4293      	cmp	r3, r2
 8003810:	d114      	bne.n	800383c <HAL_TIM_PeriodElapsedCallback+0x3c>
        {
        	if(prescaler==1){
 8003812:	4b1d      	ldr	r3, [pc, #116]	; (8003888 <HAL_TIM_PeriodElapsedCallback+0x88>)
 8003814:	781b      	ldrb	r3, [r3, #0]
 8003816:	2b01      	cmp	r3, #1
 8003818:	d107      	bne.n	800382a <HAL_TIM_PeriodElapsedCallback+0x2a>
        		HAL_TIM_PWM_Stop(&htim2, TIM_CHANNEL_4);
 800381a:	210c      	movs	r1, #12
 800381c:	481b      	ldr	r0, [pc, #108]	; (800388c <HAL_TIM_PeriodElapsedCallback+0x8c>)
 800381e:	f004 fc15 	bl	800804c <HAL_TIM_PWM_Stop>
        		prescaler=0;
 8003822:	4b19      	ldr	r3, [pc, #100]	; (8003888 <HAL_TIM_PeriodElapsedCallback+0x88>)
 8003824:	2200      	movs	r2, #0
 8003826:	701a      	strb	r2, [r3, #0]
        	Incoder_it(&Incoder_P1);
        	Incoder_it(&Incoder_P2);
        }else if(htim->Instance == TIM4){
        	PAC_it(&PAC);
        }
}
 8003828:	e027      	b.n	800387a <HAL_TIM_PeriodElapsedCallback+0x7a>
        		HAL_ADC_Start_DMA(&hadc1,(uint32_t*)&ADC_Data[0],(uint32_t)16);
 800382a:	2210      	movs	r2, #16
 800382c:	4918      	ldr	r1, [pc, #96]	; (8003890 <HAL_TIM_PeriodElapsedCallback+0x90>)
 800382e:	4819      	ldr	r0, [pc, #100]	; (8003894 <HAL_TIM_PeriodElapsedCallback+0x94>)
 8003830:	f001 fcc0 	bl	80051b4 <HAL_ADC_Start_DMA>
        		prescaler=1;
 8003834:	4b14      	ldr	r3, [pc, #80]	; (8003888 <HAL_TIM_PeriodElapsedCallback+0x88>)
 8003836:	2201      	movs	r2, #1
 8003838:	701a      	strb	r2, [r3, #0]
}
 800383a:	e01e      	b.n	800387a <HAL_TIM_PeriodElapsedCallback+0x7a>
        }else if(htim->Instance == TIM3){																	//Service  TIM3
 800383c:	687b      	ldr	r3, [r7, #4]
 800383e:	681b      	ldr	r3, [r3, #0]
 8003840:	4a15      	ldr	r2, [pc, #84]	; (8003898 <HAL_TIM_PeriodElapsedCallback+0x98>)
 8003842:	4293      	cmp	r3, r2
 8003844:	d111      	bne.n	800386a <HAL_TIM_PeriodElapsedCallback+0x6a>
        	Flash_Rewrite_Timer_tim_it(&Soldering_Iron, &Soldering_Heat_Gun, &Soldering_Separator);
 8003846:	4a15      	ldr	r2, [pc, #84]	; (800389c <HAL_TIM_PeriodElapsedCallback+0x9c>)
 8003848:	4915      	ldr	r1, [pc, #84]	; (80038a0 <HAL_TIM_PeriodElapsedCallback+0xa0>)
 800384a:	4816      	ldr	r0, [pc, #88]	; (80038a4 <HAL_TIM_PeriodElapsedCallback+0xa4>)
 800384c:	f7ff ff42 	bl	80036d4 <Flash_Rewrite_Timer_tim_it>
        	Solder_Iron_tim_it(&Soldering_Iron);
 8003850:	4814      	ldr	r0, [pc, #80]	; (80038a4 <HAL_TIM_PeriodElapsedCallback+0xa4>)
 8003852:	f7ff fad7 	bl	8002e04 <Solder_Iron_tim_it>
        	Button_Vector_it(&Button_Vector);
 8003856:	4814      	ldr	r0, [pc, #80]	; (80038a8 <HAL_TIM_PeriodElapsedCallback+0xa8>)
 8003858:	f7fd f9a6 	bl	8000ba8 <Button_Vector_it>
        	Incoder_it(&Incoder_P1);
 800385c:	4813      	ldr	r0, [pc, #76]	; (80038ac <HAL_TIM_PeriodElapsedCallback+0xac>)
 800385e:	f7fd f91a 	bl	8000a96 <Incoder_it>
        	Incoder_it(&Incoder_P2);
 8003862:	4813      	ldr	r0, [pc, #76]	; (80038b0 <HAL_TIM_PeriodElapsedCallback+0xb0>)
 8003864:	f7fd f917 	bl	8000a96 <Incoder_it>
}
 8003868:	e007      	b.n	800387a <HAL_TIM_PeriodElapsedCallback+0x7a>
        }else if(htim->Instance == TIM4){
 800386a:	687b      	ldr	r3, [r7, #4]
 800386c:	681b      	ldr	r3, [r3, #0]
 800386e:	4a11      	ldr	r2, [pc, #68]	; (80038b4 <HAL_TIM_PeriodElapsedCallback+0xb4>)
 8003870:	4293      	cmp	r3, r2
 8003872:	d102      	bne.n	800387a <HAL_TIM_PeriodElapsedCallback+0x7a>
        	PAC_it(&PAC);
 8003874:	4810      	ldr	r0, [pc, #64]	; (80038b8 <HAL_TIM_PeriodElapsedCallback+0xb8>)
 8003876:	f7ff f93b 	bl	8002af0 <PAC_it>
}
 800387a:	bf00      	nop
 800387c:	3708      	adds	r7, #8
 800387e:	46bd      	mov	sp, r7
 8003880:	bd80      	pop	{r7, pc}
 8003882:	bf00      	nop
 8003884:	40012c00 	.word	0x40012c00
 8003888:	20000478 	.word	0x20000478
 800388c:	2000069c 	.word	0x2000069c
 8003890:	200009e4 	.word	0x200009e4
 8003894:	2000058c 	.word	0x2000058c
 8003898:	40000400 	.word	0x40000400
 800389c:	20000950 	.word	0x20000950
 80038a0:	200008c4 	.word	0x200008c4
 80038a4:	20000828 	.word	0x20000828
 80038a8:	200007d4 	.word	0x200007d4
 80038ac:	200007a8 	.word	0x200007a8
 80038b0:	2000077c 	.word	0x2000077c
 80038b4:	40000800 	.word	0x40000800
 80038b8:	200009dc 	.word	0x200009dc

080038bc <BUTTON_INI>:
//--------------------------------------------------------------------------------- INI Blocks
void BUTTON_INI(void){
 80038bc:	b580      	push	{r7, lr}
 80038be:	b086      	sub	sp, #24
 80038c0:	af00      	add	r7, sp, #0
	struct Button Button_ini;

	Button_ini.ID=Button_ID_E2B1;
 80038c2:	2300      	movs	r3, #0
 80038c4:	703b      	strb	r3, [r7, #0]
	Button_ini.count_max=2;
 80038c6:	2302      	movs	r3, #2
 80038c8:	717b      	strb	r3, [r7, #5]
	Button_ini.EXTI_PIN=GPIO_PIN_14;
 80038ca:	f44f 4380 	mov.w	r3, #16384	; 0x4000
 80038ce:	813b      	strh	r3, [r7, #8]
	Button_ini.PIN=GPIO_PIN_8;
 80038d0:	f44f 7380 	mov.w	r3, #256	; 0x100
 80038d4:	817b      	strh	r3, [r7, #10]
	Button_ini.GPIO=GPIOA;
 80038d6:	4b3c      	ldr	r3, [pc, #240]	; (80039c8 <BUTTON_INI+0x10c>)
 80038d8:	60fb      	str	r3, [r7, #12]
	Button_ini.MODE=Button_Mode_Regular_With_EXTI;
 80038da:	2300      	movs	r3, #0
 80038dc:	743b      	strb	r3, [r7, #16]
	Button_Vector_Create(&Button_Vector,&Button_ini);
 80038de:	463b      	mov	r3, r7
 80038e0:	4619      	mov	r1, r3
 80038e2:	483a      	ldr	r0, [pc, #232]	; (80039cc <BUTTON_INI+0x110>)
 80038e4:	f7fd f90c 	bl	8000b00 <Button_Vector_Create>

	Button_ini.ID=Button_ID_E2B2;
 80038e8:	2301      	movs	r3, #1
 80038ea:	703b      	strb	r3, [r7, #0]
	Button_ini.count_max=2;
 80038ec:	2302      	movs	r3, #2
 80038ee:	717b      	strb	r3, [r7, #5]
	Button_ini.EXTI_PIN=GPIO_PIN_14;
 80038f0:	f44f 4380 	mov.w	r3, #16384	; 0x4000
 80038f4:	813b      	strh	r3, [r7, #8]
	Button_ini.PIN=GPIO_PIN_9;
 80038f6:	f44f 7300 	mov.w	r3, #512	; 0x200
 80038fa:	817b      	strh	r3, [r7, #10]
	Button_ini.GPIO=GPIOA;
 80038fc:	4b32      	ldr	r3, [pc, #200]	; (80039c8 <BUTTON_INI+0x10c>)
 80038fe:	60fb      	str	r3, [r7, #12]
	Button_ini.MODE=Button_Mode_Regular_With_EXTI;
 8003900:	2300      	movs	r3, #0
 8003902:	743b      	strb	r3, [r7, #16]
	Button_Vector_Create(&Button_Vector,&Button_ini);
 8003904:	463b      	mov	r3, r7
 8003906:	4619      	mov	r1, r3
 8003908:	4830      	ldr	r0, [pc, #192]	; (80039cc <BUTTON_INI+0x110>)
 800390a:	f7fd f8f9 	bl	8000b00 <Button_Vector_Create>

	Button_ini.ID=Button_ID_E2B3;
 800390e:	2302      	movs	r3, #2
 8003910:	703b      	strb	r3, [r7, #0]
	Button_ini.count_max=2;
 8003912:	2302      	movs	r3, #2
 8003914:	717b      	strb	r3, [r7, #5]
	Button_ini.EXTI_PIN=GPIO_PIN_14;
 8003916:	f44f 4380 	mov.w	r3, #16384	; 0x4000
 800391a:	813b      	strh	r3, [r7, #8]
	Button_ini.PIN=GPIO_PIN_10;
 800391c:	f44f 6380 	mov.w	r3, #1024	; 0x400
 8003920:	817b      	strh	r3, [r7, #10]
	Button_ini.GPIO=GPIOA;
 8003922:	4b29      	ldr	r3, [pc, #164]	; (80039c8 <BUTTON_INI+0x10c>)
 8003924:	60fb      	str	r3, [r7, #12]
	Button_ini.MODE=Button_Mode_Regular_With_EXTI;
 8003926:	2300      	movs	r3, #0
 8003928:	743b      	strb	r3, [r7, #16]
	Button_Vector_Create(&Button_Vector,&Button_ini);
 800392a:	463b      	mov	r3, r7
 800392c:	4619      	mov	r1, r3
 800392e:	4827      	ldr	r0, [pc, #156]	; (80039cc <BUTTON_INI+0x110>)
 8003930:	f7fd f8e6 	bl	8000b00 <Button_Vector_Create>

	Button_ini.ID=Button_ID_E1B1;
 8003934:	2303      	movs	r3, #3
 8003936:	703b      	strb	r3, [r7, #0]
	Button_ini.count_max=2;
 8003938:	2302      	movs	r3, #2
 800393a:	717b      	strb	r3, [r7, #5]
	Button_ini.EXTI_PIN=GPIO_PIN_3;
 800393c:	2308      	movs	r3, #8
 800393e:	813b      	strh	r3, [r7, #8]
	Button_ini.PIN=GPIO_PIN_4;
 8003940:	2310      	movs	r3, #16
 8003942:	817b      	strh	r3, [r7, #10]
	Button_ini.GPIO=GPIOB;
 8003944:	4b22      	ldr	r3, [pc, #136]	; (80039d0 <BUTTON_INI+0x114>)
 8003946:	60fb      	str	r3, [r7, #12]
	Button_ini.MODE=Button_Mode_Regular_With_EXTI;
 8003948:	2300      	movs	r3, #0
 800394a:	743b      	strb	r3, [r7, #16]
	Button_Vector_Create(&Button_Vector,&Button_ini);
 800394c:	463b      	mov	r3, r7
 800394e:	4619      	mov	r1, r3
 8003950:	481e      	ldr	r0, [pc, #120]	; (80039cc <BUTTON_INI+0x110>)
 8003952:	f7fd f8d5 	bl	8000b00 <Button_Vector_Create>

	Button_ini.ID=Button_ID_E1B2;
 8003956:	2304      	movs	r3, #4
 8003958:	703b      	strb	r3, [r7, #0]
	Button_ini.count_max=2;
 800395a:	2302      	movs	r3, #2
 800395c:	717b      	strb	r3, [r7, #5]
	Button_ini.EXTI_PIN=GPIO_PIN_3;
 800395e:	2308      	movs	r3, #8
 8003960:	813b      	strh	r3, [r7, #8]
	Button_ini.PIN=GPIO_PIN_5;
 8003962:	2320      	movs	r3, #32
 8003964:	817b      	strh	r3, [r7, #10]
	Button_ini.GPIO=GPIOB;
 8003966:	4b1a      	ldr	r3, [pc, #104]	; (80039d0 <BUTTON_INI+0x114>)
 8003968:	60fb      	str	r3, [r7, #12]
	Button_ini.MODE=Button_Mode_Regular_With_EXTI;
 800396a:	2300      	movs	r3, #0
 800396c:	743b      	strb	r3, [r7, #16]
	Button_Vector_Create(&Button_Vector,&Button_ini);
 800396e:	463b      	mov	r3, r7
 8003970:	4619      	mov	r1, r3
 8003972:	4816      	ldr	r0, [pc, #88]	; (80039cc <BUTTON_INI+0x110>)
 8003974:	f7fd f8c4 	bl	8000b00 <Button_Vector_Create>

	Button_ini.ID=Button_ID_E1B3;
 8003978:	2305      	movs	r3, #5
 800397a:	703b      	strb	r3, [r7, #0]
	Button_ini.count_max=2;
 800397c:	2302      	movs	r3, #2
 800397e:	717b      	strb	r3, [r7, #5]
	Button_ini.EXTI_PIN=GPIO_PIN_3;
 8003980:	2308      	movs	r3, #8
 8003982:	813b      	strh	r3, [r7, #8]
	Button_ini.PIN=GPIO_PIN_8;
 8003984:	f44f 7380 	mov.w	r3, #256	; 0x100
 8003988:	817b      	strh	r3, [r7, #10]
	Button_ini.GPIO=GPIOB;
 800398a:	4b11      	ldr	r3, [pc, #68]	; (80039d0 <BUTTON_INI+0x114>)
 800398c:	60fb      	str	r3, [r7, #12]
	Button_ini.MODE=Button_Mode_Regular_With_EXTI;
 800398e:	2300      	movs	r3, #0
 8003990:	743b      	strb	r3, [r7, #16]
	Button_Vector_Create(&Button_Vector,&Button_ini);
 8003992:	463b      	mov	r3, r7
 8003994:	4619      	mov	r1, r3
 8003996:	480d      	ldr	r0, [pc, #52]	; (80039cc <BUTTON_INI+0x110>)
 8003998:	f7fd f8b2 	bl	8000b00 <Button_Vector_Create>

	Button_ini.ID=Button_Gerkon_ID;
 800399c:	2306      	movs	r3, #6
 800399e:	703b      	strb	r3, [r7, #0]
	Button_ini.count_max=2;
 80039a0:	2302      	movs	r3, #2
 80039a2:	717b      	strb	r3, [r7, #5]
	Button_ini.EXTI_PIN=GPIO_PIN_2;
 80039a4:	2304      	movs	r3, #4
 80039a6:	813b      	strh	r3, [r7, #8]
	Button_ini.PIN=GPIO_PIN_2;
 80039a8:	2304      	movs	r3, #4
 80039aa:	817b      	strh	r3, [r7, #10]
	Button_ini.GPIO=GPIOA;
 80039ac:	4b06      	ldr	r3, [pc, #24]	; (80039c8 <BUTTON_INI+0x10c>)
 80039ae:	60fb      	str	r3, [r7, #12]
	Button_ini.MODE=Button_Mode_Regular_With_EXTI;
 80039b0:	2300      	movs	r3, #0
 80039b2:	743b      	strb	r3, [r7, #16]
	Button_Vector_Create(&Button_Vector,&Button_ini);
 80039b4:	463b      	mov	r3, r7
 80039b6:	4619      	mov	r1, r3
 80039b8:	4804      	ldr	r0, [pc, #16]	; (80039cc <BUTTON_INI+0x110>)
 80039ba:	f7fd f8a1 	bl	8000b00 <Button_Vector_Create>


}
 80039be:	bf00      	nop
 80039c0:	3718      	adds	r7, #24
 80039c2:	46bd      	mov	sp, r7
 80039c4:	bd80      	pop	{r7, pc}
 80039c6:	bf00      	nop
 80039c8:	40010800 	.word	0x40010800
 80039cc:	200007d4 	.word	0x200007d4
 80039d0:	40010c00 	.word	0x40010c00

080039d4 <INCODER_INI>:
//---------------------------------------------------------------------------------
void INCODER_INI(void){
 80039d4:	b580      	push	{r7, lr}
 80039d6:	af00      	add	r7, sp, #0
	Incoder_P2.ID=Incoder_ID_P2;
 80039d8:	4b2a      	ldr	r3, [pc, #168]	; (8003a84 <INCODER_INI+0xb0>)
 80039da:	2201      	movs	r2, #1
 80039dc:	701a      	strb	r2, [r3, #0]
	Incoder_P2.Button.count_max=2;
 80039de:	4b29      	ldr	r3, [pc, #164]	; (8003a84 <INCODER_INI+0xb0>)
 80039e0:	2202      	movs	r2, #2
 80039e2:	725a      	strb	r2, [r3, #9]
	Incoder_P2.Button.EXTI_PIN=GPIO_PIN_14;
 80039e4:	4b27      	ldr	r3, [pc, #156]	; (8003a84 <INCODER_INI+0xb0>)
 80039e6:	f44f 4280 	mov.w	r2, #16384	; 0x4000
 80039ea:	819a      	strh	r2, [r3, #12]
	Incoder_P2.Button.PIN=GPIO_PIN_15;
 80039ec:	4b25      	ldr	r3, [pc, #148]	; (8003a84 <INCODER_INI+0xb0>)
 80039ee:	f44f 4200 	mov.w	r2, #32768	; 0x8000
 80039f2:	81da      	strh	r2, [r3, #14]
	Incoder_P2.Button.GPIO=GPIOB;
 80039f4:	4b23      	ldr	r3, [pc, #140]	; (8003a84 <INCODER_INI+0xb0>)
 80039f6:	4a24      	ldr	r2, [pc, #144]	; (8003a88 <INCODER_INI+0xb4>)
 80039f8:	611a      	str	r2, [r3, #16]
	Incoder_P2.Button.Presed_counter_max=3;
 80039fa:	4b22      	ldr	r3, [pc, #136]	; (8003a84 <INCODER_INI+0xb0>)
 80039fc:	2203      	movs	r2, #3
 80039fe:	71da      	strb	r2, [r3, #7]
	Incoder_P2.Button.MODE=Button_Mode_Incoder;
 8003a00:	4b20      	ldr	r3, [pc, #128]	; (8003a84 <INCODER_INI+0xb0>)
 8003a02:	2202      	movs	r2, #2
 8003a04:	751a      	strb	r2, [r3, #20]

	Incoder_P2.Rotary_Switch.State=0;
 8003a06:	4a1f      	ldr	r2, [pc, #124]	; (8003a84 <INCODER_INI+0xb0>)
 8003a08:	7f53      	ldrb	r3, [r2, #29]
 8003a0a:	f36f 0300 	bfc	r3, #0, #1
 8003a0e:	7753      	strb	r3, [r2, #29]
	Incoder_P2.Rotary_Switch.EXTI_PIN=GPIO_PIN_12;
 8003a10:	4b1c      	ldr	r3, [pc, #112]	; (8003a84 <INCODER_INI+0xb0>)
 8003a12:	f44f 5280 	mov.w	r2, #4096	; 0x1000
 8003a16:	83da      	strh	r2, [r3, #30]
	Incoder_P2.Rotary_Switch.PIN=GPIO_PIN_13;
 8003a18:	4b1a      	ldr	r3, [pc, #104]	; (8003a84 <INCODER_INI+0xb0>)
 8003a1a:	f44f 5200 	mov.w	r2, #8192	; 0x2000
 8003a1e:	841a      	strh	r2, [r3, #32]
	Incoder_P2.Rotary_Switch.GPIO=GPIOB;
 8003a20:	4b18      	ldr	r3, [pc, #96]	; (8003a84 <INCODER_INI+0xb0>)
 8003a22:	4a19      	ldr	r2, [pc, #100]	; (8003a88 <INCODER_INI+0xb4>)
 8003a24:	625a      	str	r2, [r3, #36]	; 0x24

	Incoder_ini(&Incoder_P2);
 8003a26:	4817      	ldr	r0, [pc, #92]	; (8003a84 <INCODER_INI+0xb0>)
 8003a28:	f7fd f8d4 	bl	8000bd4 <Incoder_ini>


	Incoder_P1.ID=Incoder_ID_P1;
 8003a2c:	4b17      	ldr	r3, [pc, #92]	; (8003a8c <INCODER_INI+0xb8>)
 8003a2e:	2200      	movs	r2, #0
 8003a30:	701a      	strb	r2, [r3, #0]
	Incoder_P1.Button.count_max=2;
 8003a32:	4b16      	ldr	r3, [pc, #88]	; (8003a8c <INCODER_INI+0xb8>)
 8003a34:	2202      	movs	r2, #2
 8003a36:	725a      	strb	r2, [r3, #9]
	Incoder_P1.Button.EXTI_PIN=GPIO_PIN_3;
 8003a38:	4b14      	ldr	r3, [pc, #80]	; (8003a8c <INCODER_INI+0xb8>)
 8003a3a:	2208      	movs	r2, #8
 8003a3c:	819a      	strh	r2, [r3, #12]
	Incoder_P1.Button.PIN=GPIO_PIN_12;
 8003a3e:	4b13      	ldr	r3, [pc, #76]	; (8003a8c <INCODER_INI+0xb8>)
 8003a40:	f44f 5280 	mov.w	r2, #4096	; 0x1000
 8003a44:	81da      	strh	r2, [r3, #14]
	Incoder_P1.Button.GPIO=GPIOA;
 8003a46:	4b11      	ldr	r3, [pc, #68]	; (8003a8c <INCODER_INI+0xb8>)
 8003a48:	4a11      	ldr	r2, [pc, #68]	; (8003a90 <INCODER_INI+0xbc>)
 8003a4a:	611a      	str	r2, [r3, #16]
	Incoder_P1.Button.Presed_counter_max=3;
 8003a4c:	4b0f      	ldr	r3, [pc, #60]	; (8003a8c <INCODER_INI+0xb8>)
 8003a4e:	2203      	movs	r2, #3
 8003a50:	71da      	strb	r2, [r3, #7]
	Incoder_P1.Button.MODE=Button_Mode_Incoder;
 8003a52:	4b0e      	ldr	r3, [pc, #56]	; (8003a8c <INCODER_INI+0xb8>)
 8003a54:	2202      	movs	r2, #2
 8003a56:	751a      	strb	r2, [r3, #20]

	Incoder_P1.Rotary_Switch.State=0;
 8003a58:	4a0c      	ldr	r2, [pc, #48]	; (8003a8c <INCODER_INI+0xb8>)
 8003a5a:	7f53      	ldrb	r3, [r2, #29]
 8003a5c:	f36f 0300 	bfc	r3, #0, #1
 8003a60:	7753      	strb	r3, [r2, #29]
	Incoder_P1.Rotary_Switch.EXTI_PIN=GPIO_PIN_15;
 8003a62:	4b0a      	ldr	r3, [pc, #40]	; (8003a8c <INCODER_INI+0xb8>)
 8003a64:	f44f 4200 	mov.w	r2, #32768	; 0x8000
 8003a68:	83da      	strh	r2, [r3, #30]
	Incoder_P1.Rotary_Switch.PIN=GPIO_PIN_11;
 8003a6a:	4b08      	ldr	r3, [pc, #32]	; (8003a8c <INCODER_INI+0xb8>)
 8003a6c:	f44f 6200 	mov.w	r2, #2048	; 0x800
 8003a70:	841a      	strh	r2, [r3, #32]
	Incoder_P1.Rotary_Switch.GPIO=GPIOA;
 8003a72:	4b06      	ldr	r3, [pc, #24]	; (8003a8c <INCODER_INI+0xb8>)
 8003a74:	4a06      	ldr	r2, [pc, #24]	; (8003a90 <INCODER_INI+0xbc>)
 8003a76:	625a      	str	r2, [r3, #36]	; 0x24

	Incoder_ini(&Incoder_P1);
 8003a78:	4804      	ldr	r0, [pc, #16]	; (8003a8c <INCODER_INI+0xb8>)
 8003a7a:	f7fd f8ab 	bl	8000bd4 <Incoder_ini>

}
 8003a7e:	bf00      	nop
 8003a80:	bd80      	pop	{r7, pc}
 8003a82:	bf00      	nop
 8003a84:	2000077c 	.word	0x2000077c
 8003a88:	40010c00 	.word	0x40010c00
 8003a8c:	200007a8 	.word	0x200007a8
 8003a90:	40010800 	.word	0x40010800

08003a94 <MENU_INI>:
//----------------------------------------------------------------------------
void MENU_INI(void){
 8003a94:	b580      	push	{r7, lr}
 8003a96:	b086      	sub	sp, #24
 8003a98:	af00      	add	r7, sp, #0

	struct Menu_List_Element_Vector Menu_List_Element_Vector_ini;


	Menu_List_Element_Vector_ini.name="T_Corect_Manual";
 8003a9a:	4b8b      	ldr	r3, [pc, #556]	; (8003cc8 <MENU_INI+0x234>)
 8003a9c:	60fb      	str	r3, [r7, #12]
	Menu_List_Element_Vector_ini.parametr=&Soldering_Iron.Temperature_Corection.Manual;
 8003a9e:	4b8b      	ldr	r3, [pc, #556]	; (8003ccc <MENU_INI+0x238>)
 8003aa0:	617b      	str	r3, [r7, #20]
	Menu_List_Element_Vector_ini.mode=INT;
 8003aa2:	2300      	movs	r3, #0
 8003aa4:	743b      	strb	r3, [r7, #16]
	Menu_List_Element_Vector_ini.step=1;
 8003aa6:	2301      	movs	r3, #1
 8003aa8:	747b      	strb	r3, [r7, #17]
	Menu_List_Element_Create(&Soldering_Iron_Menu_Vector,&Menu_List_Element_Vector_ini);
 8003aaa:	1d3b      	adds	r3, r7, #4
 8003aac:	4619      	mov	r1, r3
 8003aae:	4888      	ldr	r0, [pc, #544]	; (8003cd0 <MENU_INI+0x23c>)
 8003ab0:	f7fd ff22 	bl	80018f8 <Menu_List_Element_Create>

	Menu_List_Element_Vector_ini.name="Preset1";
 8003ab4:	4b87      	ldr	r3, [pc, #540]	; (8003cd4 <MENU_INI+0x240>)
 8003ab6:	60fb      	str	r3, [r7, #12]
	Menu_List_Element_Vector_ini.parametr=&Soldering_Iron.Temperature_Pressets.Presset1;
 8003ab8:	4b87      	ldr	r3, [pc, #540]	; (8003cd8 <MENU_INI+0x244>)
 8003aba:	617b      	str	r3, [r7, #20]
	Menu_List_Element_Vector_ini.mode=UINT16;
 8003abc:	2302      	movs	r3, #2
 8003abe:	743b      	strb	r3, [r7, #16]
	Menu_List_Element_Vector_ini.step=1;
 8003ac0:	2301      	movs	r3, #1
 8003ac2:	747b      	strb	r3, [r7, #17]
	Menu_List_Element_Create(&Soldering_Iron_Menu_Vector,&Menu_List_Element_Vector_ini);
 8003ac4:	1d3b      	adds	r3, r7, #4
 8003ac6:	4619      	mov	r1, r3
 8003ac8:	4881      	ldr	r0, [pc, #516]	; (8003cd0 <MENU_INI+0x23c>)
 8003aca:	f7fd ff15 	bl	80018f8 <Menu_List_Element_Create>

	Menu_List_Element_Vector_ini.name="T_Corect_Pres1";
 8003ace:	4b83      	ldr	r3, [pc, #524]	; (8003cdc <MENU_INI+0x248>)
 8003ad0:	60fb      	str	r3, [r7, #12]
	Menu_List_Element_Vector_ini.parametr=&Soldering_Iron.Temperature_Corection.Presset1;
 8003ad2:	4b83      	ldr	r3, [pc, #524]	; (8003ce0 <MENU_INI+0x24c>)
 8003ad4:	617b      	str	r3, [r7, #20]
	Menu_List_Element_Vector_ini.mode=INT;
 8003ad6:	2300      	movs	r3, #0
 8003ad8:	743b      	strb	r3, [r7, #16]
	Menu_List_Element_Vector_ini.step=1;
 8003ada:	2301      	movs	r3, #1
 8003adc:	747b      	strb	r3, [r7, #17]
	Menu_List_Element_Create(&Soldering_Iron_Menu_Vector,&Menu_List_Element_Vector_ini);
 8003ade:	1d3b      	adds	r3, r7, #4
 8003ae0:	4619      	mov	r1, r3
 8003ae2:	487b      	ldr	r0, [pc, #492]	; (8003cd0 <MENU_INI+0x23c>)
 8003ae4:	f7fd ff08 	bl	80018f8 <Menu_List_Element_Create>

	Menu_List_Element_Vector_ini.name="Preset2";
 8003ae8:	4b7e      	ldr	r3, [pc, #504]	; (8003ce4 <MENU_INI+0x250>)
 8003aea:	60fb      	str	r3, [r7, #12]
	Menu_List_Element_Vector_ini.parametr=&Soldering_Iron.Temperature_Pressets.Presset2;
 8003aec:	4b7e      	ldr	r3, [pc, #504]	; (8003ce8 <MENU_INI+0x254>)
 8003aee:	617b      	str	r3, [r7, #20]
	Menu_List_Element_Vector_ini.mode=UINT16;
 8003af0:	2302      	movs	r3, #2
 8003af2:	743b      	strb	r3, [r7, #16]
	Menu_List_Element_Vector_ini.step=1;
 8003af4:	2301      	movs	r3, #1
 8003af6:	747b      	strb	r3, [r7, #17]
	Menu_List_Element_Create(&Soldering_Iron_Menu_Vector,&Menu_List_Element_Vector_ini);
 8003af8:	1d3b      	adds	r3, r7, #4
 8003afa:	4619      	mov	r1, r3
 8003afc:	4874      	ldr	r0, [pc, #464]	; (8003cd0 <MENU_INI+0x23c>)
 8003afe:	f7fd fefb 	bl	80018f8 <Menu_List_Element_Create>

	Menu_List_Element_Vector_ini.name="T_Corect_Pres2";
 8003b02:	4b7a      	ldr	r3, [pc, #488]	; (8003cec <MENU_INI+0x258>)
 8003b04:	60fb      	str	r3, [r7, #12]
	Menu_List_Element_Vector_ini.parametr=&Soldering_Iron.Temperature_Corection.Presset2;
 8003b06:	4b7a      	ldr	r3, [pc, #488]	; (8003cf0 <MENU_INI+0x25c>)
 8003b08:	617b      	str	r3, [r7, #20]
	Menu_List_Element_Vector_ini.mode=INT;
 8003b0a:	2300      	movs	r3, #0
 8003b0c:	743b      	strb	r3, [r7, #16]
	Menu_List_Element_Vector_ini.step=1;
 8003b0e:	2301      	movs	r3, #1
 8003b10:	747b      	strb	r3, [r7, #17]
	Menu_List_Element_Create(&Soldering_Iron_Menu_Vector,&Menu_List_Element_Vector_ini);
 8003b12:	1d3b      	adds	r3, r7, #4
 8003b14:	4619      	mov	r1, r3
 8003b16:	486e      	ldr	r0, [pc, #440]	; (8003cd0 <MENU_INI+0x23c>)
 8003b18:	f7fd feee 	bl	80018f8 <Menu_List_Element_Create>

	Menu_List_Element_Vector_ini.name="Sleep_mode_T";
 8003b1c:	4b75      	ldr	r3, [pc, #468]	; (8003cf4 <MENU_INI+0x260>)
 8003b1e:	60fb      	str	r3, [r7, #12]
	Menu_List_Element_Vector_ini.parametr=&Soldering_Iron.Temperature_Pressets.Sleep;
 8003b20:	4b75      	ldr	r3, [pc, #468]	; (8003cf8 <MENU_INI+0x264>)
 8003b22:	617b      	str	r3, [r7, #20]
	Menu_List_Element_Vector_ini.mode=UINT16;
 8003b24:	2302      	movs	r3, #2
 8003b26:	743b      	strb	r3, [r7, #16]
	Menu_List_Element_Vector_ini.step=1;
 8003b28:	2301      	movs	r3, #1
 8003b2a:	747b      	strb	r3, [r7, #17]
	Menu_List_Element_Create(&Soldering_Iron_Menu_Vector,&Menu_List_Element_Vector_ini);
 8003b2c:	1d3b      	adds	r3, r7, #4
 8003b2e:	4619      	mov	r1, r3
 8003b30:	4867      	ldr	r0, [pc, #412]	; (8003cd0 <MENU_INI+0x23c>)
 8003b32:	f7fd fee1 	bl	80018f8 <Menu_List_Element_Create>

	Menu_List_Element_Vector_ini.name="Sleep_timer";
 8003b36:	4b71      	ldr	r3, [pc, #452]	; (8003cfc <MENU_INI+0x268>)
 8003b38:	60fb      	str	r3, [r7, #12]
	Menu_List_Element_Vector_ini.parametr=&Soldering_Iron.Sleep_time;
 8003b3a:	4b71      	ldr	r3, [pc, #452]	; (8003d00 <MENU_INI+0x26c>)
 8003b3c:	617b      	str	r3, [r7, #20]
	Menu_List_Element_Vector_ini.mode=UINT8;
 8003b3e:	2301      	movs	r3, #1
 8003b40:	743b      	strb	r3, [r7, #16]
	Menu_List_Element_Vector_ini.step=1;
 8003b42:	2301      	movs	r3, #1
 8003b44:	747b      	strb	r3, [r7, #17]
	Menu_List_Element_Create(&Soldering_Iron_Menu_Vector,&Menu_List_Element_Vector_ini);
 8003b46:	1d3b      	adds	r3, r7, #4
 8003b48:	4619      	mov	r1, r3
 8003b4a:	4861      	ldr	r0, [pc, #388]	; (8003cd0 <MENU_INI+0x23c>)
 8003b4c:	f7fd fed4 	bl	80018f8 <Menu_List_Element_Create>

	Menu_List_Element_Vector_ini.name="Disable_timer";
 8003b50:	4b6c      	ldr	r3, [pc, #432]	; (8003d04 <MENU_INI+0x270>)
 8003b52:	60fb      	str	r3, [r7, #12]
	Menu_List_Element_Vector_ini.parametr=&Soldering_Iron.Disable_time;
 8003b54:	4b6c      	ldr	r3, [pc, #432]	; (8003d08 <MENU_INI+0x274>)
 8003b56:	617b      	str	r3, [r7, #20]
	Menu_List_Element_Vector_ini.mode=UINT16;
 8003b58:	2302      	movs	r3, #2
 8003b5a:	743b      	strb	r3, [r7, #16]
	Menu_List_Element_Vector_ini.step=1;
 8003b5c:	2301      	movs	r3, #1
 8003b5e:	747b      	strb	r3, [r7, #17]
	Menu_List_Element_Create(&Soldering_Iron_Menu_Vector,&Menu_List_Element_Vector_ini);
 8003b60:	1d3b      	adds	r3, r7, #4
 8003b62:	4619      	mov	r1, r3
 8003b64:	485a      	ldr	r0, [pc, #360]	; (8003cd0 <MENU_INI+0x23c>)
 8003b66:	f7fd fec7 	bl	80018f8 <Menu_List_Element_Create>

	Menu_List_Element_Vector_ini.name="Add_Temperature";
 8003b6a:	4b68      	ldr	r3, [pc, #416]	; (8003d0c <MENU_INI+0x278>)
 8003b6c:	60fb      	str	r3, [r7, #12]
	Menu_List_Element_Vector_ini.parametr=&Soldering_Iron.Add_Temperature;
 8003b6e:	4b68      	ldr	r3, [pc, #416]	; (8003d10 <MENU_INI+0x27c>)
 8003b70:	617b      	str	r3, [r7, #20]
	Menu_List_Element_Vector_ini.mode=UINT16;
 8003b72:	2302      	movs	r3, #2
 8003b74:	743b      	strb	r3, [r7, #16]
	Menu_List_Element_Vector_ini.step=1;
 8003b76:	2301      	movs	r3, #1
 8003b78:	747b      	strb	r3, [r7, #17]
	Menu_List_Element_Create(&Soldering_Iron_Menu_Vector,&Menu_List_Element_Vector_ini);
 8003b7a:	1d3b      	adds	r3, r7, #4
 8003b7c:	4619      	mov	r1, r3
 8003b7e:	4854      	ldr	r0, [pc, #336]	; (8003cd0 <MENU_INI+0x23c>)
 8003b80:	f7fd feba 	bl	80018f8 <Menu_List_Element_Create>


	Menu_List_Element_Vector_ini.name="State";
 8003b84:	4b63      	ldr	r3, [pc, #396]	; (8003d14 <MENU_INI+0x280>)
 8003b86:	60fb      	str	r3, [r7, #12]
	Menu_List_Element_Vector_ini.parametr=&Soldering_Iron.State;
 8003b88:	4b63      	ldr	r3, [pc, #396]	; (8003d18 <MENU_INI+0x284>)
 8003b8a:	617b      	str	r3, [r7, #20]
	Menu_List_Element_Vector_ini.mode=BOOL;
 8003b8c:	2303      	movs	r3, #3
 8003b8e:	743b      	strb	r3, [r7, #16]
	Menu_List_Element_Vector_ini.step=1;
 8003b90:	2301      	movs	r3, #1
 8003b92:	747b      	strb	r3, [r7, #17]
	Menu_List_Element_Create(&Soldering_Iron_Menu_Vector,&Menu_List_Element_Vector_ini);
 8003b94:	1d3b      	adds	r3, r7, #4
 8003b96:	4619      	mov	r1, r3
 8003b98:	484d      	ldr	r0, [pc, #308]	; (8003cd0 <MENU_INI+0x23c>)
 8003b9a:	f7fd fead 	bl	80018f8 <Menu_List_Element_Create>


	Menu_List_Create(&Menu_List_Vector,&Soldering_Iron_Menu_Vector, "Soldering_Iron");
 8003b9e:	4a5f      	ldr	r2, [pc, #380]	; (8003d1c <MENU_INI+0x288>)
 8003ba0:	494b      	ldr	r1, [pc, #300]	; (8003cd0 <MENU_INI+0x23c>)
 8003ba2:	485f      	ldr	r0, [pc, #380]	; (8003d20 <MENU_INI+0x28c>)
 8003ba4:	f7fe f916 	bl	8001dd4 <Menu_List_Create>


	Menu_List_Element_Vector_ini.name="T_Corect_Manual";
 8003ba8:	4b47      	ldr	r3, [pc, #284]	; (8003cc8 <MENU_INI+0x234>)
 8003baa:	60fb      	str	r3, [r7, #12]
	Menu_List_Element_Vector_ini.parametr=&Soldering_Heat_Gun.Temperature_Corection.Manual;
 8003bac:	4b5d      	ldr	r3, [pc, #372]	; (8003d24 <MENU_INI+0x290>)
 8003bae:	617b      	str	r3, [r7, #20]
	Menu_List_Element_Vector_ini.mode=INT;
 8003bb0:	2300      	movs	r3, #0
 8003bb2:	743b      	strb	r3, [r7, #16]
	Menu_List_Element_Vector_ini.step=1;
 8003bb4:	2301      	movs	r3, #1
 8003bb6:	747b      	strb	r3, [r7, #17]
	Menu_List_Element_Create(&Soldering_Heat_Gun_Menu_Vector,&Menu_List_Element_Vector_ini);
 8003bb8:	1d3b      	adds	r3, r7, #4
 8003bba:	4619      	mov	r1, r3
 8003bbc:	485a      	ldr	r0, [pc, #360]	; (8003d28 <MENU_INI+0x294>)
 8003bbe:	f7fd fe9b 	bl	80018f8 <Menu_List_Element_Create>

	Menu_List_Element_Vector_ini.name="Preset1";
 8003bc2:	4b44      	ldr	r3, [pc, #272]	; (8003cd4 <MENU_INI+0x240>)
 8003bc4:	60fb      	str	r3, [r7, #12]
	Menu_List_Element_Vector_ini.parametr=&Soldering_Heat_Gun.Temperature_Pressets.Presset1;
 8003bc6:	4b59      	ldr	r3, [pc, #356]	; (8003d2c <MENU_INI+0x298>)
 8003bc8:	617b      	str	r3, [r7, #20]
	Menu_List_Element_Vector_ini.mode=UINT16;
 8003bca:	2302      	movs	r3, #2
 8003bcc:	743b      	strb	r3, [r7, #16]
	Menu_List_Element_Vector_ini.step=1;
 8003bce:	2301      	movs	r3, #1
 8003bd0:	747b      	strb	r3, [r7, #17]
	Menu_List_Element_Create(&Soldering_Heat_Gun_Menu_Vector,&Menu_List_Element_Vector_ini);
 8003bd2:	1d3b      	adds	r3, r7, #4
 8003bd4:	4619      	mov	r1, r3
 8003bd6:	4854      	ldr	r0, [pc, #336]	; (8003d28 <MENU_INI+0x294>)
 8003bd8:	f7fd fe8e 	bl	80018f8 <Menu_List_Element_Create>

	Menu_List_Element_Vector_ini.name="T_Corect_Pres1";
 8003bdc:	4b3f      	ldr	r3, [pc, #252]	; (8003cdc <MENU_INI+0x248>)
 8003bde:	60fb      	str	r3, [r7, #12]
	Menu_List_Element_Vector_ini.parametr=&Soldering_Heat_Gun.Temperature_Corection.Presset1;
 8003be0:	4b53      	ldr	r3, [pc, #332]	; (8003d30 <MENU_INI+0x29c>)
 8003be2:	617b      	str	r3, [r7, #20]
	Menu_List_Element_Vector_ini.mode=INT;
 8003be4:	2300      	movs	r3, #0
 8003be6:	743b      	strb	r3, [r7, #16]
	Menu_List_Element_Vector_ini.step=1;
 8003be8:	2301      	movs	r3, #1
 8003bea:	747b      	strb	r3, [r7, #17]
	Menu_List_Element_Create(&Soldering_Heat_Gun_Menu_Vector,&Menu_List_Element_Vector_ini);
 8003bec:	1d3b      	adds	r3, r7, #4
 8003bee:	4619      	mov	r1, r3
 8003bf0:	484d      	ldr	r0, [pc, #308]	; (8003d28 <MENU_INI+0x294>)
 8003bf2:	f7fd fe81 	bl	80018f8 <Menu_List_Element_Create>

	Menu_List_Element_Vector_ini.name="Preset2";
 8003bf6:	4b3b      	ldr	r3, [pc, #236]	; (8003ce4 <MENU_INI+0x250>)
 8003bf8:	60fb      	str	r3, [r7, #12]
	Menu_List_Element_Vector_ini.parametr=&Soldering_Heat_Gun.Temperature_Pressets.Presset2;
 8003bfa:	4b4e      	ldr	r3, [pc, #312]	; (8003d34 <MENU_INI+0x2a0>)
 8003bfc:	617b      	str	r3, [r7, #20]
	Menu_List_Element_Vector_ini.mode=UINT16;
 8003bfe:	2302      	movs	r3, #2
 8003c00:	743b      	strb	r3, [r7, #16]
	Menu_List_Element_Vector_ini.step=1;
 8003c02:	2301      	movs	r3, #1
 8003c04:	747b      	strb	r3, [r7, #17]
	Menu_List_Element_Create(&Soldering_Heat_Gun_Menu_Vector,&Menu_List_Element_Vector_ini);
 8003c06:	1d3b      	adds	r3, r7, #4
 8003c08:	4619      	mov	r1, r3
 8003c0a:	4847      	ldr	r0, [pc, #284]	; (8003d28 <MENU_INI+0x294>)
 8003c0c:	f7fd fe74 	bl	80018f8 <Menu_List_Element_Create>

	Menu_List_Element_Vector_ini.name="T_Corect_Pres2";
 8003c10:	4b36      	ldr	r3, [pc, #216]	; (8003cec <MENU_INI+0x258>)
 8003c12:	60fb      	str	r3, [r7, #12]
	Menu_List_Element_Vector_ini.parametr=&Soldering_Heat_Gun.Temperature_Corection.Presset2;
 8003c14:	4b48      	ldr	r3, [pc, #288]	; (8003d38 <MENU_INI+0x2a4>)
 8003c16:	617b      	str	r3, [r7, #20]
	Menu_List_Element_Vector_ini.mode=INT;
 8003c18:	2300      	movs	r3, #0
 8003c1a:	743b      	strb	r3, [r7, #16]
	Menu_List_Element_Vector_ini.step=1;
 8003c1c:	2301      	movs	r3, #1
 8003c1e:	747b      	strb	r3, [r7, #17]
	Menu_List_Element_Create(&Soldering_Heat_Gun_Menu_Vector,&Menu_List_Element_Vector_ini);
 8003c20:	1d3b      	adds	r3, r7, #4
 8003c22:	4619      	mov	r1, r3
 8003c24:	4840      	ldr	r0, [pc, #256]	; (8003d28 <MENU_INI+0x294>)
 8003c26:	f7fd fe67 	bl	80018f8 <Menu_List_Element_Create>




	Menu_List_Create(&Menu_List_Vector,&Soldering_Heat_Gun_Menu_Vector, "Heat_Gun");
 8003c2a:	4a44      	ldr	r2, [pc, #272]	; (8003d3c <MENU_INI+0x2a8>)
 8003c2c:	493e      	ldr	r1, [pc, #248]	; (8003d28 <MENU_INI+0x294>)
 8003c2e:	483c      	ldr	r0, [pc, #240]	; (8003d20 <MENU_INI+0x28c>)
 8003c30:	f7fe f8d0 	bl	8001dd4 <Menu_List_Create>



	Menu_List_Element_Vector_ini.name="T_Corect_Manual";
 8003c34:	4b24      	ldr	r3, [pc, #144]	; (8003cc8 <MENU_INI+0x234>)
 8003c36:	60fb      	str	r3, [r7, #12]
	Menu_List_Element_Vector_ini.parametr=&Soldering_Separator.Temperature_Corection.Manual;
 8003c38:	4b41      	ldr	r3, [pc, #260]	; (8003d40 <MENU_INI+0x2ac>)
 8003c3a:	617b      	str	r3, [r7, #20]
	Menu_List_Element_Vector_ini.mode=INT;
 8003c3c:	2300      	movs	r3, #0
 8003c3e:	743b      	strb	r3, [r7, #16]
	Menu_List_Element_Vector_ini.step=1;
 8003c40:	2301      	movs	r3, #1
 8003c42:	747b      	strb	r3, [r7, #17]
	Menu_List_Element_Create(&Soldering_Separator_Menu_Vector, &Menu_List_Element_Vector_ini);
 8003c44:	1d3b      	adds	r3, r7, #4
 8003c46:	4619      	mov	r1, r3
 8003c48:	483e      	ldr	r0, [pc, #248]	; (8003d44 <MENU_INI+0x2b0>)
 8003c4a:	f7fd fe55 	bl	80018f8 <Menu_List_Element_Create>

	Menu_List_Element_Vector_ini.name="Preset1";
 8003c4e:	4b21      	ldr	r3, [pc, #132]	; (8003cd4 <MENU_INI+0x240>)
 8003c50:	60fb      	str	r3, [r7, #12]
	Menu_List_Element_Vector_ini.parametr=&Soldering_Separator.Temperature_Pressets.Presset1;
 8003c52:	4b3d      	ldr	r3, [pc, #244]	; (8003d48 <MENU_INI+0x2b4>)
 8003c54:	617b      	str	r3, [r7, #20]
	Menu_List_Element_Vector_ini.mode=UINT16;
 8003c56:	2302      	movs	r3, #2
 8003c58:	743b      	strb	r3, [r7, #16]
	Menu_List_Element_Vector_ini.step=1;
 8003c5a:	2301      	movs	r3, #1
 8003c5c:	747b      	strb	r3, [r7, #17]
	Menu_List_Element_Create(&Soldering_Separator_Menu_Vector, &Menu_List_Element_Vector_ini);
 8003c5e:	1d3b      	adds	r3, r7, #4
 8003c60:	4619      	mov	r1, r3
 8003c62:	4838      	ldr	r0, [pc, #224]	; (8003d44 <MENU_INI+0x2b0>)
 8003c64:	f7fd fe48 	bl	80018f8 <Menu_List_Element_Create>

	Menu_List_Element_Vector_ini.name="T_Corect_Pres1";
 8003c68:	4b1c      	ldr	r3, [pc, #112]	; (8003cdc <MENU_INI+0x248>)
 8003c6a:	60fb      	str	r3, [r7, #12]
	Menu_List_Element_Vector_ini.parametr=&Soldering_Separator.Temperature_Corection.Presset1;
 8003c6c:	4b37      	ldr	r3, [pc, #220]	; (8003d4c <MENU_INI+0x2b8>)
 8003c6e:	617b      	str	r3, [r7, #20]
	Menu_List_Element_Vector_ini.mode=INT;
 8003c70:	2300      	movs	r3, #0
 8003c72:	743b      	strb	r3, [r7, #16]
	Menu_List_Element_Vector_ini.step=1;
 8003c74:	2301      	movs	r3, #1
 8003c76:	747b      	strb	r3, [r7, #17]
	Menu_List_Element_Create(&Soldering_Separator_Menu_Vector, &Menu_List_Element_Vector_ini);
 8003c78:	1d3b      	adds	r3, r7, #4
 8003c7a:	4619      	mov	r1, r3
 8003c7c:	4831      	ldr	r0, [pc, #196]	; (8003d44 <MENU_INI+0x2b0>)
 8003c7e:	f7fd fe3b 	bl	80018f8 <Menu_List_Element_Create>

	Menu_List_Element_Vector_ini.name="Preset2";
 8003c82:	4b18      	ldr	r3, [pc, #96]	; (8003ce4 <MENU_INI+0x250>)
 8003c84:	60fb      	str	r3, [r7, #12]
	Menu_List_Element_Vector_ini.parametr=&Soldering_Separator.Temperature_Pressets.Presset2;
 8003c86:	4b32      	ldr	r3, [pc, #200]	; (8003d50 <MENU_INI+0x2bc>)
 8003c88:	617b      	str	r3, [r7, #20]
	Menu_List_Element_Vector_ini.mode=UINT16;
 8003c8a:	2302      	movs	r3, #2
 8003c8c:	743b      	strb	r3, [r7, #16]
	Menu_List_Element_Vector_ini.step=1;
 8003c8e:	2301      	movs	r3, #1
 8003c90:	747b      	strb	r3, [r7, #17]
	Menu_List_Element_Create(&Soldering_Separator_Menu_Vector,&Menu_List_Element_Vector_ini);
 8003c92:	1d3b      	adds	r3, r7, #4
 8003c94:	4619      	mov	r1, r3
 8003c96:	482b      	ldr	r0, [pc, #172]	; (8003d44 <MENU_INI+0x2b0>)
 8003c98:	f7fd fe2e 	bl	80018f8 <Menu_List_Element_Create>

	Menu_List_Element_Vector_ini.name="T_Corect_Pres2";
 8003c9c:	4b13      	ldr	r3, [pc, #76]	; (8003cec <MENU_INI+0x258>)
 8003c9e:	60fb      	str	r3, [r7, #12]
	Menu_List_Element_Vector_ini.parametr=&Soldering_Separator.Temperature_Corection.Presset2;
 8003ca0:	4b2c      	ldr	r3, [pc, #176]	; (8003d54 <MENU_INI+0x2c0>)
 8003ca2:	617b      	str	r3, [r7, #20]
	Menu_List_Element_Vector_ini.mode=INT;
 8003ca4:	2300      	movs	r3, #0
 8003ca6:	743b      	strb	r3, [r7, #16]
	Menu_List_Element_Vector_ini.step=1;
 8003ca8:	2301      	movs	r3, #1
 8003caa:	747b      	strb	r3, [r7, #17]
	Menu_List_Element_Create(&Soldering_Separator_Menu_Vector, &Menu_List_Element_Vector_ini);
 8003cac:	1d3b      	adds	r3, r7, #4
 8003cae:	4619      	mov	r1, r3
 8003cb0:	4824      	ldr	r0, [pc, #144]	; (8003d44 <MENU_INI+0x2b0>)
 8003cb2:	f7fd fe21 	bl	80018f8 <Menu_List_Element_Create>


	Menu_List_Create(&Menu_List_Vector,&Soldering_Separator_Menu_Vector, "Separator");
 8003cb6:	4a28      	ldr	r2, [pc, #160]	; (8003d58 <MENU_INI+0x2c4>)
 8003cb8:	4922      	ldr	r1, [pc, #136]	; (8003d44 <MENU_INI+0x2b0>)
 8003cba:	4819      	ldr	r0, [pc, #100]	; (8003d20 <MENU_INI+0x28c>)
 8003cbc:	f7fe f88a 	bl	8001dd4 <Menu_List_Create>

}
 8003cc0:	bf00      	nop
 8003cc2:	3718      	adds	r7, #24
 8003cc4:	46bd      	mov	sp, r7
 8003cc6:	bd80      	pop	{r7, pc}
 8003cc8:	08008f2c 	.word	0x08008f2c
 8003ccc:	20000878 	.word	0x20000878
 8003cd0:	200007dc 	.word	0x200007dc
 8003cd4:	08008f3c 	.word	0x08008f3c
 8003cd8:	20000870 	.word	0x20000870
 8003cdc:	08008f44 	.word	0x08008f44
 8003ce0:	2000087c 	.word	0x2000087c
 8003ce4:	08008f54 	.word	0x08008f54
 8003ce8:	20000872 	.word	0x20000872
 8003cec:	08008f5c 	.word	0x08008f5c
 8003cf0:	20000880 	.word	0x20000880
 8003cf4:	08008f6c 	.word	0x08008f6c
 8003cf8:	20000874 	.word	0x20000874
 8003cfc:	08008f7c 	.word	0x08008f7c
 8003d00:	200008b6 	.word	0x200008b6
 8003d04:	08008f88 	.word	0x08008f88
 8003d08:	200008b8 	.word	0x200008b8
 8003d0c:	08008f98 	.word	0x08008f98
 8003d10:	200008a8 	.word	0x200008a8
 8003d14:	08008fa8 	.word	0x08008fa8
 8003d18:	200008ba 	.word	0x200008ba
 8003d1c:	08008fb0 	.word	0x08008fb0
 8003d20:	20000818 	.word	0x20000818
 8003d24:	20000914 	.word	0x20000914
 8003d28:	200007f0 	.word	0x200007f0
 8003d2c:	2000090c 	.word	0x2000090c
 8003d30:	20000918 	.word	0x20000918
 8003d34:	2000090e 	.word	0x2000090e
 8003d38:	2000091c 	.word	0x2000091c
 8003d3c:	08008fc0 	.word	0x08008fc0
 8003d40:	200009a0 	.word	0x200009a0
 8003d44:	20000804 	.word	0x20000804
 8003d48:	20000998 	.word	0x20000998
 8003d4c:	200009a4 	.word	0x200009a4
 8003d50:	2000099a 	.word	0x2000099a
 8003d54:	200009a8 	.word	0x200009a8
 8003d58:	08008fcc 	.word	0x08008fcc

08003d5c <OLED_INI>:
//----------------------------------------------------------------------------
void OLED_INI(void){
 8003d5c:	b580      	push	{r7, lr}
 8003d5e:	af00      	add	r7, sp, #0
	  OLED1.hi2c=&hi2c1;
 8003d60:	4b05      	ldr	r3, [pc, #20]	; (8003d78 <OLED_INI+0x1c>)
 8003d62:	4a06      	ldr	r2, [pc, #24]	; (8003d7c <OLED_INI+0x20>)
 8003d64:	601a      	str	r2, [r3, #0]
	  OLED_Search_Adress(&OLED1);
 8003d66:	4804      	ldr	r0, [pc, #16]	; (8003d78 <OLED_INI+0x1c>)
 8003d68:	f7fe fb32 	bl	80023d0 <OLED_Search_Adress>
	  OLED_ini(&OLED1);
 8003d6c:	4802      	ldr	r0, [pc, #8]	; (8003d78 <OLED_INI+0x1c>)
 8003d6e:	f7fe fb51 	bl	8002414 <OLED_ini>
}
 8003d72:	bf00      	nop
 8003d74:	bd80      	pop	{r7, pc}
 8003d76:	bf00      	nop
 8003d78:	20000774 	.word	0x20000774
 8003d7c:	20000600 	.word	0x20000600

08003d80 <Soldering_Iron_INI>:
//----------------------------------------------------------------------------
void Soldering_Iron_INI(uint8_t Flash_Read_Status){
 8003d80:	b580      	push	{r7, lr}
 8003d82:	b082      	sub	sp, #8
 8003d84:	af00      	add	r7, sp, #0
 8003d86:	4603      	mov	r3, r0
 8003d88:	71fb      	strb	r3, [r7, #7]

	Soldering_Iron.PID.KP=5;
 8003d8a:	4b40      	ldr	r3, [pc, #256]	; (8003e8c <Soldering_Iron_INI+0x10c>)
 8003d8c:	4a40      	ldr	r2, [pc, #256]	; (8003e90 <Soldering_Iron_INI+0x110>)
 8003d8e:	601a      	str	r2, [r3, #0]
	Soldering_Iron.PID.KI=0.05;//0.03
 8003d90:	4b3e      	ldr	r3, [pc, #248]	; (8003e8c <Soldering_Iron_INI+0x10c>)
 8003d92:	4a40      	ldr	r2, [pc, #256]	; (8003e94 <Soldering_Iron_INI+0x114>)
 8003d94:	605a      	str	r2, [r3, #4]
	Soldering_Iron.PID.KD=1;
 8003d96:	4b3d      	ldr	r3, [pc, #244]	; (8003e8c <Soldering_Iron_INI+0x10c>)
 8003d98:	f04f 527e 	mov.w	r2, #1065353216	; 0x3f800000
 8003d9c:	609a      	str	r2, [r3, #8]
	Soldering_Iron.PID.dt=0.1;
 8003d9e:	4b3b      	ldr	r3, [pc, #236]	; (8003e8c <Soldering_Iron_INI+0x10c>)
 8003da0:	4a3d      	ldr	r2, [pc, #244]	; (8003e98 <Soldering_Iron_INI+0x118>)
 8003da2:	60da      	str	r2, [r3, #12]
	Soldering_Iron.PID.MAX_Control=350;
 8003da4:	4b39      	ldr	r3, [pc, #228]	; (8003e8c <Soldering_Iron_INI+0x10c>)
 8003da6:	f44f 72af 	mov.w	r2, #350	; 0x15e
 8003daa:	821a      	strh	r2, [r3, #16]

	Soldering_Iron.Filter.Filter_Mode=Nine_Samples;
 8003dac:	4b37      	ldr	r3, [pc, #220]	; (8003e8c <Soldering_Iron_INI+0x10c>)
 8003dae:	2200      	movs	r2, #0
 8003db0:	f883 203c 	strb.w	r2, [r3, #60]	; 0x3c
	Soldering_Iron.Filter.k_min=0.01;
 8003db4:	4b35      	ldr	r3, [pc, #212]	; (8003e8c <Soldering_Iron_INI+0x10c>)
 8003db6:	4a39      	ldr	r2, [pc, #228]	; (8003e9c <Soldering_Iron_INI+0x11c>)
 8003db8:	629a      	str	r2, [r3, #40]	; 0x28
	Soldering_Iron.Filter.k_max=0.8;
 8003dba:	4b34      	ldr	r3, [pc, #208]	; (8003e8c <Soldering_Iron_INI+0x10c>)
 8003dbc:	4a38      	ldr	r2, [pc, #224]	; (8003ea0 <Soldering_Iron_INI+0x120>)
 8003dbe:	62da      	str	r2, [r3, #44]	; 0x2c
	Soldering_Iron.Filter.Val_Delata=30;
 8003dc0:	4b32      	ldr	r3, [pc, #200]	; (8003e8c <Soldering_Iron_INI+0x10c>)
 8003dc2:	4a38      	ldr	r2, [pc, #224]	; (8003ea4 <Soldering_Iron_INI+0x124>)
 8003dc4:	635a      	str	r2, [r3, #52]	; 0x34
	Soldering_Iron.Filter.mass=&ADC_Data[4];
 8003dc6:	4b31      	ldr	r3, [pc, #196]	; (8003e8c <Soldering_Iron_INI+0x10c>)
 8003dc8:	4a37      	ldr	r2, [pc, #220]	; (8003ea8 <Soldering_Iron_INI+0x128>)
 8003dca:	641a      	str	r2, [r3, #64]	; 0x40

	Soldering_Iron.PWM_htim=&htim2;
 8003dcc:	4b2f      	ldr	r3, [pc, #188]	; (8003e8c <Soldering_Iron_INI+0x10c>)
 8003dce:	4a37      	ldr	r2, [pc, #220]	; (8003eac <Soldering_Iron_INI+0x12c>)
 8003dd0:	67da      	str	r2, [r3, #124]	; 0x7c

	Soldering_Iron.Full_Power_Button.ID=Full_Power_Button_ID;
 8003dd2:	4b2e      	ldr	r3, [pc, #184]	; (8003e8c <Soldering_Iron_INI+0x10c>)
 8003dd4:	2207      	movs	r2, #7
 8003dd6:	f883 2064 	strb.w	r2, [r3, #100]	; 0x64
	Soldering_Iron.Full_Power_Button.count_max=2;
 8003dda:	4b2c      	ldr	r3, [pc, #176]	; (8003e8c <Soldering_Iron_INI+0x10c>)
 8003ddc:	2202      	movs	r2, #2
 8003dde:	f883 2069 	strb.w	r2, [r3, #105]	; 0x69
	Soldering_Iron.Full_Power_Button.EXTI_PIN=GPIO_PIN_4;
 8003de2:	4b2a      	ldr	r3, [pc, #168]	; (8003e8c <Soldering_Iron_INI+0x10c>)
 8003de4:	2210      	movs	r2, #16
 8003de6:	f8a3 206c 	strh.w	r2, [r3, #108]	; 0x6c
	Soldering_Iron.Full_Power_Button.PIN=GPIO_PIN_4;
 8003dea:	4b28      	ldr	r3, [pc, #160]	; (8003e8c <Soldering_Iron_INI+0x10c>)
 8003dec:	2210      	movs	r2, #16
 8003dee:	f8a3 206e 	strh.w	r2, [r3, #110]	; 0x6e
	Soldering_Iron.Full_Power_Button.GPIO=GPIOA;
 8003df2:	4b26      	ldr	r3, [pc, #152]	; (8003e8c <Soldering_Iron_INI+0x10c>)
 8003df4:	4a2e      	ldr	r2, [pc, #184]	; (8003eb0 <Soldering_Iron_INI+0x130>)
 8003df6:	671a      	str	r2, [r3, #112]	; 0x70
	Soldering_Iron.Full_Power_Button.MODE=Button_Mode_Regular_Without_EXTI;
 8003df8:	4b24      	ldr	r3, [pc, #144]	; (8003e8c <Soldering_Iron_INI+0x10c>)
 8003dfa:	2201      	movs	r2, #1
 8003dfc:	f883 2074 	strb.w	r2, [r3, #116]	; 0x74

	Soldering_Iron.VS.EXTI_PIN=GPIO_PIN_5;
 8003e00:	4b22      	ldr	r3, [pc, #136]	; (8003e8c <Soldering_Iron_INI+0x10c>)
 8003e02:	2220      	movs	r2, #32
 8003e04:	f8a3 2060 	strh.w	r2, [r3, #96]	; 0x60
	Soldering_Iron.VS.GPIO=GPIOA;
 8003e08:	4b20      	ldr	r3, [pc, #128]	; (8003e8c <Soldering_Iron_INI+0x10c>)
 8003e0a:	4a29      	ldr	r2, [pc, #164]	; (8003eb0 <Soldering_Iron_INI+0x130>)
 8003e0c:	65da      	str	r2, [r3, #92]	; 0x5c
	Soldering_Iron.VS.State=3;
 8003e0e:	4b1f      	ldr	r3, [pc, #124]	; (8003e8c <Soldering_Iron_INI+0x10c>)
 8003e10:	2203      	movs	r2, #3
 8003e12:	f883 2062 	strb.w	r2, [r3, #98]	; 0x62
	Soldering_Iron.VS.Prew_State=4;
 8003e16:	4b1d      	ldr	r3, [pc, #116]	; (8003e8c <Soldering_Iron_INI+0x10c>)
 8003e18:	2204      	movs	r2, #4
 8003e1a:	f883 2063 	strb.w	r2, [r3, #99]	; 0x63

	Soldering_Iron.MODE=MANUAL;
 8003e1e:	4b1b      	ldr	r3, [pc, #108]	; (8003e8c <Soldering_Iron_INI+0x10c>)
 8003e20:	2200      	movs	r2, #0
 8003e22:	f883 2044 	strb.w	r2, [r3, #68]	; 0x44

	if(Flash_Read_Status!=HAL_OK){
 8003e26:	79fb      	ldrb	r3, [r7, #7]
 8003e28:	2b00      	cmp	r3, #0
 8003e2a:	d025      	beq.n	8003e78 <Soldering_Iron_INI+0xf8>
		Soldering_Iron.Temperature_Pressets.Manual=1200;
 8003e2c:	4b17      	ldr	r3, [pc, #92]	; (8003e8c <Soldering_Iron_INI+0x10c>)
 8003e2e:	f44f 6296 	mov.w	r2, #1200	; 0x4b0
 8003e32:	f8a3 2046 	strh.w	r2, [r3, #70]	; 0x46
		Soldering_Iron. Temperature_Pressets.Presset1=1000;
 8003e36:	4b15      	ldr	r3, [pc, #84]	; (8003e8c <Soldering_Iron_INI+0x10c>)
 8003e38:	f44f 727a 	mov.w	r2, #1000	; 0x3e8
 8003e3c:	f8a3 2048 	strh.w	r2, [r3, #72]	; 0x48
		Soldering_Iron. Temperature_Pressets.Presset2=1500;
 8003e40:	4b12      	ldr	r3, [pc, #72]	; (8003e8c <Soldering_Iron_INI+0x10c>)
 8003e42:	f240 52dc 	movw	r2, #1500	; 0x5dc
 8003e46:	f8a3 204a 	strh.w	r2, [r3, #74]	; 0x4a

		Soldering_Iron.Add_Temperature=1000;
 8003e4a:	4b10      	ldr	r3, [pc, #64]	; (8003e8c <Soldering_Iron_INI+0x10c>)
 8003e4c:	f44f 727a 	mov.w	r2, #1000	; 0x3e8
 8003e50:	f8a3 2080 	strh.w	r2, [r3, #128]	; 0x80

		Soldering_Iron.Temperature_Pressets.Sleep=800;
 8003e54:	4b0d      	ldr	r3, [pc, #52]	; (8003e8c <Soldering_Iron_INI+0x10c>)
 8003e56:	f44f 7248 	mov.w	r2, #800	; 0x320
 8003e5a:	f8a3 204c 	strh.w	r2, [r3, #76]	; 0x4c
		Soldering_Iron.Sleep_time=200;
 8003e5e:	4b0b      	ldr	r3, [pc, #44]	; (8003e8c <Soldering_Iron_INI+0x10c>)
 8003e60:	22c8      	movs	r2, #200	; 0xc8
 8003e62:	f883 208e 	strb.w	r2, [r3, #142]	; 0x8e
		Soldering_Iron.Disable_time=400;
 8003e66:	4b09      	ldr	r3, [pc, #36]	; (8003e8c <Soldering_Iron_INI+0x10c>)
 8003e68:	f44f 72c8 	mov.w	r2, #400	; 0x190
 8003e6c:	f8a3 2090 	strh.w	r2, [r3, #144]	; 0x90

		Soldering_Iron.Flash_Key=0x0801F802;
 8003e70:	4b06      	ldr	r3, [pc, #24]	; (8003e8c <Soldering_Iron_INI+0x10c>)
 8003e72:	4a10      	ldr	r2, [pc, #64]	; (8003eb4 <Soldering_Iron_INI+0x134>)
 8003e74:	f8c3 2098 	str.w	r2, [r3, #152]	; 0x98
	}
	Solder_Iron_Flash_Read_Manual_Temperature(&Soldering_Iron);
 8003e78:	4804      	ldr	r0, [pc, #16]	; (8003e8c <Soldering_Iron_INI+0x10c>)
 8003e7a:	f7ff f905 	bl	8003088 <Solder_Iron_Flash_Read_Manual_Temperature>
	Solder_Iron_ini(&Soldering_Iron);
 8003e7e:	4803      	ldr	r0, [pc, #12]	; (8003e8c <Soldering_Iron_INI+0x10c>)
 8003e80:	f7ff f812 	bl	8002ea8 <Solder_Iron_ini>
}
 8003e84:	bf00      	nop
 8003e86:	3708      	adds	r7, #8
 8003e88:	46bd      	mov	sp, r7
 8003e8a:	bd80      	pop	{r7, pc}
 8003e8c:	20000828 	.word	0x20000828
 8003e90:	40a00000 	.word	0x40a00000
 8003e94:	3d4ccccd 	.word	0x3d4ccccd
 8003e98:	3dcccccd 	.word	0x3dcccccd
 8003e9c:	3c23d70a 	.word	0x3c23d70a
 8003ea0:	3f4ccccd 	.word	0x3f4ccccd
 8003ea4:	41f00000 	.word	0x41f00000
 8003ea8:	200009ec 	.word	0x200009ec
 8003eac:	2000069c 	.word	0x2000069c
 8003eb0:	40010800 	.word	0x40010800
 8003eb4:	0801f802 	.word	0x0801f802

08003eb8 <PAC_INI>:
//----------------------------------------------------------------------------
void PAC_INI(){
 8003eb8:	b580      	push	{r7, lr}
 8003eba:	af00      	add	r7, sp, #0
	PAC.ZCD=&ZCD;
 8003ebc:	4b06      	ldr	r3, [pc, #24]	; (8003ed8 <PAC_INI+0x20>)
 8003ebe:	4a07      	ldr	r2, [pc, #28]	; (8003edc <PAC_INI+0x24>)
 8003ec0:	601a      	str	r2, [r3, #0]

	ZCD.EXTI_PIN=GPIO_PIN_1;
 8003ec2:	4b06      	ldr	r3, [pc, #24]	; (8003edc <PAC_INI+0x24>)
 8003ec4:	2202      	movs	r2, #2
 8003ec6:	811a      	strh	r2, [r3, #8]
	ZCD.GPIO=GPIOB;
 8003ec8:	4b04      	ldr	r3, [pc, #16]	; (8003edc <PAC_INI+0x24>)
 8003eca:	4a05      	ldr	r2, [pc, #20]	; (8003ee0 <PAC_INI+0x28>)
 8003ecc:	60da      	str	r2, [r3, #12]
	ZCD_ini(&ZCD);
 8003ece:	4803      	ldr	r0, [pc, #12]	; (8003edc <PAC_INI+0x24>)
 8003ed0:	f7fe fd3c 	bl	800294c <ZCD_ini>

}
 8003ed4:	bf00      	nop
 8003ed6:	bd80      	pop	{r7, pc}
 8003ed8:	200009dc 	.word	0x200009dc
 8003edc:	200009cc 	.word	0x200009cc
 8003ee0:	40010c00 	.word	0x40010c00

08003ee4 <Soldering_Heat_Gun_INI>:
//----------------------------------------------------------------------------
void Soldering_Heat_Gun_INI(uint8_t Flash_Read_Status){
 8003ee4:	b580      	push	{r7, lr}
 8003ee6:	b086      	sub	sp, #24
 8003ee8:	af00      	add	r7, sp, #0
 8003eea:	4603      	mov	r3, r0
 8003eec:	71fb      	strb	r3, [r7, #7]
	Soldering_Heat_Gun.PID.KP=0.2;
 8003eee:	4b35      	ldr	r3, [pc, #212]	; (8003fc4 <Soldering_Heat_Gun_INI+0xe0>)
 8003ef0:	4a35      	ldr	r2, [pc, #212]	; (8003fc8 <Soldering_Heat_Gun_INI+0xe4>)
 8003ef2:	601a      	str	r2, [r3, #0]
	Soldering_Heat_Gun.PID.KI=0.01;//0.03;//0.03
 8003ef4:	4b33      	ldr	r3, [pc, #204]	; (8003fc4 <Soldering_Heat_Gun_INI+0xe0>)
 8003ef6:	4a35      	ldr	r2, [pc, #212]	; (8003fcc <Soldering_Heat_Gun_INI+0xe8>)
 8003ef8:	605a      	str	r2, [r3, #4]
	Soldering_Heat_Gun.PID.KD=0.4;//1.5;
 8003efa:	4b32      	ldr	r3, [pc, #200]	; (8003fc4 <Soldering_Heat_Gun_INI+0xe0>)
 8003efc:	4a34      	ldr	r2, [pc, #208]	; (8003fd0 <Soldering_Heat_Gun_INI+0xec>)
 8003efe:	609a      	str	r2, [r3, #8]
	Soldering_Heat_Gun.PID.dt=0.1;
 8003f00:	4b30      	ldr	r3, [pc, #192]	; (8003fc4 <Soldering_Heat_Gun_INI+0xe0>)
 8003f02:	4a34      	ldr	r2, [pc, #208]	; (8003fd4 <Soldering_Heat_Gun_INI+0xf0>)
 8003f04:	60da      	str	r2, [r3, #12]
	Soldering_Heat_Gun.PID.MAX_Control=350;
 8003f06:	4b2f      	ldr	r3, [pc, #188]	; (8003fc4 <Soldering_Heat_Gun_INI+0xe0>)
 8003f08:	f44f 72af 	mov.w	r2, #350	; 0x15e
 8003f0c:	821a      	strh	r2, [r3, #16]


	Soldering_Heat_Gun.Filter.Filter_Mode=Three_Samples;
 8003f0e:	4b2d      	ldr	r3, [pc, #180]	; (8003fc4 <Soldering_Heat_Gun_INI+0xe0>)
 8003f10:	2201      	movs	r2, #1
 8003f12:	f883 203c 	strb.w	r2, [r3, #60]	; 0x3c
	Soldering_Heat_Gun.Filter.k_min=0.03;
 8003f16:	4b2b      	ldr	r3, [pc, #172]	; (8003fc4 <Soldering_Heat_Gun_INI+0xe0>)
 8003f18:	4a2f      	ldr	r2, [pc, #188]	; (8003fd8 <Soldering_Heat_Gun_INI+0xf4>)
 8003f1a:	629a      	str	r2, [r3, #40]	; 0x28
	Soldering_Heat_Gun.Filter.k_max=0.8;
 8003f1c:	4b29      	ldr	r3, [pc, #164]	; (8003fc4 <Soldering_Heat_Gun_INI+0xe0>)
 8003f1e:	4a2f      	ldr	r2, [pc, #188]	; (8003fdc <Soldering_Heat_Gun_INI+0xf8>)
 8003f20:	62da      	str	r2, [r3, #44]	; 0x2c
	Soldering_Heat_Gun.Filter.Val_Delata=60;
 8003f22:	4b28      	ldr	r3, [pc, #160]	; (8003fc4 <Soldering_Heat_Gun_INI+0xe0>)
 8003f24:	4a2e      	ldr	r2, [pc, #184]	; (8003fe0 <Soldering_Heat_Gun_INI+0xfc>)
 8003f26:	635a      	str	r2, [r3, #52]	; 0x34
	Soldering_Heat_Gun.Filter.mass=&ADC_Data[1];
 8003f28:	4b26      	ldr	r3, [pc, #152]	; (8003fc4 <Soldering_Heat_Gun_INI+0xe0>)
 8003f2a:	4a2e      	ldr	r2, [pc, #184]	; (8003fe4 <Soldering_Heat_Gun_INI+0x100>)
 8003f2c:	641a      	str	r2, [r3, #64]	; 0x40


	Soldering_Heat_Gun.MODE=MANUAL;
 8003f2e:	4b25      	ldr	r3, [pc, #148]	; (8003fc4 <Soldering_Heat_Gun_INI+0xe0>)
 8003f30:	2200      	movs	r2, #0
 8003f32:	f883 2044 	strb.w	r2, [r3, #68]	; 0x44

	Soldering_Heat_Gun.OFF_PIN=GPIO_PIN_15;
 8003f36:	4b23      	ldr	r3, [pc, #140]	; (8003fc4 <Soldering_Heat_Gun_INI+0xe0>)
 8003f38:	f44f 4200 	mov.w	r2, #32768	; 0x8000
 8003f3c:	f8a3 2070 	strh.w	r2, [r3, #112]	; 0x70
	Soldering_Heat_Gun.OFF_GPIO=GPIOC;
 8003f40:	4b20      	ldr	r3, [pc, #128]	; (8003fc4 <Soldering_Heat_Gun_INI+0xe0>)
 8003f42:	4a29      	ldr	r2, [pc, #164]	; (8003fe8 <Soldering_Heat_Gun_INI+0x104>)
 8003f44:	675a      	str	r2, [r3, #116]	; 0x74
	Soldering_Heat_Gun.MANUAL_PIN=GPIO_PIN_9;
 8003f46:	4b1f      	ldr	r3, [pc, #124]	; (8003fc4 <Soldering_Heat_Gun_INI+0xe0>)
 8003f48:	f44f 7200 	mov.w	r2, #512	; 0x200
 8003f4c:	f8a3 2078 	strh.w	r2, [r3, #120]	; 0x78
	Soldering_Heat_Gun.MANUAL_GPIO=GPIOB;
 8003f50:	4b1c      	ldr	r3, [pc, #112]	; (8003fc4 <Soldering_Heat_Gun_INI+0xe0>)
 8003f52:	4a26      	ldr	r2, [pc, #152]	; (8003fec <Soldering_Heat_Gun_INI+0x108>)
 8003f54:	67da      	str	r2, [r3, #124]	; 0x7c

	Soldering_Heat_Gun.PAC = &PAC;
 8003f56:	4b1b      	ldr	r3, [pc, #108]	; (8003fc4 <Soldering_Heat_Gun_INI+0xe0>)
 8003f58:	4a25      	ldr	r2, [pc, #148]	; (8003ff0 <Soldering_Heat_Gun_INI+0x10c>)
 8003f5a:	661a      	str	r2, [r3, #96]	; 0x60

	struct PAC_Control_Vector element_ini;

	element_ini.GPIO=GPIOB;
 8003f5c:	4b23      	ldr	r3, [pc, #140]	; (8003fec <Soldering_Heat_Gun_INI+0x108>)
 8003f5e:	613b      	str	r3, [r7, #16]
	element_ini.PIN=GPIO_PIN_11;
 8003f60:	f44f 6300 	mov.w	r3, #2048	; 0x800
 8003f64:	81bb      	strh	r3, [r7, #12]

	Soldering_Heat_Gun.PAC_Control=PAC_Control_Vector_Create(&PAC, &element_ini);
 8003f66:	f107 0308 	add.w	r3, r7, #8
 8003f6a:	4619      	mov	r1, r3
 8003f6c:	4820      	ldr	r0, [pc, #128]	; (8003ff0 <Soldering_Heat_Gun_INI+0x10c>)
 8003f6e:	f7fe fc2b 	bl	80027c8 <PAC_Control_Vector_Create>
 8003f72:	4603      	mov	r3, r0
 8003f74:	4a13      	ldr	r2, [pc, #76]	; (8003fc4 <Soldering_Heat_Gun_INI+0xe0>)
 8003f76:	65d3      	str	r3, [r2, #92]	; 0x5c

	Soldering_Heat_Gun.PAC_Control->Control_Value=25;
 8003f78:	4b12      	ldr	r3, [pc, #72]	; (8003fc4 <Soldering_Heat_Gun_INI+0xe0>)
 8003f7a:	6ddb      	ldr	r3, [r3, #92]	; 0x5c
 8003f7c:	2219      	movs	r2, #25
 8003f7e:	819a      	strh	r2, [r3, #12]


	if(Flash_Read_Status!=HAL_OK){
 8003f80:	79fb      	ldrb	r3, [r7, #7]
 8003f82:	2b00      	cmp	r3, #0
 8003f84:	d011      	beq.n	8003faa <Soldering_Heat_Gun_INI+0xc6>
		Soldering_Heat_Gun.Temperature_Pressets.Presset1=1000;
 8003f86:	4b0f      	ldr	r3, [pc, #60]	; (8003fc4 <Soldering_Heat_Gun_INI+0xe0>)
 8003f88:	f44f 727a 	mov.w	r2, #1000	; 0x3e8
 8003f8c:	f8a3 2048 	strh.w	r2, [r3, #72]	; 0x48
		Soldering_Heat_Gun.Temperature_Pressets.Presset2=1500;
 8003f90:	4b0c      	ldr	r3, [pc, #48]	; (8003fc4 <Soldering_Heat_Gun_INI+0xe0>)
 8003f92:	f240 52dc 	movw	r2, #1500	; 0x5dc
 8003f96:	f8a3 204a 	strh.w	r2, [r3, #74]	; 0x4a
		Soldering_Heat_Gun.Temperature_Coolling=100;
 8003f9a:	4b0a      	ldr	r3, [pc, #40]	; (8003fc4 <Soldering_Heat_Gun_INI+0xe0>)
 8003f9c:	2264      	movs	r2, #100	; 0x64
 8003f9e:	f8a3 2080 	strh.w	r2, [r3, #128]	; 0x80
		Soldering_Heat_Gun.Flash_Key=Soldering_Heat_Gun_Struct_Key;
 8003fa2:	4b08      	ldr	r3, [pc, #32]	; (8003fc4 <Soldering_Heat_Gun_INI+0xe0>)
 8003fa4:	4a13      	ldr	r2, [pc, #76]	; (8003ff4 <Soldering_Heat_Gun_INI+0x110>)
 8003fa6:	f8c3 2088 	str.w	r2, [r3, #136]	; 0x88
	}

	Soldering_Heat_Gun_Flash_Read_Manual_Temperature(&Soldering_Heat_Gun);
 8003faa:	4806      	ldr	r0, [pc, #24]	; (8003fc4 <Soldering_Heat_Gun_INI+0xe0>)
 8003fac:	f7ff f99a 	bl	80032e4 <Soldering_Heat_Gun_Flash_Read_Manual_Temperature>

	Soldering_Heat_Gun_ini(&Soldering_Heat_Gun);
 8003fb0:	4804      	ldr	r0, [pc, #16]	; (8003fc4 <Soldering_Heat_Gun_INI+0xe0>)
 8003fb2:	f7ff f888 	bl	80030c6 <Soldering_Heat_Gun_ini>

	Soldering_Heat_Gun_OFF(&Soldering_Heat_Gun);
 8003fb6:	4803      	ldr	r0, [pc, #12]	; (8003fc4 <Soldering_Heat_Gun_INI+0xe0>)
 8003fb8:	f7ff f8cb 	bl	8003152 <Soldering_Heat_Gun_OFF>


}
 8003fbc:	bf00      	nop
 8003fbe:	3718      	adds	r7, #24
 8003fc0:	46bd      	mov	sp, r7
 8003fc2:	bd80      	pop	{r7, pc}
 8003fc4:	200008c4 	.word	0x200008c4
 8003fc8:	3e4ccccd 	.word	0x3e4ccccd
 8003fcc:	3c23d70a 	.word	0x3c23d70a
 8003fd0:	3ecccccd 	.word	0x3ecccccd
 8003fd4:	3dcccccd 	.word	0x3dcccccd
 8003fd8:	3cf5c28f 	.word	0x3cf5c28f
 8003fdc:	3f4ccccd 	.word	0x3f4ccccd
 8003fe0:	42700000 	.word	0x42700000
 8003fe4:	200009e6 	.word	0x200009e6
 8003fe8:	40011000 	.word	0x40011000
 8003fec:	40010c00 	.word	0x40010c00
 8003ff0:	200009dc 	.word	0x200009dc
 8003ff4:	0801f804 	.word	0x0801f804

08003ff8 <Soldering_Separator_INI>:
//----------------------------------------------------------------------------
void Soldering_Separator_INI(uint8_t Flash_Read_Status){
 8003ff8:	b580      	push	{r7, lr}
 8003ffa:	b086      	sub	sp, #24
 8003ffc:	af00      	add	r7, sp, #0
 8003ffe:	4603      	mov	r3, r0
 8004000:	71fb      	strb	r3, [r7, #7]
	Soldering_Separator.PID.KP=0.15;
 8004002:	4b2a      	ldr	r3, [pc, #168]	; (80040ac <Soldering_Separator_INI+0xb4>)
 8004004:	4a2a      	ldr	r2, [pc, #168]	; (80040b0 <Soldering_Separator_INI+0xb8>)
 8004006:	601a      	str	r2, [r3, #0]
	Soldering_Separator.PID.KI=0.0005;//0.03;//0.03
 8004008:	4b28      	ldr	r3, [pc, #160]	; (80040ac <Soldering_Separator_INI+0xb4>)
 800400a:	4a2a      	ldr	r2, [pc, #168]	; (80040b4 <Soldering_Separator_INI+0xbc>)
 800400c:	605a      	str	r2, [r3, #4]
	Soldering_Separator.PID.KD=0.1;//1.5;
 800400e:	4b27      	ldr	r3, [pc, #156]	; (80040ac <Soldering_Separator_INI+0xb4>)
 8004010:	4a29      	ldr	r2, [pc, #164]	; (80040b8 <Soldering_Separator_INI+0xc0>)
 8004012:	609a      	str	r2, [r3, #8]
	Soldering_Separator.PID.dt=0.1;
 8004014:	4b25      	ldr	r3, [pc, #148]	; (80040ac <Soldering_Separator_INI+0xb4>)
 8004016:	4a28      	ldr	r2, [pc, #160]	; (80040b8 <Soldering_Separator_INI+0xc0>)
 8004018:	60da      	str	r2, [r3, #12]
	Soldering_Separator.PID.MAX_Control=350;
 800401a:	4b24      	ldr	r3, [pc, #144]	; (80040ac <Soldering_Separator_INI+0xb4>)
 800401c:	f44f 72af 	mov.w	r2, #350	; 0x15e
 8004020:	821a      	strh	r2, [r3, #16]


	Soldering_Separator.Filter.Filter_Mode=Three_Samples;
 8004022:	4b22      	ldr	r3, [pc, #136]	; (80040ac <Soldering_Separator_INI+0xb4>)
 8004024:	2201      	movs	r2, #1
 8004026:	f883 203c 	strb.w	r2, [r3, #60]	; 0x3c
	Soldering_Separator.Filter.k_min=0.1;
 800402a:	4b20      	ldr	r3, [pc, #128]	; (80040ac <Soldering_Separator_INI+0xb4>)
 800402c:	4a22      	ldr	r2, [pc, #136]	; (80040b8 <Soldering_Separator_INI+0xc0>)
 800402e:	629a      	str	r2, [r3, #40]	; 0x28
	Soldering_Separator.Filter.k_max=0.3;
 8004030:	4b1e      	ldr	r3, [pc, #120]	; (80040ac <Soldering_Separator_INI+0xb4>)
 8004032:	4a22      	ldr	r2, [pc, #136]	; (80040bc <Soldering_Separator_INI+0xc4>)
 8004034:	62da      	str	r2, [r3, #44]	; 0x2c
	Soldering_Separator.Filter.Val_Delata=60;
 8004036:	4b1d      	ldr	r3, [pc, #116]	; (80040ac <Soldering_Separator_INI+0xb4>)
 8004038:	4a21      	ldr	r2, [pc, #132]	; (80040c0 <Soldering_Separator_INI+0xc8>)
 800403a:	635a      	str	r2, [r3, #52]	; 0x34
	Soldering_Separator.Filter.mass=&ADC_Data[13];
 800403c:	4b1b      	ldr	r3, [pc, #108]	; (80040ac <Soldering_Separator_INI+0xb4>)
 800403e:	4a21      	ldr	r2, [pc, #132]	; (80040c4 <Soldering_Separator_INI+0xcc>)
 8004040:	641a      	str	r2, [r3, #64]	; 0x40


	Soldering_Separator.MODE=MANUAL;
 8004042:	4b1a      	ldr	r3, [pc, #104]	; (80040ac <Soldering_Separator_INI+0xb4>)
 8004044:	2200      	movs	r2, #0
 8004046:	f883 2044 	strb.w	r2, [r3, #68]	; 0x44

	Soldering_Separator.PAC = &PAC;
 800404a:	4b18      	ldr	r3, [pc, #96]	; (80040ac <Soldering_Separator_INI+0xb4>)
 800404c:	4a1e      	ldr	r2, [pc, #120]	; (80040c8 <Soldering_Separator_INI+0xd0>)
 800404e:	661a      	str	r2, [r3, #96]	; 0x60

	struct PAC_Control_Vector element_ini;

	element_ini.GPIO=GPIOB;
 8004050:	4b1e      	ldr	r3, [pc, #120]	; (80040cc <Soldering_Separator_INI+0xd4>)
 8004052:	613b      	str	r3, [r7, #16]
	element_ini.PIN=GPIO_PIN_0;
 8004054:	2301      	movs	r3, #1
 8004056:	81bb      	strh	r3, [r7, #12]

	Soldering_Separator.PAC_Control=PAC_Control_Vector_Create(&PAC, &element_ini);
 8004058:	f107 0308 	add.w	r3, r7, #8
 800405c:	4619      	mov	r1, r3
 800405e:	481a      	ldr	r0, [pc, #104]	; (80040c8 <Soldering_Separator_INI+0xd0>)
 8004060:	f7fe fbb2 	bl	80027c8 <PAC_Control_Vector_Create>
 8004064:	4603      	mov	r3, r0
 8004066:	4a11      	ldr	r2, [pc, #68]	; (80040ac <Soldering_Separator_INI+0xb4>)
 8004068:	65d3      	str	r3, [r2, #92]	; 0x5c

	Soldering_Separator.PAC_Control->Control_Value=25;
 800406a:	4b10      	ldr	r3, [pc, #64]	; (80040ac <Soldering_Separator_INI+0xb4>)
 800406c:	6ddb      	ldr	r3, [r3, #92]	; 0x5c
 800406e:	2219      	movs	r2, #25
 8004070:	819a      	strh	r2, [r3, #12]


	if(Flash_Read_Status!=HAL_OK){
 8004072:	79fb      	ldrb	r3, [r7, #7]
 8004074:	2b00      	cmp	r3, #0
 8004076:	d00c      	beq.n	8004092 <Soldering_Separator_INI+0x9a>
		Soldering_Separator.Temperature_Pressets.Presset1=1000;
 8004078:	4b0c      	ldr	r3, [pc, #48]	; (80040ac <Soldering_Separator_INI+0xb4>)
 800407a:	f44f 727a 	mov.w	r2, #1000	; 0x3e8
 800407e:	f8a3 2048 	strh.w	r2, [r3, #72]	; 0x48
		Soldering_Separator.Temperature_Pressets.Presset2=1500;
 8004082:	4b0a      	ldr	r3, [pc, #40]	; (80040ac <Soldering_Separator_INI+0xb4>)
 8004084:	f240 52dc 	movw	r2, #1500	; 0x5dc
 8004088:	f8a3 204a 	strh.w	r2, [r3, #74]	; 0x4a
		Soldering_Separator.Flash_Key=Soldering_Separator_Struct_Key;
 800408c:	4b07      	ldr	r3, [pc, #28]	; (80040ac <Soldering_Separator_INI+0xb4>)
 800408e:	4a10      	ldr	r2, [pc, #64]	; (80040d0 <Soldering_Separator_INI+0xd8>)
 8004090:	679a      	str	r2, [r3, #120]	; 0x78
	}

	Soldering_Separator_Flash_Read_Manual_Temperature(&Soldering_Separator);
 8004092:	4806      	ldr	r0, [pc, #24]	; (80040ac <Soldering_Separator_INI+0xb4>)
 8004094:	f7ff fa0c 	bl	80034b0 <Soldering_Separator_Flash_Read_Manual_Temperature>

	Soldering_Separator_ini(&Soldering_Separator);
 8004098:	4804      	ldr	r0, [pc, #16]	; (80040ac <Soldering_Separator_INI+0xb4>)
 800409a:	f7ff f942 	bl	8003322 <Soldering_Separator_ini>

	Soldering_Separator_OFF(&Soldering_Separator);
 800409e:	4803      	ldr	r0, [pc, #12]	; (80040ac <Soldering_Separator_INI+0xb4>)
 80040a0:	f7ff f973 	bl	800338a <Soldering_Separator_OFF>


}
 80040a4:	bf00      	nop
 80040a6:	3718      	adds	r7, #24
 80040a8:	46bd      	mov	sp, r7
 80040aa:	bd80      	pop	{r7, pc}
 80040ac:	20000950 	.word	0x20000950
 80040b0:	3e19999a 	.word	0x3e19999a
 80040b4:	3a03126f 	.word	0x3a03126f
 80040b8:	3dcccccd 	.word	0x3dcccccd
 80040bc:	3e99999a 	.word	0x3e99999a
 80040c0:	42700000 	.word	0x42700000
 80040c4:	200009fe 	.word	0x200009fe
 80040c8:	200009dc 	.word	0x200009dc
 80040cc:	40010c00 	.word	0x40010c00
 80040d0:	1801f804 	.word	0x1801f804

080040d4 <main>:
/**
  * @brief  The application entry point.
  * @retval int
  */
int main(void)
{
 80040d4:	b580      	push	{r7, lr}
 80040d6:	b082      	sub	sp, #8
 80040d8:	af00      	add	r7, sp, #0
  /* USER CODE END 1 */

  /* MCU Configuration--------------------------------------------------------*/

  /* Reset of all peripherals, Initializes the Flash interface and the Systick. */
  HAL_Init();
 80040da:	f000 ff0d 	bl	8004ef8 <HAL_Init>
  /* USER CODE BEGIN Init */

  /* USER CODE END Init */

  /* Configure the system clock */
  SystemClock_Config();
 80040de:	f000 f873 	bl	80041c8 <SystemClock_Config>
  /* USER CODE BEGIN SysInit */

  /* USER CODE END SysInit */

  /* Initialize all configured peripherals */
  MX_GPIO_Init();
 80040e2:	f000 fb69 	bl	80047b8 <MX_GPIO_Init>
  MX_DMA_Init();
 80040e6:	f000 fb49 	bl	800477c <MX_DMA_Init>
  MX_ADC1_Init();
 80040ea:	f000 f8bd 	bl	8004268 <MX_ADC1_Init>
  MX_I2C1_Init();
 80040ee:	f000 f9b5 	bl	800445c <MX_I2C1_Init>
  MX_TIM2_Init();
 80040f2:	f000 fa33 	bl	800455c <MX_TIM2_Init>
  MX_TIM1_Init();
 80040f6:	f000 f9df 	bl	80044b8 <MX_TIM1_Init>
  MX_TIM3_Init();
 80040fa:	f000 faa5 	bl	8004648 <MX_TIM3_Init>
  MX_TIM4_Init();
 80040fe:	f000 faf1 	bl	80046e4 <MX_TIM4_Init>
  /* USER CODE BEGIN 2 */

  //---------------------------------------------------------------------------------
  uint8_t Flash_Read_Status;

  Flash_Read_Status=Soldering_Station_Read_Struct(&Soldering_Iron, &Soldering_Heat_Gun, &Soldering_Separator);
 8004102:	4a29      	ldr	r2, [pc, #164]	; (80041a8 <main+0xd4>)
 8004104:	4929      	ldr	r1, [pc, #164]	; (80041ac <main+0xd8>)
 8004106:	482a      	ldr	r0, [pc, #168]	; (80041b0 <main+0xdc>)
 8004108:	f7ff f9f2 	bl	80034f0 <Soldering_Station_Read_Struct>
 800410c:	4603      	mov	r3, r0
 800410e:	71fb      	strb	r3, [r7, #7]


  BUTTON_INI();
 8004110:	f7ff fbd4 	bl	80038bc <BUTTON_INI>
  INCODER_INI();
 8004114:	f7ff fc5e 	bl	80039d4 <INCODER_INI>
  MENU_INI();
 8004118:	f7ff fcbc 	bl	8003a94 <MENU_INI>
  OLED_INI();
 800411c:	f7ff fe1e 	bl	8003d5c <OLED_INI>
  PAC_INI();
 8004120:	f7ff feca 	bl	8003eb8 <PAC_INI>
  Soldering_Iron_INI(Flash_Read_Status);
 8004124:	79fb      	ldrb	r3, [r7, #7]
 8004126:	4618      	mov	r0, r3
 8004128:	f7ff fe2a 	bl	8003d80 <Soldering_Iron_INI>
  Soldering_Heat_Gun_INI(Flash_Read_Status);
 800412c:	79fb      	ldrb	r3, [r7, #7]
 800412e:	4618      	mov	r0, r3
 8004130:	f7ff fed8 	bl	8003ee4 <Soldering_Heat_Gun_INI>
  Soldering_Separator_INI(Flash_Read_Status);
 8004134:	79fb      	ldrb	r3, [r7, #7]
 8004136:	4618      	mov	r0, r3
 8004138:	f7ff ff5e 	bl	8003ff8 <Soldering_Separator_INI>

  if(Flash_Read_Status!=HAL_OK)
 800413c:	79fb      	ldrb	r3, [r7, #7]
 800413e:	2b00      	cmp	r3, #0
 8004140:	d004      	beq.n	800414c <main+0x78>
	  Soldering_Station_Write_Struct(&Soldering_Iron, &Soldering_Heat_Gun, &Soldering_Separator);
 8004142:	4a19      	ldr	r2, [pc, #100]	; (80041a8 <main+0xd4>)
 8004144:	4919      	ldr	r1, [pc, #100]	; (80041ac <main+0xd8>)
 8004146:	481a      	ldr	r0, [pc, #104]	; (80041b0 <main+0xdc>)
 8004148:	f7ff fa04 	bl	8003554 <Soldering_Station_Write_Struct>




  //---------------------------------------------------------------------------------TIM
	__HAL_TIM_CLEAR_FLAG(&htim1, TIM_SR_UIF);
 800414c:	4b19      	ldr	r3, [pc, #100]	; (80041b4 <main+0xe0>)
 800414e:	681b      	ldr	r3, [r3, #0]
 8004150:	f06f 0201 	mvn.w	r2, #1
 8004154:	611a      	str	r2, [r3, #16]
	HAL_TIM_Base_Start_IT(&htim1);
 8004156:	4817      	ldr	r0, [pc, #92]	; (80041b4 <main+0xe0>)
 8004158:	f003 fe2c 	bl	8007db4 <HAL_TIM_Base_Start_IT>
	__HAL_TIM_CLEAR_FLAG(&htim2, TIM_SR_UIF);
 800415c:	4b16      	ldr	r3, [pc, #88]	; (80041b8 <main+0xe4>)
 800415e:	681b      	ldr	r3, [r3, #0]
 8004160:	f06f 0201 	mvn.w	r2, #1
 8004164:	611a      	str	r2, [r3, #16]
	HAL_TIM_PWM_Start(&htim2, TIM_CHANNEL_4);
 8004166:	210c      	movs	r1, #12
 8004168:	4813      	ldr	r0, [pc, #76]	; (80041b8 <main+0xe4>)
 800416a:	f003 fecd 	bl	8007f08 <HAL_TIM_PWM_Start>

	__HAL_TIM_CLEAR_FLAG(&htim3, TIM_SR_UIF);
 800416e:	4b13      	ldr	r3, [pc, #76]	; (80041bc <main+0xe8>)
 8004170:	681b      	ldr	r3, [r3, #0]
 8004172:	f06f 0201 	mvn.w	r2, #1
 8004176:	611a      	str	r2, [r3, #16]
	HAL_TIM_Base_Start_IT(&htim3);
 8004178:	4810      	ldr	r0, [pc, #64]	; (80041bc <main+0xe8>)
 800417a:	f003 fe1b 	bl	8007db4 <HAL_TIM_Base_Start_IT>

	__HAL_TIM_CLEAR_FLAG(&htim4, TIM_SR_UIF);
 800417e:	4b10      	ldr	r3, [pc, #64]	; (80041c0 <main+0xec>)
 8004180:	681b      	ldr	r3, [r3, #0]
 8004182:	f06f 0201 	mvn.w	r2, #1
 8004186:	611a      	str	r2, [r3, #16]
	HAL_TIM_Base_Start_IT(&htim4);
 8004188:	480d      	ldr	r0, [pc, #52]	; (80041c0 <main+0xec>)
 800418a:	f003 fe13 	bl	8007db4 <HAL_TIM_Base_Start_IT>

    PID_Set_Point(&Soldering_Heat_Gun.PID, 2300);
 800418e:	f640 01fc 	movw	r1, #2300	; 0x8fc
 8004192:	4806      	ldr	r0, [pc, #24]	; (80041ac <main+0xd8>)
 8004194:	f7fe fd82 	bl	8002c9c <PID_Set_Point>

  /* Infinite loop */
  /* USER CODE BEGIN WHILE */
  while (1)
  {
	  HAL_Delay(100);
 8004198:	2064      	movs	r0, #100	; 0x64
 800419a:	f000 ff0f 	bl	8004fbc <HAL_Delay>


	  Menu_it(&Menu_List_Vector);
 800419e:	4809      	ldr	r0, [pc, #36]	; (80041c4 <main+0xf0>)
 80041a0:	f7fd ff8c 	bl	80020bc <Menu_it>
	  HAL_Delay(100);
 80041a4:	e7f8      	b.n	8004198 <main+0xc4>
 80041a6:	bf00      	nop
 80041a8:	20000950 	.word	0x20000950
 80041ac:	200008c4 	.word	0x200008c4
 80041b0:	20000828 	.word	0x20000828
 80041b4:	20000654 	.word	0x20000654
 80041b8:	2000069c 	.word	0x2000069c
 80041bc:	200006e4 	.word	0x200006e4
 80041c0:	2000072c 	.word	0x2000072c
 80041c4:	20000818 	.word	0x20000818

080041c8 <SystemClock_Config>:
/**
  * @brief System Clock Configuration
  * @retval None
  */
void SystemClock_Config(void)
{
 80041c8:	b580      	push	{r7, lr}
 80041ca:	b094      	sub	sp, #80	; 0x50
 80041cc:	af00      	add	r7, sp, #0
  RCC_OscInitTypeDef RCC_OscInitStruct = {0};
 80041ce:	f107 0328 	add.w	r3, r7, #40	; 0x28
 80041d2:	2228      	movs	r2, #40	; 0x28
 80041d4:	2100      	movs	r1, #0
 80041d6:	4618      	mov	r0, r3
 80041d8:	f004 fe12 	bl	8008e00 <memset>
  RCC_ClkInitTypeDef RCC_ClkInitStruct = {0};
 80041dc:	f107 0314 	add.w	r3, r7, #20
 80041e0:	2200      	movs	r2, #0
 80041e2:	601a      	str	r2, [r3, #0]
 80041e4:	605a      	str	r2, [r3, #4]
 80041e6:	609a      	str	r2, [r3, #8]
 80041e8:	60da      	str	r2, [r3, #12]
 80041ea:	611a      	str	r2, [r3, #16]
  RCC_PeriphCLKInitTypeDef PeriphClkInit = {0};
 80041ec:	1d3b      	adds	r3, r7, #4
 80041ee:	2200      	movs	r2, #0
 80041f0:	601a      	str	r2, [r3, #0]
 80041f2:	605a      	str	r2, [r3, #4]
 80041f4:	609a      	str	r2, [r3, #8]
 80041f6:	60da      	str	r2, [r3, #12]

  /** Initializes the RCC Oscillators according to the specified parameters
  * in the RCC_OscInitTypeDef structure.
  */
  RCC_OscInitStruct.OscillatorType = RCC_OSCILLATORTYPE_HSI;
 80041f8:	2302      	movs	r3, #2
 80041fa:	62bb      	str	r3, [r7, #40]	; 0x28
  RCC_OscInitStruct.HSIState = RCC_HSI_ON;
 80041fc:	2301      	movs	r3, #1
 80041fe:	63bb      	str	r3, [r7, #56]	; 0x38
  RCC_OscInitStruct.HSICalibrationValue = RCC_HSICALIBRATION_DEFAULT;
 8004200:	2310      	movs	r3, #16
 8004202:	63fb      	str	r3, [r7, #60]	; 0x3c
  RCC_OscInitStruct.PLL.PLLState = RCC_PLL_NONE;
 8004204:	2300      	movs	r3, #0
 8004206:	647b      	str	r3, [r7, #68]	; 0x44
  if (HAL_RCC_OscConfig(&RCC_OscInitStruct) != HAL_OK)
 8004208:	f107 0328 	add.w	r3, r7, #40	; 0x28
 800420c:	4618      	mov	r0, r3
 800420e:	f003 f8c5 	bl	800739c <HAL_RCC_OscConfig>
 8004212:	4603      	mov	r3, r0
 8004214:	2b00      	cmp	r3, #0
 8004216:	d001      	beq.n	800421c <SystemClock_Config+0x54>
  {
    Error_Handler();
 8004218:	f000 fbd4 	bl	80049c4 <Error_Handler>
  }

  /** Initializes the CPU, AHB and APB buses clocks
  */
  RCC_ClkInitStruct.ClockType = RCC_CLOCKTYPE_HCLK|RCC_CLOCKTYPE_SYSCLK
 800421c:	230f      	movs	r3, #15
 800421e:	617b      	str	r3, [r7, #20]
                              |RCC_CLOCKTYPE_PCLK1|RCC_CLOCKTYPE_PCLK2;
  RCC_ClkInitStruct.SYSCLKSource = RCC_SYSCLKSOURCE_HSI;
 8004220:	2300      	movs	r3, #0
 8004222:	61bb      	str	r3, [r7, #24]
  RCC_ClkInitStruct.AHBCLKDivider = RCC_SYSCLK_DIV1;
 8004224:	2300      	movs	r3, #0
 8004226:	61fb      	str	r3, [r7, #28]
  RCC_ClkInitStruct.APB1CLKDivider = RCC_HCLK_DIV1;
 8004228:	2300      	movs	r3, #0
 800422a:	623b      	str	r3, [r7, #32]
  RCC_ClkInitStruct.APB2CLKDivider = RCC_HCLK_DIV1;
 800422c:	2300      	movs	r3, #0
 800422e:	627b      	str	r3, [r7, #36]	; 0x24

  if (HAL_RCC_ClockConfig(&RCC_ClkInitStruct, FLASH_LATENCY_0) != HAL_OK)
 8004230:	f107 0314 	add.w	r3, r7, #20
 8004234:	2100      	movs	r1, #0
 8004236:	4618      	mov	r0, r3
 8004238:	f003 fb32 	bl	80078a0 <HAL_RCC_ClockConfig>
 800423c:	4603      	mov	r3, r0
 800423e:	2b00      	cmp	r3, #0
 8004240:	d001      	beq.n	8004246 <SystemClock_Config+0x7e>
  {
    Error_Handler();
 8004242:	f000 fbbf 	bl	80049c4 <Error_Handler>
  }
  PeriphClkInit.PeriphClockSelection = RCC_PERIPHCLK_ADC;
 8004246:	2302      	movs	r3, #2
 8004248:	607b      	str	r3, [r7, #4]
  PeriphClkInit.AdcClockSelection = RCC_ADCPCLK2_DIV2;
 800424a:	2300      	movs	r3, #0
 800424c:	60fb      	str	r3, [r7, #12]
  if (HAL_RCCEx_PeriphCLKConfig(&PeriphClkInit) != HAL_OK)
 800424e:	1d3b      	adds	r3, r7, #4
 8004250:	4618      	mov	r0, r3
 8004252:	f003 fca9 	bl	8007ba8 <HAL_RCCEx_PeriphCLKConfig>
 8004256:	4603      	mov	r3, r0
 8004258:	2b00      	cmp	r3, #0
 800425a:	d001      	beq.n	8004260 <SystemClock_Config+0x98>
  {
    Error_Handler();
 800425c:	f000 fbb2 	bl	80049c4 <Error_Handler>
  }
}
 8004260:	bf00      	nop
 8004262:	3750      	adds	r7, #80	; 0x50
 8004264:	46bd      	mov	sp, r7
 8004266:	bd80      	pop	{r7, pc}

08004268 <MX_ADC1_Init>:
  * @brief ADC1 Initialization Function
  * @param None
  * @retval None
  */
static void MX_ADC1_Init(void)
{
 8004268:	b580      	push	{r7, lr}
 800426a:	b084      	sub	sp, #16
 800426c:	af00      	add	r7, sp, #0

  /* USER CODE BEGIN ADC1_Init 0 */

  /* USER CODE END ADC1_Init 0 */

  ADC_ChannelConfTypeDef sConfig = {0};
 800426e:	1d3b      	adds	r3, r7, #4
 8004270:	2200      	movs	r2, #0
 8004272:	601a      	str	r2, [r3, #0]
 8004274:	605a      	str	r2, [r3, #4]
 8004276:	609a      	str	r2, [r3, #8]

  /* USER CODE END ADC1_Init 1 */

  /** Common config
  */
  hadc1.Instance = ADC1;
 8004278:	4b76      	ldr	r3, [pc, #472]	; (8004454 <MX_ADC1_Init+0x1ec>)
 800427a:	4a77      	ldr	r2, [pc, #476]	; (8004458 <MX_ADC1_Init+0x1f0>)
 800427c:	601a      	str	r2, [r3, #0]
  hadc1.Init.ScanConvMode = ADC_SCAN_ENABLE;
 800427e:	4b75      	ldr	r3, [pc, #468]	; (8004454 <MX_ADC1_Init+0x1ec>)
 8004280:	f44f 7280 	mov.w	r2, #256	; 0x100
 8004284:	609a      	str	r2, [r3, #8]
  hadc1.Init.ContinuousConvMode = DISABLE;
 8004286:	4b73      	ldr	r3, [pc, #460]	; (8004454 <MX_ADC1_Init+0x1ec>)
 8004288:	2200      	movs	r2, #0
 800428a:	731a      	strb	r2, [r3, #12]
  hadc1.Init.DiscontinuousConvMode = DISABLE;
 800428c:	4b71      	ldr	r3, [pc, #452]	; (8004454 <MX_ADC1_Init+0x1ec>)
 800428e:	2200      	movs	r2, #0
 8004290:	751a      	strb	r2, [r3, #20]
  hadc1.Init.ExternalTrigConv = ADC_SOFTWARE_START;
 8004292:	4b70      	ldr	r3, [pc, #448]	; (8004454 <MX_ADC1_Init+0x1ec>)
 8004294:	f44f 2260 	mov.w	r2, #917504	; 0xe0000
 8004298:	61da      	str	r2, [r3, #28]
  hadc1.Init.DataAlign = ADC_DATAALIGN_RIGHT;
 800429a:	4b6e      	ldr	r3, [pc, #440]	; (8004454 <MX_ADC1_Init+0x1ec>)
 800429c:	2200      	movs	r2, #0
 800429e:	605a      	str	r2, [r3, #4]
  hadc1.Init.NbrOfConversion = 16;
 80042a0:	4b6c      	ldr	r3, [pc, #432]	; (8004454 <MX_ADC1_Init+0x1ec>)
 80042a2:	2210      	movs	r2, #16
 80042a4:	611a      	str	r2, [r3, #16]
  if (HAL_ADC_Init(&hadc1) != HAL_OK)
 80042a6:	486b      	ldr	r0, [pc, #428]	; (8004454 <MX_ADC1_Init+0x1ec>)
 80042a8:	f000 feac 	bl	8005004 <HAL_ADC_Init>
 80042ac:	4603      	mov	r3, r0
 80042ae:	2b00      	cmp	r3, #0
 80042b0:	d001      	beq.n	80042b6 <MX_ADC1_Init+0x4e>
  {
    Error_Handler();
 80042b2:	f000 fb87 	bl	80049c4 <Error_Handler>
  }

  /** Configure Regular Channel
  */
  sConfig.Channel = ADC_CHANNEL_0;
 80042b6:	2300      	movs	r3, #0
 80042b8:	607b      	str	r3, [r7, #4]
  sConfig.Rank = ADC_REGULAR_RANK_1;
 80042ba:	2301      	movs	r3, #1
 80042bc:	60bb      	str	r3, [r7, #8]
  sConfig.SamplingTime = ADC_SAMPLETIME_55CYCLES_5;
 80042be:	2305      	movs	r3, #5
 80042c0:	60fb      	str	r3, [r7, #12]
  if (HAL_ADC_ConfigChannel(&hadc1, &sConfig) != HAL_OK)
 80042c2:	1d3b      	adds	r3, r7, #4
 80042c4:	4619      	mov	r1, r3
 80042c6:	4863      	ldr	r0, [pc, #396]	; (8004454 <MX_ADC1_Init+0x1ec>)
 80042c8:	f001 f930 	bl	800552c <HAL_ADC_ConfigChannel>
 80042cc:	4603      	mov	r3, r0
 80042ce:	2b00      	cmp	r3, #0
 80042d0:	d001      	beq.n	80042d6 <MX_ADC1_Init+0x6e>
  {
    Error_Handler();
 80042d2:	f000 fb77 	bl	80049c4 <Error_Handler>
  }

  /** Configure Regular Channel
  */
  sConfig.Channel = ADC_CHANNEL_1;
 80042d6:	2301      	movs	r3, #1
 80042d8:	607b      	str	r3, [r7, #4]
  sConfig.Rank = ADC_REGULAR_RANK_2;
 80042da:	2302      	movs	r3, #2
 80042dc:	60bb      	str	r3, [r7, #8]
  if (HAL_ADC_ConfigChannel(&hadc1, &sConfig) != HAL_OK)
 80042de:	1d3b      	adds	r3, r7, #4
 80042e0:	4619      	mov	r1, r3
 80042e2:	485c      	ldr	r0, [pc, #368]	; (8004454 <MX_ADC1_Init+0x1ec>)
 80042e4:	f001 f922 	bl	800552c <HAL_ADC_ConfigChannel>
 80042e8:	4603      	mov	r3, r0
 80042ea:	2b00      	cmp	r3, #0
 80042ec:	d001      	beq.n	80042f2 <MX_ADC1_Init+0x8a>
  {
    Error_Handler();
 80042ee:	f000 fb69 	bl	80049c4 <Error_Handler>
  }

  /** Configure Regular Channel
  */
  sConfig.Rank = ADC_REGULAR_RANK_3;
 80042f2:	2303      	movs	r3, #3
 80042f4:	60bb      	str	r3, [r7, #8]
  if (HAL_ADC_ConfigChannel(&hadc1, &sConfig) != HAL_OK)
 80042f6:	1d3b      	adds	r3, r7, #4
 80042f8:	4619      	mov	r1, r3
 80042fa:	4856      	ldr	r0, [pc, #344]	; (8004454 <MX_ADC1_Init+0x1ec>)
 80042fc:	f001 f916 	bl	800552c <HAL_ADC_ConfigChannel>
 8004300:	4603      	mov	r3, r0
 8004302:	2b00      	cmp	r3, #0
 8004304:	d001      	beq.n	800430a <MX_ADC1_Init+0xa2>
  {
    Error_Handler();
 8004306:	f000 fb5d 	bl	80049c4 <Error_Handler>
  }

  /** Configure Regular Channel
  */
  sConfig.Rank = ADC_REGULAR_RANK_4;
 800430a:	2304      	movs	r3, #4
 800430c:	60bb      	str	r3, [r7, #8]
  if (HAL_ADC_ConfigChannel(&hadc1, &sConfig) != HAL_OK)
 800430e:	1d3b      	adds	r3, r7, #4
 8004310:	4619      	mov	r1, r3
 8004312:	4850      	ldr	r0, [pc, #320]	; (8004454 <MX_ADC1_Init+0x1ec>)
 8004314:	f001 f90a 	bl	800552c <HAL_ADC_ConfigChannel>
 8004318:	4603      	mov	r3, r0
 800431a:	2b00      	cmp	r3, #0
 800431c:	d001      	beq.n	8004322 <MX_ADC1_Init+0xba>
  {
    Error_Handler();
 800431e:	f000 fb51 	bl	80049c4 <Error_Handler>
  }

  /** Configure Regular Channel
  */
  sConfig.Channel = ADC_CHANNEL_6;
 8004322:	2306      	movs	r3, #6
 8004324:	607b      	str	r3, [r7, #4]
  sConfig.Rank = ADC_REGULAR_RANK_5;
 8004326:	2305      	movs	r3, #5
 8004328:	60bb      	str	r3, [r7, #8]
  if (HAL_ADC_ConfigChannel(&hadc1, &sConfig) != HAL_OK)
 800432a:	1d3b      	adds	r3, r7, #4
 800432c:	4619      	mov	r1, r3
 800432e:	4849      	ldr	r0, [pc, #292]	; (8004454 <MX_ADC1_Init+0x1ec>)
 8004330:	f001 f8fc 	bl	800552c <HAL_ADC_ConfigChannel>
 8004334:	4603      	mov	r3, r0
 8004336:	2b00      	cmp	r3, #0
 8004338:	d001      	beq.n	800433e <MX_ADC1_Init+0xd6>
  {
    Error_Handler();
 800433a:	f000 fb43 	bl	80049c4 <Error_Handler>
  }

  /** Configure Regular Channel
  */
  sConfig.Rank = ADC_REGULAR_RANK_6;
 800433e:	2306      	movs	r3, #6
 8004340:	60bb      	str	r3, [r7, #8]
  if (HAL_ADC_ConfigChannel(&hadc1, &sConfig) != HAL_OK)
 8004342:	1d3b      	adds	r3, r7, #4
 8004344:	4619      	mov	r1, r3
 8004346:	4843      	ldr	r0, [pc, #268]	; (8004454 <MX_ADC1_Init+0x1ec>)
 8004348:	f001 f8f0 	bl	800552c <HAL_ADC_ConfigChannel>
 800434c:	4603      	mov	r3, r0
 800434e:	2b00      	cmp	r3, #0
 8004350:	d001      	beq.n	8004356 <MX_ADC1_Init+0xee>
  {
    Error_Handler();
 8004352:	f000 fb37 	bl	80049c4 <Error_Handler>
  }

  /** Configure Regular Channel
  */
  sConfig.Rank = ADC_REGULAR_RANK_7;
 8004356:	2307      	movs	r3, #7
 8004358:	60bb      	str	r3, [r7, #8]
  if (HAL_ADC_ConfigChannel(&hadc1, &sConfig) != HAL_OK)
 800435a:	1d3b      	adds	r3, r7, #4
 800435c:	4619      	mov	r1, r3
 800435e:	483d      	ldr	r0, [pc, #244]	; (8004454 <MX_ADC1_Init+0x1ec>)
 8004360:	f001 f8e4 	bl	800552c <HAL_ADC_ConfigChannel>
 8004364:	4603      	mov	r3, r0
 8004366:	2b00      	cmp	r3, #0
 8004368:	d001      	beq.n	800436e <MX_ADC1_Init+0x106>
  {
    Error_Handler();
 800436a:	f000 fb2b 	bl	80049c4 <Error_Handler>
  }

  /** Configure Regular Channel
  */
  sConfig.Rank = ADC_REGULAR_RANK_8;
 800436e:	2308      	movs	r3, #8
 8004370:	60bb      	str	r3, [r7, #8]
  if (HAL_ADC_ConfigChannel(&hadc1, &sConfig) != HAL_OK)
 8004372:	1d3b      	adds	r3, r7, #4
 8004374:	4619      	mov	r1, r3
 8004376:	4837      	ldr	r0, [pc, #220]	; (8004454 <MX_ADC1_Init+0x1ec>)
 8004378:	f001 f8d8 	bl	800552c <HAL_ADC_ConfigChannel>
 800437c:	4603      	mov	r3, r0
 800437e:	2b00      	cmp	r3, #0
 8004380:	d001      	beq.n	8004386 <MX_ADC1_Init+0x11e>
  {
    Error_Handler();
 8004382:	f000 fb1f 	bl	80049c4 <Error_Handler>
  }

  /** Configure Regular Channel
  */
  sConfig.Rank = ADC_REGULAR_RANK_9;
 8004386:	2309      	movs	r3, #9
 8004388:	60bb      	str	r3, [r7, #8]
  if (HAL_ADC_ConfigChannel(&hadc1, &sConfig) != HAL_OK)
 800438a:	1d3b      	adds	r3, r7, #4
 800438c:	4619      	mov	r1, r3
 800438e:	4831      	ldr	r0, [pc, #196]	; (8004454 <MX_ADC1_Init+0x1ec>)
 8004390:	f001 f8cc 	bl	800552c <HAL_ADC_ConfigChannel>
 8004394:	4603      	mov	r3, r0
 8004396:	2b00      	cmp	r3, #0
 8004398:	d001      	beq.n	800439e <MX_ADC1_Init+0x136>
  {
    Error_Handler();
 800439a:	f000 fb13 	bl	80049c4 <Error_Handler>
  }

  /** Configure Regular Channel
  */
  sConfig.Rank = ADC_REGULAR_RANK_10;
 800439e:	230a      	movs	r3, #10
 80043a0:	60bb      	str	r3, [r7, #8]
  if (HAL_ADC_ConfigChannel(&hadc1, &sConfig) != HAL_OK)
 80043a2:	1d3b      	adds	r3, r7, #4
 80043a4:	4619      	mov	r1, r3
 80043a6:	482b      	ldr	r0, [pc, #172]	; (8004454 <MX_ADC1_Init+0x1ec>)
 80043a8:	f001 f8c0 	bl	800552c <HAL_ADC_ConfigChannel>
 80043ac:	4603      	mov	r3, r0
 80043ae:	2b00      	cmp	r3, #0
 80043b0:	d001      	beq.n	80043b6 <MX_ADC1_Init+0x14e>
  {
    Error_Handler();
 80043b2:	f000 fb07 	bl	80049c4 <Error_Handler>
  }

  /** Configure Regular Channel
  */
  sConfig.Rank = ADC_REGULAR_RANK_11;
 80043b6:	230b      	movs	r3, #11
 80043b8:	60bb      	str	r3, [r7, #8]
  if (HAL_ADC_ConfigChannel(&hadc1, &sConfig) != HAL_OK)
 80043ba:	1d3b      	adds	r3, r7, #4
 80043bc:	4619      	mov	r1, r3
 80043be:	4825      	ldr	r0, [pc, #148]	; (8004454 <MX_ADC1_Init+0x1ec>)
 80043c0:	f001 f8b4 	bl	800552c <HAL_ADC_ConfigChannel>
 80043c4:	4603      	mov	r3, r0
 80043c6:	2b00      	cmp	r3, #0
 80043c8:	d001      	beq.n	80043ce <MX_ADC1_Init+0x166>
  {
    Error_Handler();
 80043ca:	f000 fafb 	bl	80049c4 <Error_Handler>
  }

  /** Configure Regular Channel
  */
  sConfig.Rank = ADC_REGULAR_RANK_12;
 80043ce:	230c      	movs	r3, #12
 80043d0:	60bb      	str	r3, [r7, #8]
  if (HAL_ADC_ConfigChannel(&hadc1, &sConfig) != HAL_OK)
 80043d2:	1d3b      	adds	r3, r7, #4
 80043d4:	4619      	mov	r1, r3
 80043d6:	481f      	ldr	r0, [pc, #124]	; (8004454 <MX_ADC1_Init+0x1ec>)
 80043d8:	f001 f8a8 	bl	800552c <HAL_ADC_ConfigChannel>
 80043dc:	4603      	mov	r3, r0
 80043de:	2b00      	cmp	r3, #0
 80043e0:	d001      	beq.n	80043e6 <MX_ADC1_Init+0x17e>
  {
    Error_Handler();
 80043e2:	f000 faef 	bl	80049c4 <Error_Handler>
  }

  /** Configure Regular Channel
  */
  sConfig.Rank = ADC_REGULAR_RANK_13;
 80043e6:	230d      	movs	r3, #13
 80043e8:	60bb      	str	r3, [r7, #8]
  if (HAL_ADC_ConfigChannel(&hadc1, &sConfig) != HAL_OK)
 80043ea:	1d3b      	adds	r3, r7, #4
 80043ec:	4619      	mov	r1, r3
 80043ee:	4819      	ldr	r0, [pc, #100]	; (8004454 <MX_ADC1_Init+0x1ec>)
 80043f0:	f001 f89c 	bl	800552c <HAL_ADC_ConfigChannel>
 80043f4:	4603      	mov	r3, r0
 80043f6:	2b00      	cmp	r3, #0
 80043f8:	d001      	beq.n	80043fe <MX_ADC1_Init+0x196>
  {
    Error_Handler();
 80043fa:	f000 fae3 	bl	80049c4 <Error_Handler>
  }

  /** Configure Regular Channel
  */
  sConfig.Channel = ADC_CHANNEL_7;
 80043fe:	2307      	movs	r3, #7
 8004400:	607b      	str	r3, [r7, #4]
  sConfig.Rank = ADC_REGULAR_RANK_14;
 8004402:	230e      	movs	r3, #14
 8004404:	60bb      	str	r3, [r7, #8]
  if (HAL_ADC_ConfigChannel(&hadc1, &sConfig) != HAL_OK)
 8004406:	1d3b      	adds	r3, r7, #4
 8004408:	4619      	mov	r1, r3
 800440a:	4812      	ldr	r0, [pc, #72]	; (8004454 <MX_ADC1_Init+0x1ec>)
 800440c:	f001 f88e 	bl	800552c <HAL_ADC_ConfigChannel>
 8004410:	4603      	mov	r3, r0
 8004412:	2b00      	cmp	r3, #0
 8004414:	d001      	beq.n	800441a <MX_ADC1_Init+0x1b2>
  {
    Error_Handler();
 8004416:	f000 fad5 	bl	80049c4 <Error_Handler>
  }

  /** Configure Regular Channel
  */
  sConfig.Rank = ADC_REGULAR_RANK_15;
 800441a:	230f      	movs	r3, #15
 800441c:	60bb      	str	r3, [r7, #8]
  if (HAL_ADC_ConfigChannel(&hadc1, &sConfig) != HAL_OK)
 800441e:	1d3b      	adds	r3, r7, #4
 8004420:	4619      	mov	r1, r3
 8004422:	480c      	ldr	r0, [pc, #48]	; (8004454 <MX_ADC1_Init+0x1ec>)
 8004424:	f001 f882 	bl	800552c <HAL_ADC_ConfigChannel>
 8004428:	4603      	mov	r3, r0
 800442a:	2b00      	cmp	r3, #0
 800442c:	d001      	beq.n	8004432 <MX_ADC1_Init+0x1ca>
  {
    Error_Handler();
 800442e:	f000 fac9 	bl	80049c4 <Error_Handler>
  }

  /** Configure Regular Channel
  */
  sConfig.Rank = ADC_REGULAR_RANK_16;
 8004432:	2310      	movs	r3, #16
 8004434:	60bb      	str	r3, [r7, #8]
  if (HAL_ADC_ConfigChannel(&hadc1, &sConfig) != HAL_OK)
 8004436:	1d3b      	adds	r3, r7, #4
 8004438:	4619      	mov	r1, r3
 800443a:	4806      	ldr	r0, [pc, #24]	; (8004454 <MX_ADC1_Init+0x1ec>)
 800443c:	f001 f876 	bl	800552c <HAL_ADC_ConfigChannel>
 8004440:	4603      	mov	r3, r0
 8004442:	2b00      	cmp	r3, #0
 8004444:	d001      	beq.n	800444a <MX_ADC1_Init+0x1e2>
  {
    Error_Handler();
 8004446:	f000 fabd 	bl	80049c4 <Error_Handler>
  }
  /* USER CODE BEGIN ADC1_Init 2 */

  /* USER CODE END ADC1_Init 2 */

}
 800444a:	bf00      	nop
 800444c:	3710      	adds	r7, #16
 800444e:	46bd      	mov	sp, r7
 8004450:	bd80      	pop	{r7, pc}
 8004452:	bf00      	nop
 8004454:	2000058c 	.word	0x2000058c
 8004458:	40012400 	.word	0x40012400

0800445c <MX_I2C1_Init>:
  * @brief I2C1 Initialization Function
  * @param None
  * @retval None
  */
static void MX_I2C1_Init(void)
{
 800445c:	b580      	push	{r7, lr}
 800445e:	af00      	add	r7, sp, #0
  /* USER CODE END I2C1_Init 0 */

  /* USER CODE BEGIN I2C1_Init 1 */

  /* USER CODE END I2C1_Init 1 */
  hi2c1.Instance = I2C1;
 8004460:	4b12      	ldr	r3, [pc, #72]	; (80044ac <MX_I2C1_Init+0x50>)
 8004462:	4a13      	ldr	r2, [pc, #76]	; (80044b0 <MX_I2C1_Init+0x54>)
 8004464:	601a      	str	r2, [r3, #0]
  hi2c1.Init.ClockSpeed = 400000;
 8004466:	4b11      	ldr	r3, [pc, #68]	; (80044ac <MX_I2C1_Init+0x50>)
 8004468:	4a12      	ldr	r2, [pc, #72]	; (80044b4 <MX_I2C1_Init+0x58>)
 800446a:	605a      	str	r2, [r3, #4]
  hi2c1.Init.DutyCycle = I2C_DUTYCYCLE_2;
 800446c:	4b0f      	ldr	r3, [pc, #60]	; (80044ac <MX_I2C1_Init+0x50>)
 800446e:	2200      	movs	r2, #0
 8004470:	609a      	str	r2, [r3, #8]
  hi2c1.Init.OwnAddress1 = 0;
 8004472:	4b0e      	ldr	r3, [pc, #56]	; (80044ac <MX_I2C1_Init+0x50>)
 8004474:	2200      	movs	r2, #0
 8004476:	60da      	str	r2, [r3, #12]
  hi2c1.Init.AddressingMode = I2C_ADDRESSINGMODE_7BIT;
 8004478:	4b0c      	ldr	r3, [pc, #48]	; (80044ac <MX_I2C1_Init+0x50>)
 800447a:	f44f 4280 	mov.w	r2, #16384	; 0x4000
 800447e:	611a      	str	r2, [r3, #16]
  hi2c1.Init.DualAddressMode = I2C_DUALADDRESS_DISABLE;
 8004480:	4b0a      	ldr	r3, [pc, #40]	; (80044ac <MX_I2C1_Init+0x50>)
 8004482:	2200      	movs	r2, #0
 8004484:	615a      	str	r2, [r3, #20]
  hi2c1.Init.OwnAddress2 = 0;
 8004486:	4b09      	ldr	r3, [pc, #36]	; (80044ac <MX_I2C1_Init+0x50>)
 8004488:	2200      	movs	r2, #0
 800448a:	619a      	str	r2, [r3, #24]
  hi2c1.Init.GeneralCallMode = I2C_GENERALCALL_DISABLE;
 800448c:	4b07      	ldr	r3, [pc, #28]	; (80044ac <MX_I2C1_Init+0x50>)
 800448e:	2200      	movs	r2, #0
 8004490:	61da      	str	r2, [r3, #28]
  hi2c1.Init.NoStretchMode = I2C_NOSTRETCH_DISABLE;
 8004492:	4b06      	ldr	r3, [pc, #24]	; (80044ac <MX_I2C1_Init+0x50>)
 8004494:	2200      	movs	r2, #0
 8004496:	621a      	str	r2, [r3, #32]
  if (HAL_I2C_Init(&hi2c1) != HAL_OK)
 8004498:	4804      	ldr	r0, [pc, #16]	; (80044ac <MX_I2C1_Init+0x50>)
 800449a:	f002 fa07 	bl	80068ac <HAL_I2C_Init>
 800449e:	4603      	mov	r3, r0
 80044a0:	2b00      	cmp	r3, #0
 80044a2:	d001      	beq.n	80044a8 <MX_I2C1_Init+0x4c>
  {
    Error_Handler();
 80044a4:	f000 fa8e 	bl	80049c4 <Error_Handler>
  }
  /* USER CODE BEGIN I2C1_Init 2 */

  /* USER CODE END I2C1_Init 2 */

}
 80044a8:	bf00      	nop
 80044aa:	bd80      	pop	{r7, pc}
 80044ac:	20000600 	.word	0x20000600
 80044b0:	40005400 	.word	0x40005400
 80044b4:	00061a80 	.word	0x00061a80

080044b8 <MX_TIM1_Init>:
  * @brief TIM1 Initialization Function
  * @param None
  * @retval None
  */
static void MX_TIM1_Init(void)
{
 80044b8:	b580      	push	{r7, lr}
 80044ba:	b086      	sub	sp, #24
 80044bc:	af00      	add	r7, sp, #0

  /* USER CODE BEGIN TIM1_Init 0 */

  /* USER CODE END TIM1_Init 0 */

  TIM_ClockConfigTypeDef sClockSourceConfig = {0};
 80044be:	f107 0308 	add.w	r3, r7, #8
 80044c2:	2200      	movs	r2, #0
 80044c4:	601a      	str	r2, [r3, #0]
 80044c6:	605a      	str	r2, [r3, #4]
 80044c8:	609a      	str	r2, [r3, #8]
 80044ca:	60da      	str	r2, [r3, #12]
  TIM_MasterConfigTypeDef sMasterConfig = {0};
 80044cc:	463b      	mov	r3, r7
 80044ce:	2200      	movs	r2, #0
 80044d0:	601a      	str	r2, [r3, #0]
 80044d2:	605a      	str	r2, [r3, #4]

  /* USER CODE BEGIN TIM1_Init 1 */

  /* USER CODE END TIM1_Init 1 */
  htim1.Instance = TIM1;
 80044d4:	4b1f      	ldr	r3, [pc, #124]	; (8004554 <MX_TIM1_Init+0x9c>)
 80044d6:	4a20      	ldr	r2, [pc, #128]	; (8004558 <MX_TIM1_Init+0xa0>)
 80044d8:	601a      	str	r2, [r3, #0]
  htim1.Init.Prescaler = 799;
 80044da:	4b1e      	ldr	r3, [pc, #120]	; (8004554 <MX_TIM1_Init+0x9c>)
 80044dc:	f240 321f 	movw	r2, #799	; 0x31f
 80044e0:	605a      	str	r2, [r3, #4]
  htim1.Init.CounterMode = TIM_COUNTERMODE_UP;
 80044e2:	4b1c      	ldr	r3, [pc, #112]	; (8004554 <MX_TIM1_Init+0x9c>)
 80044e4:	2200      	movs	r2, #0
 80044e6:	609a      	str	r2, [r3, #8]
  htim1.Init.Period = 499;
 80044e8:	4b1a      	ldr	r3, [pc, #104]	; (8004554 <MX_TIM1_Init+0x9c>)
 80044ea:	f240 12f3 	movw	r2, #499	; 0x1f3
 80044ee:	60da      	str	r2, [r3, #12]
  htim1.Init.ClockDivision = TIM_CLOCKDIVISION_DIV1;
 80044f0:	4b18      	ldr	r3, [pc, #96]	; (8004554 <MX_TIM1_Init+0x9c>)
 80044f2:	2200      	movs	r2, #0
 80044f4:	611a      	str	r2, [r3, #16]
  htim1.Init.RepetitionCounter = 0;
 80044f6:	4b17      	ldr	r3, [pc, #92]	; (8004554 <MX_TIM1_Init+0x9c>)
 80044f8:	2200      	movs	r2, #0
 80044fa:	615a      	str	r2, [r3, #20]
  htim1.Init.AutoReloadPreload = TIM_AUTORELOAD_PRELOAD_DISABLE;
 80044fc:	4b15      	ldr	r3, [pc, #84]	; (8004554 <MX_TIM1_Init+0x9c>)
 80044fe:	2200      	movs	r2, #0
 8004500:	619a      	str	r2, [r3, #24]
  if (HAL_TIM_Base_Init(&htim1) != HAL_OK)
 8004502:	4814      	ldr	r0, [pc, #80]	; (8004554 <MX_TIM1_Init+0x9c>)
 8004504:	f003 fc06 	bl	8007d14 <HAL_TIM_Base_Init>
 8004508:	4603      	mov	r3, r0
 800450a:	2b00      	cmp	r3, #0
 800450c:	d001      	beq.n	8004512 <MX_TIM1_Init+0x5a>
  {
    Error_Handler();
 800450e:	f000 fa59 	bl	80049c4 <Error_Handler>
  }
  sClockSourceConfig.ClockSource = TIM_CLOCKSOURCE_INTERNAL;
 8004512:	f44f 5380 	mov.w	r3, #4096	; 0x1000
 8004516:	60bb      	str	r3, [r7, #8]
  if (HAL_TIM_ConfigClockSource(&htim1, &sClockSourceConfig) != HAL_OK)
 8004518:	f107 0308 	add.w	r3, r7, #8
 800451c:	4619      	mov	r1, r3
 800451e:	480d      	ldr	r0, [pc, #52]	; (8004554 <MX_TIM1_Init+0x9c>)
 8004520:	f003 ffbe 	bl	80084a0 <HAL_TIM_ConfigClockSource>
 8004524:	4603      	mov	r3, r0
 8004526:	2b00      	cmp	r3, #0
 8004528:	d001      	beq.n	800452e <MX_TIM1_Init+0x76>
  {
    Error_Handler();
 800452a:	f000 fa4b 	bl	80049c4 <Error_Handler>
  }
  sMasterConfig.MasterOutputTrigger = TIM_TRGO_RESET;
 800452e:	2300      	movs	r3, #0
 8004530:	603b      	str	r3, [r7, #0]
  sMasterConfig.MasterSlaveMode = TIM_MASTERSLAVEMODE_DISABLE;
 8004532:	2300      	movs	r3, #0
 8004534:	607b      	str	r3, [r7, #4]
  if (HAL_TIMEx_MasterConfigSynchronization(&htim1, &sMasterConfig) != HAL_OK)
 8004536:	463b      	mov	r3, r7
 8004538:	4619      	mov	r1, r3
 800453a:	4806      	ldr	r0, [pc, #24]	; (8004554 <MX_TIM1_Init+0x9c>)
 800453c:	f004 fb3c 	bl	8008bb8 <HAL_TIMEx_MasterConfigSynchronization>
 8004540:	4603      	mov	r3, r0
 8004542:	2b00      	cmp	r3, #0
 8004544:	d001      	beq.n	800454a <MX_TIM1_Init+0x92>
  {
    Error_Handler();
 8004546:	f000 fa3d 	bl	80049c4 <Error_Handler>
  }
  /* USER CODE BEGIN TIM1_Init 2 */

  /* USER CODE END TIM1_Init 2 */

}
 800454a:	bf00      	nop
 800454c:	3718      	adds	r7, #24
 800454e:	46bd      	mov	sp, r7
 8004550:	bd80      	pop	{r7, pc}
 8004552:	bf00      	nop
 8004554:	20000654 	.word	0x20000654
 8004558:	40012c00 	.word	0x40012c00

0800455c <MX_TIM2_Init>:
  * @brief TIM2 Initialization Function
  * @param None
  * @retval None
  */
static void MX_TIM2_Init(void)
{
 800455c:	b580      	push	{r7, lr}
 800455e:	b08e      	sub	sp, #56	; 0x38
 8004560:	af00      	add	r7, sp, #0

  /* USER CODE BEGIN TIM2_Init 0 */

  /* USER CODE END TIM2_Init 0 */

  TIM_ClockConfigTypeDef sClockSourceConfig = {0};
 8004562:	f107 0328 	add.w	r3, r7, #40	; 0x28
 8004566:	2200      	movs	r2, #0
 8004568:	601a      	str	r2, [r3, #0]
 800456a:	605a      	str	r2, [r3, #4]
 800456c:	609a      	str	r2, [r3, #8]
 800456e:	60da      	str	r2, [r3, #12]
  TIM_MasterConfigTypeDef sMasterConfig = {0};
 8004570:	f107 0320 	add.w	r3, r7, #32
 8004574:	2200      	movs	r2, #0
 8004576:	601a      	str	r2, [r3, #0]
 8004578:	605a      	str	r2, [r3, #4]
  TIM_OC_InitTypeDef sConfigOC = {0};
 800457a:	1d3b      	adds	r3, r7, #4
 800457c:	2200      	movs	r2, #0
 800457e:	601a      	str	r2, [r3, #0]
 8004580:	605a      	str	r2, [r3, #4]
 8004582:	609a      	str	r2, [r3, #8]
 8004584:	60da      	str	r2, [r3, #12]
 8004586:	611a      	str	r2, [r3, #16]
 8004588:	615a      	str	r2, [r3, #20]
 800458a:	619a      	str	r2, [r3, #24]

  /* USER CODE BEGIN TIM2_Init 1 */

  /* USER CODE END TIM2_Init 1 */
  htim2.Instance = TIM2;
 800458c:	4b2d      	ldr	r3, [pc, #180]	; (8004644 <MX_TIM2_Init+0xe8>)
 800458e:	f04f 4280 	mov.w	r2, #1073741824	; 0x40000000
 8004592:	601a      	str	r2, [r3, #0]
  htim2.Init.Prescaler = 0;
 8004594:	4b2b      	ldr	r3, [pc, #172]	; (8004644 <MX_TIM2_Init+0xe8>)
 8004596:	2200      	movs	r2, #0
 8004598:	605a      	str	r2, [r3, #4]
  htim2.Init.CounterMode = TIM_COUNTERMODE_UP;
 800459a:	4b2a      	ldr	r3, [pc, #168]	; (8004644 <MX_TIM2_Init+0xe8>)
 800459c:	2200      	movs	r2, #0
 800459e:	609a      	str	r2, [r3, #8]
  htim2.Init.Period = 399;
 80045a0:	4b28      	ldr	r3, [pc, #160]	; (8004644 <MX_TIM2_Init+0xe8>)
 80045a2:	f240 128f 	movw	r2, #399	; 0x18f
 80045a6:	60da      	str	r2, [r3, #12]
  htim2.Init.ClockDivision = TIM_CLOCKDIVISION_DIV1;
 80045a8:	4b26      	ldr	r3, [pc, #152]	; (8004644 <MX_TIM2_Init+0xe8>)
 80045aa:	2200      	movs	r2, #0
 80045ac:	611a      	str	r2, [r3, #16]
  htim2.Init.AutoReloadPreload = TIM_AUTORELOAD_PRELOAD_DISABLE;
 80045ae:	4b25      	ldr	r3, [pc, #148]	; (8004644 <MX_TIM2_Init+0xe8>)
 80045b0:	2200      	movs	r2, #0
 80045b2:	619a      	str	r2, [r3, #24]
  if (HAL_TIM_Base_Init(&htim2) != HAL_OK)
 80045b4:	4823      	ldr	r0, [pc, #140]	; (8004644 <MX_TIM2_Init+0xe8>)
 80045b6:	f003 fbad 	bl	8007d14 <HAL_TIM_Base_Init>
 80045ba:	4603      	mov	r3, r0
 80045bc:	2b00      	cmp	r3, #0
 80045be:	d001      	beq.n	80045c4 <MX_TIM2_Init+0x68>
  {
    Error_Handler();
 80045c0:	f000 fa00 	bl	80049c4 <Error_Handler>
  }
  sClockSourceConfig.ClockSource = TIM_CLOCKSOURCE_INTERNAL;
 80045c4:	f44f 5380 	mov.w	r3, #4096	; 0x1000
 80045c8:	62bb      	str	r3, [r7, #40]	; 0x28
  if (HAL_TIM_ConfigClockSource(&htim2, &sClockSourceConfig) != HAL_OK)
 80045ca:	f107 0328 	add.w	r3, r7, #40	; 0x28
 80045ce:	4619      	mov	r1, r3
 80045d0:	481c      	ldr	r0, [pc, #112]	; (8004644 <MX_TIM2_Init+0xe8>)
 80045d2:	f003 ff65 	bl	80084a0 <HAL_TIM_ConfigClockSource>
 80045d6:	4603      	mov	r3, r0
 80045d8:	2b00      	cmp	r3, #0
 80045da:	d001      	beq.n	80045e0 <MX_TIM2_Init+0x84>
  {
    Error_Handler();
 80045dc:	f000 f9f2 	bl	80049c4 <Error_Handler>
  }
  if (HAL_TIM_PWM_Init(&htim2) != HAL_OK)
 80045e0:	4818      	ldr	r0, [pc, #96]	; (8004644 <MX_TIM2_Init+0xe8>)
 80045e2:	f003 fc39 	bl	8007e58 <HAL_TIM_PWM_Init>
 80045e6:	4603      	mov	r3, r0
 80045e8:	2b00      	cmp	r3, #0
 80045ea:	d001      	beq.n	80045f0 <MX_TIM2_Init+0x94>
  {
    Error_Handler();
 80045ec:	f000 f9ea 	bl	80049c4 <Error_Handler>
  }
  sMasterConfig.MasterOutputTrigger = TIM_TRGO_RESET;
 80045f0:	2300      	movs	r3, #0
 80045f2:	623b      	str	r3, [r7, #32]
  sMasterConfig.MasterSlaveMode = TIM_MASTERSLAVEMODE_DISABLE;
 80045f4:	2300      	movs	r3, #0
 80045f6:	627b      	str	r3, [r7, #36]	; 0x24
  if (HAL_TIMEx_MasterConfigSynchronization(&htim2, &sMasterConfig) != HAL_OK)
 80045f8:	f107 0320 	add.w	r3, r7, #32
 80045fc:	4619      	mov	r1, r3
 80045fe:	4811      	ldr	r0, [pc, #68]	; (8004644 <MX_TIM2_Init+0xe8>)
 8004600:	f004 fada 	bl	8008bb8 <HAL_TIMEx_MasterConfigSynchronization>
 8004604:	4603      	mov	r3, r0
 8004606:	2b00      	cmp	r3, #0
 8004608:	d001      	beq.n	800460e <MX_TIM2_Init+0xb2>
  {
    Error_Handler();
 800460a:	f000 f9db 	bl	80049c4 <Error_Handler>
  }
  sConfigOC.OCMode = TIM_OCMODE_PWM1;
 800460e:	2360      	movs	r3, #96	; 0x60
 8004610:	607b      	str	r3, [r7, #4]
  sConfigOC.Pulse = 0;
 8004612:	2300      	movs	r3, #0
 8004614:	60bb      	str	r3, [r7, #8]
  sConfigOC.OCPolarity = TIM_OCPOLARITY_HIGH;
 8004616:	2300      	movs	r3, #0
 8004618:	60fb      	str	r3, [r7, #12]
  sConfigOC.OCFastMode = TIM_OCFAST_DISABLE;
 800461a:	2300      	movs	r3, #0
 800461c:	617b      	str	r3, [r7, #20]
  if (HAL_TIM_PWM_ConfigChannel(&htim2, &sConfigOC, TIM_CHANNEL_4) != HAL_OK)
 800461e:	1d3b      	adds	r3, r7, #4
 8004620:	220c      	movs	r2, #12
 8004622:	4619      	mov	r1, r3
 8004624:	4807      	ldr	r0, [pc, #28]	; (8004644 <MX_TIM2_Init+0xe8>)
 8004626:	f003 fe7d 	bl	8008324 <HAL_TIM_PWM_ConfigChannel>
 800462a:	4603      	mov	r3, r0
 800462c:	2b00      	cmp	r3, #0
 800462e:	d001      	beq.n	8004634 <MX_TIM2_Init+0xd8>
  {
    Error_Handler();
 8004630:	f000 f9c8 	bl	80049c4 <Error_Handler>
  }
  /* USER CODE BEGIN TIM2_Init 2 */

  /* USER CODE END TIM2_Init 2 */
  HAL_TIM_MspPostInit(&htim2);
 8004634:	4803      	ldr	r0, [pc, #12]	; (8004644 <MX_TIM2_Init+0xe8>)
 8004636:	f000 fb35 	bl	8004ca4 <HAL_TIM_MspPostInit>

}
 800463a:	bf00      	nop
 800463c:	3738      	adds	r7, #56	; 0x38
 800463e:	46bd      	mov	sp, r7
 8004640:	bd80      	pop	{r7, pc}
 8004642:	bf00      	nop
 8004644:	2000069c 	.word	0x2000069c

08004648 <MX_TIM3_Init>:
  * @brief TIM3 Initialization Function
  * @param None
  * @retval None
  */
static void MX_TIM3_Init(void)
{
 8004648:	b580      	push	{r7, lr}
 800464a:	b086      	sub	sp, #24
 800464c:	af00      	add	r7, sp, #0

  /* USER CODE BEGIN TIM3_Init 0 */

  /* USER CODE END TIM3_Init 0 */

  TIM_ClockConfigTypeDef sClockSourceConfig = {0};
 800464e:	f107 0308 	add.w	r3, r7, #8
 8004652:	2200      	movs	r2, #0
 8004654:	601a      	str	r2, [r3, #0]
 8004656:	605a      	str	r2, [r3, #4]
 8004658:	609a      	str	r2, [r3, #8]
 800465a:	60da      	str	r2, [r3, #12]
  TIM_MasterConfigTypeDef sMasterConfig = {0};
 800465c:	463b      	mov	r3, r7
 800465e:	2200      	movs	r2, #0
 8004660:	601a      	str	r2, [r3, #0]
 8004662:	605a      	str	r2, [r3, #4]

  /* USER CODE BEGIN TIM3_Init 1 */

  /* USER CODE END TIM3_Init 1 */
  htim3.Instance = TIM3;
 8004664:	4b1d      	ldr	r3, [pc, #116]	; (80046dc <MX_TIM3_Init+0x94>)
 8004666:	4a1e      	ldr	r2, [pc, #120]	; (80046e0 <MX_TIM3_Init+0x98>)
 8004668:	601a      	str	r2, [r3, #0]
  htim3.Init.Prescaler = 799;
 800466a:	4b1c      	ldr	r3, [pc, #112]	; (80046dc <MX_TIM3_Init+0x94>)
 800466c:	f240 321f 	movw	r2, #799	; 0x31f
 8004670:	605a      	str	r2, [r3, #4]
  htim3.Init.CounterMode = TIM_COUNTERMODE_UP;
 8004672:	4b1a      	ldr	r3, [pc, #104]	; (80046dc <MX_TIM3_Init+0x94>)
 8004674:	2200      	movs	r2, #0
 8004676:	609a      	str	r2, [r3, #8]
  htim3.Init.Period = 499;
 8004678:	4b18      	ldr	r3, [pc, #96]	; (80046dc <MX_TIM3_Init+0x94>)
 800467a:	f240 12f3 	movw	r2, #499	; 0x1f3
 800467e:	60da      	str	r2, [r3, #12]
  htim3.Init.ClockDivision = TIM_CLOCKDIVISION_DIV1;
 8004680:	4b16      	ldr	r3, [pc, #88]	; (80046dc <MX_TIM3_Init+0x94>)
 8004682:	2200      	movs	r2, #0
 8004684:	611a      	str	r2, [r3, #16]
  htim3.Init.AutoReloadPreload = TIM_AUTORELOAD_PRELOAD_DISABLE;
 8004686:	4b15      	ldr	r3, [pc, #84]	; (80046dc <MX_TIM3_Init+0x94>)
 8004688:	2200      	movs	r2, #0
 800468a:	619a      	str	r2, [r3, #24]
  if (HAL_TIM_Base_Init(&htim3) != HAL_OK)
 800468c:	4813      	ldr	r0, [pc, #76]	; (80046dc <MX_TIM3_Init+0x94>)
 800468e:	f003 fb41 	bl	8007d14 <HAL_TIM_Base_Init>
 8004692:	4603      	mov	r3, r0
 8004694:	2b00      	cmp	r3, #0
 8004696:	d001      	beq.n	800469c <MX_TIM3_Init+0x54>
  {
    Error_Handler();
 8004698:	f000 f994 	bl	80049c4 <Error_Handler>
  }
  sClockSourceConfig.ClockSource = TIM_CLOCKSOURCE_INTERNAL;
 800469c:	f44f 5380 	mov.w	r3, #4096	; 0x1000
 80046a0:	60bb      	str	r3, [r7, #8]
  if (HAL_TIM_ConfigClockSource(&htim3, &sClockSourceConfig) != HAL_OK)
 80046a2:	f107 0308 	add.w	r3, r7, #8
 80046a6:	4619      	mov	r1, r3
 80046a8:	480c      	ldr	r0, [pc, #48]	; (80046dc <MX_TIM3_Init+0x94>)
 80046aa:	f003 fef9 	bl	80084a0 <HAL_TIM_ConfigClockSource>
 80046ae:	4603      	mov	r3, r0
 80046b0:	2b00      	cmp	r3, #0
 80046b2:	d001      	beq.n	80046b8 <MX_TIM3_Init+0x70>
  {
    Error_Handler();
 80046b4:	f000 f986 	bl	80049c4 <Error_Handler>
  }
  sMasterConfig.MasterOutputTrigger = TIM_TRGO_RESET;
 80046b8:	2300      	movs	r3, #0
 80046ba:	603b      	str	r3, [r7, #0]
  sMasterConfig.MasterSlaveMode = TIM_MASTERSLAVEMODE_DISABLE;
 80046bc:	2300      	movs	r3, #0
 80046be:	607b      	str	r3, [r7, #4]
  if (HAL_TIMEx_MasterConfigSynchronization(&htim3, &sMasterConfig) != HAL_OK)
 80046c0:	463b      	mov	r3, r7
 80046c2:	4619      	mov	r1, r3
 80046c4:	4805      	ldr	r0, [pc, #20]	; (80046dc <MX_TIM3_Init+0x94>)
 80046c6:	f004 fa77 	bl	8008bb8 <HAL_TIMEx_MasterConfigSynchronization>
 80046ca:	4603      	mov	r3, r0
 80046cc:	2b00      	cmp	r3, #0
 80046ce:	d001      	beq.n	80046d4 <MX_TIM3_Init+0x8c>
  {
    Error_Handler();
 80046d0:	f000 f978 	bl	80049c4 <Error_Handler>
  }
  /* USER CODE BEGIN TIM3_Init 2 */

  /* USER CODE END TIM3_Init 2 */

}
 80046d4:	bf00      	nop
 80046d6:	3718      	adds	r7, #24
 80046d8:	46bd      	mov	sp, r7
 80046da:	bd80      	pop	{r7, pc}
 80046dc:	200006e4 	.word	0x200006e4
 80046e0:	40000400 	.word	0x40000400

080046e4 <MX_TIM4_Init>:
  * @brief TIM4 Initialization Function
  * @param None
  * @retval None
  */
static void MX_TIM4_Init(void)
{
 80046e4:	b580      	push	{r7, lr}
 80046e6:	b086      	sub	sp, #24
 80046e8:	af00      	add	r7, sp, #0

  /* USER CODE BEGIN TIM4_Init 0 */

  /* USER CODE END TIM4_Init 0 */

  TIM_ClockConfigTypeDef sClockSourceConfig = {0};
 80046ea:	f107 0308 	add.w	r3, r7, #8
 80046ee:	2200      	movs	r2, #0
 80046f0:	601a      	str	r2, [r3, #0]
 80046f2:	605a      	str	r2, [r3, #4]
 80046f4:	609a      	str	r2, [r3, #8]
 80046f6:	60da      	str	r2, [r3, #12]
  TIM_MasterConfigTypeDef sMasterConfig = {0};
 80046f8:	463b      	mov	r3, r7
 80046fa:	2200      	movs	r2, #0
 80046fc:	601a      	str	r2, [r3, #0]
 80046fe:	605a      	str	r2, [r3, #4]

  /* USER CODE BEGIN TIM4_Init 1 */

  /* USER CODE END TIM4_Init 1 */
  htim4.Instance = TIM4;
 8004700:	4b1c      	ldr	r3, [pc, #112]	; (8004774 <MX_TIM4_Init+0x90>)
 8004702:	4a1d      	ldr	r2, [pc, #116]	; (8004778 <MX_TIM4_Init+0x94>)
 8004704:	601a      	str	r2, [r3, #0]
  htim4.Init.Prescaler = 79;
 8004706:	4b1b      	ldr	r3, [pc, #108]	; (8004774 <MX_TIM4_Init+0x90>)
 8004708:	224f      	movs	r2, #79	; 0x4f
 800470a:	605a      	str	r2, [r3, #4]
  htim4.Init.CounterMode = TIM_COUNTERMODE_UP;
 800470c:	4b19      	ldr	r3, [pc, #100]	; (8004774 <MX_TIM4_Init+0x90>)
 800470e:	2200      	movs	r2, #0
 8004710:	609a      	str	r2, [r3, #8]
  htim4.Init.Period = 9;
 8004712:	4b18      	ldr	r3, [pc, #96]	; (8004774 <MX_TIM4_Init+0x90>)
 8004714:	2209      	movs	r2, #9
 8004716:	60da      	str	r2, [r3, #12]
  htim4.Init.ClockDivision = TIM_CLOCKDIVISION_DIV1;
 8004718:	4b16      	ldr	r3, [pc, #88]	; (8004774 <MX_TIM4_Init+0x90>)
 800471a:	2200      	movs	r2, #0
 800471c:	611a      	str	r2, [r3, #16]
  htim4.Init.AutoReloadPreload = TIM_AUTORELOAD_PRELOAD_DISABLE;
 800471e:	4b15      	ldr	r3, [pc, #84]	; (8004774 <MX_TIM4_Init+0x90>)
 8004720:	2200      	movs	r2, #0
 8004722:	619a      	str	r2, [r3, #24]
  if (HAL_TIM_Base_Init(&htim4) != HAL_OK)
 8004724:	4813      	ldr	r0, [pc, #76]	; (8004774 <MX_TIM4_Init+0x90>)
 8004726:	f003 faf5 	bl	8007d14 <HAL_TIM_Base_Init>
 800472a:	4603      	mov	r3, r0
 800472c:	2b00      	cmp	r3, #0
 800472e:	d001      	beq.n	8004734 <MX_TIM4_Init+0x50>
  {
    Error_Handler();
 8004730:	f000 f948 	bl	80049c4 <Error_Handler>
  }
  sClockSourceConfig.ClockSource = TIM_CLOCKSOURCE_INTERNAL;
 8004734:	f44f 5380 	mov.w	r3, #4096	; 0x1000
 8004738:	60bb      	str	r3, [r7, #8]
  if (HAL_TIM_ConfigClockSource(&htim4, &sClockSourceConfig) != HAL_OK)
 800473a:	f107 0308 	add.w	r3, r7, #8
 800473e:	4619      	mov	r1, r3
 8004740:	480c      	ldr	r0, [pc, #48]	; (8004774 <MX_TIM4_Init+0x90>)
 8004742:	f003 fead 	bl	80084a0 <HAL_TIM_ConfigClockSource>
 8004746:	4603      	mov	r3, r0
 8004748:	2b00      	cmp	r3, #0
 800474a:	d001      	beq.n	8004750 <MX_TIM4_Init+0x6c>
  {
    Error_Handler();
 800474c:	f000 f93a 	bl	80049c4 <Error_Handler>
  }
  sMasterConfig.MasterOutputTrigger = TIM_TRGO_RESET;
 8004750:	2300      	movs	r3, #0
 8004752:	603b      	str	r3, [r7, #0]
  sMasterConfig.MasterSlaveMode = TIM_MASTERSLAVEMODE_DISABLE;
 8004754:	2300      	movs	r3, #0
 8004756:	607b      	str	r3, [r7, #4]
  if (HAL_TIMEx_MasterConfigSynchronization(&htim4, &sMasterConfig) != HAL_OK)
 8004758:	463b      	mov	r3, r7
 800475a:	4619      	mov	r1, r3
 800475c:	4805      	ldr	r0, [pc, #20]	; (8004774 <MX_TIM4_Init+0x90>)
 800475e:	f004 fa2b 	bl	8008bb8 <HAL_TIMEx_MasterConfigSynchronization>
 8004762:	4603      	mov	r3, r0
 8004764:	2b00      	cmp	r3, #0
 8004766:	d001      	beq.n	800476c <MX_TIM4_Init+0x88>
  {
    Error_Handler();
 8004768:	f000 f92c 	bl	80049c4 <Error_Handler>
  }
  /* USER CODE BEGIN TIM4_Init 2 */

  /* USER CODE END TIM4_Init 2 */

}
 800476c:	bf00      	nop
 800476e:	3718      	adds	r7, #24
 8004770:	46bd      	mov	sp, r7
 8004772:	bd80      	pop	{r7, pc}
 8004774:	2000072c 	.word	0x2000072c
 8004778:	40000800 	.word	0x40000800

0800477c <MX_DMA_Init>:

/**
  * Enable DMA controller clock
  */
static void MX_DMA_Init(void)
{
 800477c:	b580      	push	{r7, lr}
 800477e:	b082      	sub	sp, #8
 8004780:	af00      	add	r7, sp, #0

  /* DMA controller clock enable */
  __HAL_RCC_DMA1_CLK_ENABLE();
 8004782:	4b0c      	ldr	r3, [pc, #48]	; (80047b4 <MX_DMA_Init+0x38>)
 8004784:	695b      	ldr	r3, [r3, #20]
 8004786:	4a0b      	ldr	r2, [pc, #44]	; (80047b4 <MX_DMA_Init+0x38>)
 8004788:	f043 0301 	orr.w	r3, r3, #1
 800478c:	6153      	str	r3, [r2, #20]
 800478e:	4b09      	ldr	r3, [pc, #36]	; (80047b4 <MX_DMA_Init+0x38>)
 8004790:	695b      	ldr	r3, [r3, #20]
 8004792:	f003 0301 	and.w	r3, r3, #1
 8004796:	607b      	str	r3, [r7, #4]
 8004798:	687b      	ldr	r3, [r7, #4]

  /* DMA interrupt init */
  /* DMA1_Channel1_IRQn interrupt configuration */
  HAL_NVIC_SetPriority(DMA1_Channel1_IRQn, 0, 0);
 800479a:	2200      	movs	r2, #0
 800479c:	2100      	movs	r1, #0
 800479e:	200b      	movs	r0, #11
 80047a0:	f001 f99d 	bl	8005ade <HAL_NVIC_SetPriority>
  HAL_NVIC_EnableIRQ(DMA1_Channel1_IRQn);
 80047a4:	200b      	movs	r0, #11
 80047a6:	f001 f9b6 	bl	8005b16 <HAL_NVIC_EnableIRQ>

}
 80047aa:	bf00      	nop
 80047ac:	3708      	adds	r7, #8
 80047ae:	46bd      	mov	sp, r7
 80047b0:	bd80      	pop	{r7, pc}
 80047b2:	bf00      	nop
 80047b4:	40021000 	.word	0x40021000

080047b8 <MX_GPIO_Init>:
  * @brief GPIO Initialization Function
  * @param None
  * @retval None
  */
static void MX_GPIO_Init(void)
{
 80047b8:	b580      	push	{r7, lr}
 80047ba:	b088      	sub	sp, #32
 80047bc:	af00      	add	r7, sp, #0
  GPIO_InitTypeDef GPIO_InitStruct = {0};
 80047be:	f107 0310 	add.w	r3, r7, #16
 80047c2:	2200      	movs	r2, #0
 80047c4:	601a      	str	r2, [r3, #0]
 80047c6:	605a      	str	r2, [r3, #4]
 80047c8:	609a      	str	r2, [r3, #8]
 80047ca:	60da      	str	r2, [r3, #12]
/* USER CODE BEGIN MX_GPIO_Init_1 */
/* USER CODE END MX_GPIO_Init_1 */

  /* GPIO Ports Clock Enable */
  __HAL_RCC_GPIOC_CLK_ENABLE();
 80047cc:	4b76      	ldr	r3, [pc, #472]	; (80049a8 <MX_GPIO_Init+0x1f0>)
 80047ce:	699b      	ldr	r3, [r3, #24]
 80047d0:	4a75      	ldr	r2, [pc, #468]	; (80049a8 <MX_GPIO_Init+0x1f0>)
 80047d2:	f043 0310 	orr.w	r3, r3, #16
 80047d6:	6193      	str	r3, [r2, #24]
 80047d8:	4b73      	ldr	r3, [pc, #460]	; (80049a8 <MX_GPIO_Init+0x1f0>)
 80047da:	699b      	ldr	r3, [r3, #24]
 80047dc:	f003 0310 	and.w	r3, r3, #16
 80047e0:	60fb      	str	r3, [r7, #12]
 80047e2:	68fb      	ldr	r3, [r7, #12]
  __HAL_RCC_GPIOD_CLK_ENABLE();
 80047e4:	4b70      	ldr	r3, [pc, #448]	; (80049a8 <MX_GPIO_Init+0x1f0>)
 80047e6:	699b      	ldr	r3, [r3, #24]
 80047e8:	4a6f      	ldr	r2, [pc, #444]	; (80049a8 <MX_GPIO_Init+0x1f0>)
 80047ea:	f043 0320 	orr.w	r3, r3, #32
 80047ee:	6193      	str	r3, [r2, #24]
 80047f0:	4b6d      	ldr	r3, [pc, #436]	; (80049a8 <MX_GPIO_Init+0x1f0>)
 80047f2:	699b      	ldr	r3, [r3, #24]
 80047f4:	f003 0320 	and.w	r3, r3, #32
 80047f8:	60bb      	str	r3, [r7, #8]
 80047fa:	68bb      	ldr	r3, [r7, #8]
  __HAL_RCC_GPIOA_CLK_ENABLE();
 80047fc:	4b6a      	ldr	r3, [pc, #424]	; (80049a8 <MX_GPIO_Init+0x1f0>)
 80047fe:	699b      	ldr	r3, [r3, #24]
 8004800:	4a69      	ldr	r2, [pc, #420]	; (80049a8 <MX_GPIO_Init+0x1f0>)
 8004802:	f043 0304 	orr.w	r3, r3, #4
 8004806:	6193      	str	r3, [r2, #24]
 8004808:	4b67      	ldr	r3, [pc, #412]	; (80049a8 <MX_GPIO_Init+0x1f0>)
 800480a:	699b      	ldr	r3, [r3, #24]
 800480c:	f003 0304 	and.w	r3, r3, #4
 8004810:	607b      	str	r3, [r7, #4]
 8004812:	687b      	ldr	r3, [r7, #4]
  __HAL_RCC_GPIOB_CLK_ENABLE();
 8004814:	4b64      	ldr	r3, [pc, #400]	; (80049a8 <MX_GPIO_Init+0x1f0>)
 8004816:	699b      	ldr	r3, [r3, #24]
 8004818:	4a63      	ldr	r2, [pc, #396]	; (80049a8 <MX_GPIO_Init+0x1f0>)
 800481a:	f043 0308 	orr.w	r3, r3, #8
 800481e:	6193      	str	r3, [r2, #24]
 8004820:	4b61      	ldr	r3, [pc, #388]	; (80049a8 <MX_GPIO_Init+0x1f0>)
 8004822:	699b      	ldr	r3, [r3, #24]
 8004824:	f003 0308 	and.w	r3, r3, #8
 8004828:	603b      	str	r3, [r7, #0]
 800482a:	683b      	ldr	r3, [r7, #0]

  /*Configure GPIO pin Output Level */
  HAL_GPIO_WritePin(GPIOC, GPIO_PIN_15, GPIO_PIN_RESET);
 800482c:	2200      	movs	r2, #0
 800482e:	f44f 4100 	mov.w	r1, #32768	; 0x8000
 8004832:	485e      	ldr	r0, [pc, #376]	; (80049ac <MX_GPIO_Init+0x1f4>)
 8004834:	f002 f809 	bl	800684a <HAL_GPIO_WritePin>

  /*Configure GPIO pin Output Level */
  HAL_GPIO_WritePin(GPIOB, GPIO_PIN_0|GPIO_PIN_10|GPIO_PIN_11|GPIO_PIN_9, GPIO_PIN_RESET);
 8004838:	2200      	movs	r2, #0
 800483a:	f640 6101 	movw	r1, #3585	; 0xe01
 800483e:	485c      	ldr	r0, [pc, #368]	; (80049b0 <MX_GPIO_Init+0x1f8>)
 8004840:	f002 f803 	bl	800684a <HAL_GPIO_WritePin>

  /*Configure GPIO pins : PC13 PC14 */
  GPIO_InitStruct.Pin = GPIO_PIN_13|GPIO_PIN_14;
 8004844:	f44f 43c0 	mov.w	r3, #24576	; 0x6000
 8004848:	613b      	str	r3, [r7, #16]
  GPIO_InitStruct.Mode = GPIO_MODE_INPUT;
 800484a:	2300      	movs	r3, #0
 800484c:	617b      	str	r3, [r7, #20]
  GPIO_InitStruct.Pull = GPIO_NOPULL;
 800484e:	2300      	movs	r3, #0
 8004850:	61bb      	str	r3, [r7, #24]
  HAL_GPIO_Init(GPIOC, &GPIO_InitStruct);
 8004852:	f107 0310 	add.w	r3, r7, #16
 8004856:	4619      	mov	r1, r3
 8004858:	4854      	ldr	r0, [pc, #336]	; (80049ac <MX_GPIO_Init+0x1f4>)
 800485a:	f001 fe5b 	bl	8006514 <HAL_GPIO_Init>

  /*Configure GPIO pin : PC15 */
  GPIO_InitStruct.Pin = GPIO_PIN_15;
 800485e:	f44f 4300 	mov.w	r3, #32768	; 0x8000
 8004862:	613b      	str	r3, [r7, #16]
  GPIO_InitStruct.Mode = GPIO_MODE_OUTPUT_PP;
 8004864:	2301      	movs	r3, #1
 8004866:	617b      	str	r3, [r7, #20]
  GPIO_InitStruct.Pull = GPIO_NOPULL;
 8004868:	2300      	movs	r3, #0
 800486a:	61bb      	str	r3, [r7, #24]
  GPIO_InitStruct.Speed = GPIO_SPEED_FREQ_LOW;
 800486c:	2302      	movs	r3, #2
 800486e:	61fb      	str	r3, [r7, #28]
  HAL_GPIO_Init(GPIOC, &GPIO_InitStruct);
 8004870:	f107 0310 	add.w	r3, r7, #16
 8004874:	4619      	mov	r1, r3
 8004876:	484d      	ldr	r0, [pc, #308]	; (80049ac <MX_GPIO_Init+0x1f4>)
 8004878:	f001 fe4c 	bl	8006514 <HAL_GPIO_Init>

  /*Configure GPIO pins : PA1 PA6 PA7 */
  GPIO_InitStruct.Pin = GPIO_PIN_1|GPIO_PIN_6|GPIO_PIN_7;
 800487c:	23c2      	movs	r3, #194	; 0xc2
 800487e:	613b      	str	r3, [r7, #16]
  GPIO_InitStruct.Mode = GPIO_MODE_ANALOG;
 8004880:	2303      	movs	r3, #3
 8004882:	617b      	str	r3, [r7, #20]
  HAL_GPIO_Init(GPIOA, &GPIO_InitStruct);
 8004884:	f107 0310 	add.w	r3, r7, #16
 8004888:	4619      	mov	r1, r3
 800488a:	484a      	ldr	r0, [pc, #296]	; (80049b4 <MX_GPIO_Init+0x1fc>)
 800488c:	f001 fe42 	bl	8006514 <HAL_GPIO_Init>

  /*Configure GPIO pin : PA2 */
  GPIO_InitStruct.Pin = GPIO_PIN_2;
 8004890:	2304      	movs	r3, #4
 8004892:	613b      	str	r3, [r7, #16]
  GPIO_InitStruct.Mode = GPIO_MODE_IT_RISING_FALLING;
 8004894:	4b48      	ldr	r3, [pc, #288]	; (80049b8 <MX_GPIO_Init+0x200>)
 8004896:	617b      	str	r3, [r7, #20]
  GPIO_InitStruct.Pull = GPIO_NOPULL;
 8004898:	2300      	movs	r3, #0
 800489a:	61bb      	str	r3, [r7, #24]
  HAL_GPIO_Init(GPIOA, &GPIO_InitStruct);
 800489c:	f107 0310 	add.w	r3, r7, #16
 80048a0:	4619      	mov	r1, r3
 80048a2:	4844      	ldr	r0, [pc, #272]	; (80049b4 <MX_GPIO_Init+0x1fc>)
 80048a4:	f001 fe36 	bl	8006514 <HAL_GPIO_Init>

  /*Configure GPIO pins : PA4 PA5 PA8 PA9
                           PA10 PA12 */
  GPIO_InitStruct.Pin = GPIO_PIN_4|GPIO_PIN_5|GPIO_PIN_8|GPIO_PIN_9
 80048a8:	f241 7330 	movw	r3, #5936	; 0x1730
 80048ac:	613b      	str	r3, [r7, #16]
                          |GPIO_PIN_10|GPIO_PIN_12;
  GPIO_InitStruct.Mode = GPIO_MODE_INPUT;
 80048ae:	2300      	movs	r3, #0
 80048b0:	617b      	str	r3, [r7, #20]
  GPIO_InitStruct.Pull = GPIO_NOPULL;
 80048b2:	2300      	movs	r3, #0
 80048b4:	61bb      	str	r3, [r7, #24]
  HAL_GPIO_Init(GPIOA, &GPIO_InitStruct);
 80048b6:	f107 0310 	add.w	r3, r7, #16
 80048ba:	4619      	mov	r1, r3
 80048bc:	483d      	ldr	r0, [pc, #244]	; (80049b4 <MX_GPIO_Init+0x1fc>)
 80048be:	f001 fe29 	bl	8006514 <HAL_GPIO_Init>

  /*Configure GPIO pins : PB0 PB10 PB11 PB9 */
  GPIO_InitStruct.Pin = GPIO_PIN_0|GPIO_PIN_10|GPIO_PIN_11|GPIO_PIN_9;
 80048c2:	f640 6301 	movw	r3, #3585	; 0xe01
 80048c6:	613b      	str	r3, [r7, #16]
  GPIO_InitStruct.Mode = GPIO_MODE_OUTPUT_PP;
 80048c8:	2301      	movs	r3, #1
 80048ca:	617b      	str	r3, [r7, #20]
  GPIO_InitStruct.Pull = GPIO_NOPULL;
 80048cc:	2300      	movs	r3, #0
 80048ce:	61bb      	str	r3, [r7, #24]
  GPIO_InitStruct.Speed = GPIO_SPEED_FREQ_LOW;
 80048d0:	2302      	movs	r3, #2
 80048d2:	61fb      	str	r3, [r7, #28]
  HAL_GPIO_Init(GPIOB, &GPIO_InitStruct);
 80048d4:	f107 0310 	add.w	r3, r7, #16
 80048d8:	4619      	mov	r1, r3
 80048da:	4835      	ldr	r0, [pc, #212]	; (80049b0 <MX_GPIO_Init+0x1f8>)
 80048dc:	f001 fe1a 	bl	8006514 <HAL_GPIO_Init>

  /*Configure GPIO pin : PB1 */
  GPIO_InitStruct.Pin = GPIO_PIN_1;
 80048e0:	2302      	movs	r3, #2
 80048e2:	613b      	str	r3, [r7, #16]
  GPIO_InitStruct.Mode = GPIO_MODE_IT_RISING_FALLING;
 80048e4:	4b34      	ldr	r3, [pc, #208]	; (80049b8 <MX_GPIO_Init+0x200>)
 80048e6:	617b      	str	r3, [r7, #20]
  GPIO_InitStruct.Pull = GPIO_NOPULL;
 80048e8:	2300      	movs	r3, #0
 80048ea:	61bb      	str	r3, [r7, #24]
  HAL_GPIO_Init(GPIOB, &GPIO_InitStruct);
 80048ec:	f107 0310 	add.w	r3, r7, #16
 80048f0:	4619      	mov	r1, r3
 80048f2:	482f      	ldr	r0, [pc, #188]	; (80049b0 <MX_GPIO_Init+0x1f8>)
 80048f4:	f001 fe0e 	bl	8006514 <HAL_GPIO_Init>

  /*Configure GPIO pins : PB12 PB14 PB3 */
  GPIO_InitStruct.Pin = GPIO_PIN_12|GPIO_PIN_14|GPIO_PIN_3;
 80048f8:	f245 0308 	movw	r3, #20488	; 0x5008
 80048fc:	613b      	str	r3, [r7, #16]
  GPIO_InitStruct.Mode = GPIO_MODE_IT_FALLING;
 80048fe:	4b2f      	ldr	r3, [pc, #188]	; (80049bc <MX_GPIO_Init+0x204>)
 8004900:	617b      	str	r3, [r7, #20]
  GPIO_InitStruct.Pull = GPIO_NOPULL;
 8004902:	2300      	movs	r3, #0
 8004904:	61bb      	str	r3, [r7, #24]
  HAL_GPIO_Init(GPIOB, &GPIO_InitStruct);
 8004906:	f107 0310 	add.w	r3, r7, #16
 800490a:	4619      	mov	r1, r3
 800490c:	4828      	ldr	r0, [pc, #160]	; (80049b0 <MX_GPIO_Init+0x1f8>)
 800490e:	f001 fe01 	bl	8006514 <HAL_GPIO_Init>

  /*Configure GPIO pins : PB13 PB15 PB4 PB5
                           PB8 */
  GPIO_InitStruct.Pin = GPIO_PIN_13|GPIO_PIN_15|GPIO_PIN_4|GPIO_PIN_5
 8004912:	f24a 1330 	movw	r3, #41264	; 0xa130
 8004916:	613b      	str	r3, [r7, #16]
                          |GPIO_PIN_8;
  GPIO_InitStruct.Mode = GPIO_MODE_INPUT;
 8004918:	2300      	movs	r3, #0
 800491a:	617b      	str	r3, [r7, #20]
  GPIO_InitStruct.Pull = GPIO_NOPULL;
 800491c:	2300      	movs	r3, #0
 800491e:	61bb      	str	r3, [r7, #24]
  HAL_GPIO_Init(GPIOB, &GPIO_InitStruct);
 8004920:	f107 0310 	add.w	r3, r7, #16
 8004924:	4619      	mov	r1, r3
 8004926:	4822      	ldr	r0, [pc, #136]	; (80049b0 <MX_GPIO_Init+0x1f8>)
 8004928:	f001 fdf4 	bl	8006514 <HAL_GPIO_Init>

  /*Configure GPIO pin : PA11 */
  GPIO_InitStruct.Pin = GPIO_PIN_11;
 800492c:	f44f 6300 	mov.w	r3, #2048	; 0x800
 8004930:	613b      	str	r3, [r7, #16]
  GPIO_InitStruct.Mode = GPIO_MODE_IT_RISING;
 8004932:	4b23      	ldr	r3, [pc, #140]	; (80049c0 <MX_GPIO_Init+0x208>)
 8004934:	617b      	str	r3, [r7, #20]
  GPIO_InitStruct.Pull = GPIO_NOPULL;
 8004936:	2300      	movs	r3, #0
 8004938:	61bb      	str	r3, [r7, #24]
  HAL_GPIO_Init(GPIOA, &GPIO_InitStruct);
 800493a:	f107 0310 	add.w	r3, r7, #16
 800493e:	4619      	mov	r1, r3
 8004940:	481c      	ldr	r0, [pc, #112]	; (80049b4 <MX_GPIO_Init+0x1fc>)
 8004942:	f001 fde7 	bl	8006514 <HAL_GPIO_Init>

  /*Configure GPIO pin : PA15 */
  GPIO_InitStruct.Pin = GPIO_PIN_15;
 8004946:	f44f 4300 	mov.w	r3, #32768	; 0x8000
 800494a:	613b      	str	r3, [r7, #16]
  GPIO_InitStruct.Mode = GPIO_MODE_IT_FALLING;
 800494c:	4b1b      	ldr	r3, [pc, #108]	; (80049bc <MX_GPIO_Init+0x204>)
 800494e:	617b      	str	r3, [r7, #20]
  GPIO_InitStruct.Pull = GPIO_NOPULL;
 8004950:	2300      	movs	r3, #0
 8004952:	61bb      	str	r3, [r7, #24]
  HAL_GPIO_Init(GPIOA, &GPIO_InitStruct);
 8004954:	f107 0310 	add.w	r3, r7, #16
 8004958:	4619      	mov	r1, r3
 800495a:	4816      	ldr	r0, [pc, #88]	; (80049b4 <MX_GPIO_Init+0x1fc>)
 800495c:	f001 fdda 	bl	8006514 <HAL_GPIO_Init>

  /* EXTI interrupt init*/
  HAL_NVIC_SetPriority(EXTI1_IRQn, 3, 0);
 8004960:	2200      	movs	r2, #0
 8004962:	2103      	movs	r1, #3
 8004964:	2007      	movs	r0, #7
 8004966:	f001 f8ba 	bl	8005ade <HAL_NVIC_SetPriority>
  HAL_NVIC_EnableIRQ(EXTI1_IRQn);
 800496a:	2007      	movs	r0, #7
 800496c:	f001 f8d3 	bl	8005b16 <HAL_NVIC_EnableIRQ>

  HAL_NVIC_SetPriority(EXTI2_IRQn, 3, 0);
 8004970:	2200      	movs	r2, #0
 8004972:	2103      	movs	r1, #3
 8004974:	2008      	movs	r0, #8
 8004976:	f001 f8b2 	bl	8005ade <HAL_NVIC_SetPriority>
  HAL_NVIC_EnableIRQ(EXTI2_IRQn);
 800497a:	2008      	movs	r0, #8
 800497c:	f001 f8cb 	bl	8005b16 <HAL_NVIC_EnableIRQ>

  HAL_NVIC_SetPriority(EXTI3_IRQn, 3, 0);
 8004980:	2200      	movs	r2, #0
 8004982:	2103      	movs	r1, #3
 8004984:	2009      	movs	r0, #9
 8004986:	f001 f8aa 	bl	8005ade <HAL_NVIC_SetPriority>
  HAL_NVIC_EnableIRQ(EXTI3_IRQn);
 800498a:	2009      	movs	r0, #9
 800498c:	f001 f8c3 	bl	8005b16 <HAL_NVIC_EnableIRQ>

  HAL_NVIC_SetPriority(EXTI15_10_IRQn, 0, 0);
 8004990:	2200      	movs	r2, #0
 8004992:	2100      	movs	r1, #0
 8004994:	2028      	movs	r0, #40	; 0x28
 8004996:	f001 f8a2 	bl	8005ade <HAL_NVIC_SetPriority>
  HAL_NVIC_EnableIRQ(EXTI15_10_IRQn);
 800499a:	2028      	movs	r0, #40	; 0x28
 800499c:	f001 f8bb 	bl	8005b16 <HAL_NVIC_EnableIRQ>

/* USER CODE BEGIN MX_GPIO_Init_2 */
/* USER CODE END MX_GPIO_Init_2 */
}
 80049a0:	bf00      	nop
 80049a2:	3720      	adds	r7, #32
 80049a4:	46bd      	mov	sp, r7
 80049a6:	bd80      	pop	{r7, pc}
 80049a8:	40021000 	.word	0x40021000
 80049ac:	40011000 	.word	0x40011000
 80049b0:	40010c00 	.word	0x40010c00
 80049b4:	40010800 	.word	0x40010800
 80049b8:	10310000 	.word	0x10310000
 80049bc:	10210000 	.word	0x10210000
 80049c0:	10110000 	.word	0x10110000

080049c4 <Error_Handler>:
/**
  * @brief  This function is executed in case of error occurrence.
  * @retval None
  */
void Error_Handler(void)
{
 80049c4:	b480      	push	{r7}
 80049c6:	af00      	add	r7, sp, #0
  \details Disables IRQ interrupts by setting the I-bit in the CPSR.
           Can only be executed in Privileged modes.
 */
__STATIC_FORCEINLINE void __disable_irq(void)
{
  __ASM volatile ("cpsid i" : : : "memory");
 80049c8:	b672      	cpsid	i
}
 80049ca:	bf00      	nop
  /* USER CODE BEGIN Error_Handler_Debug */
  /* User can add his own implementation to report the HAL error return state */
  __disable_irq();
  while (1)
 80049cc:	e7fe      	b.n	80049cc <Error_Handler+0x8>
	...

080049d0 <HAL_MspInit>:
void HAL_TIM_MspPostInit(TIM_HandleTypeDef *htim);
                    /**
  * Initializes the Global MSP.
  */
void HAL_MspInit(void)
{
 80049d0:	b580      	push	{r7, lr}
 80049d2:	b084      	sub	sp, #16
 80049d4:	af00      	add	r7, sp, #0
  /* USER CODE BEGIN MspInit 0 */

  /* USER CODE END MspInit 0 */

  __HAL_RCC_AFIO_CLK_ENABLE();
 80049d6:	4b1d      	ldr	r3, [pc, #116]	; (8004a4c <HAL_MspInit+0x7c>)
 80049d8:	699b      	ldr	r3, [r3, #24]
 80049da:	4a1c      	ldr	r2, [pc, #112]	; (8004a4c <HAL_MspInit+0x7c>)
 80049dc:	f043 0301 	orr.w	r3, r3, #1
 80049e0:	6193      	str	r3, [r2, #24]
 80049e2:	4b1a      	ldr	r3, [pc, #104]	; (8004a4c <HAL_MspInit+0x7c>)
 80049e4:	699b      	ldr	r3, [r3, #24]
 80049e6:	f003 0301 	and.w	r3, r3, #1
 80049ea:	60bb      	str	r3, [r7, #8]
 80049ec:	68bb      	ldr	r3, [r7, #8]
  __HAL_RCC_PWR_CLK_ENABLE();
 80049ee:	4b17      	ldr	r3, [pc, #92]	; (8004a4c <HAL_MspInit+0x7c>)
 80049f0:	69db      	ldr	r3, [r3, #28]
 80049f2:	4a16      	ldr	r2, [pc, #88]	; (8004a4c <HAL_MspInit+0x7c>)
 80049f4:	f043 5380 	orr.w	r3, r3, #268435456	; 0x10000000
 80049f8:	61d3      	str	r3, [r2, #28]
 80049fa:	4b14      	ldr	r3, [pc, #80]	; (8004a4c <HAL_MspInit+0x7c>)
 80049fc:	69db      	ldr	r3, [r3, #28]
 80049fe:	f003 5380 	and.w	r3, r3, #268435456	; 0x10000000
 8004a02:	607b      	str	r3, [r7, #4]
 8004a04:	687b      	ldr	r3, [r7, #4]

  /* System interrupt init*/

  /* Peripheral interrupt init */
  /* FLASH_IRQn interrupt configuration */
  HAL_NVIC_SetPriority(FLASH_IRQn, 0, 0);
 8004a06:	2200      	movs	r2, #0
 8004a08:	2100      	movs	r1, #0
 8004a0a:	2004      	movs	r0, #4
 8004a0c:	f001 f867 	bl	8005ade <HAL_NVIC_SetPriority>
  HAL_NVIC_EnableIRQ(FLASH_IRQn);
 8004a10:	2004      	movs	r0, #4
 8004a12:	f001 f880 	bl	8005b16 <HAL_NVIC_EnableIRQ>
  /* RCC_IRQn interrupt configuration */
  HAL_NVIC_SetPriority(RCC_IRQn, 0, 0);
 8004a16:	2200      	movs	r2, #0
 8004a18:	2100      	movs	r1, #0
 8004a1a:	2005      	movs	r0, #5
 8004a1c:	f001 f85f 	bl	8005ade <HAL_NVIC_SetPriority>
  HAL_NVIC_EnableIRQ(RCC_IRQn);
 8004a20:	2005      	movs	r0, #5
 8004a22:	f001 f878 	bl	8005b16 <HAL_NVIC_EnableIRQ>

  /** NOJTAG: JTAG-DP Disabled and SW-DP Enabled
  */
  __HAL_AFIO_REMAP_SWJ_NOJTAG();
 8004a26:	4b0a      	ldr	r3, [pc, #40]	; (8004a50 <HAL_MspInit+0x80>)
 8004a28:	685b      	ldr	r3, [r3, #4]
 8004a2a:	60fb      	str	r3, [r7, #12]
 8004a2c:	68fb      	ldr	r3, [r7, #12]
 8004a2e:	f023 63e0 	bic.w	r3, r3, #117440512	; 0x7000000
 8004a32:	60fb      	str	r3, [r7, #12]
 8004a34:	68fb      	ldr	r3, [r7, #12]
 8004a36:	f043 7300 	orr.w	r3, r3, #33554432	; 0x2000000
 8004a3a:	60fb      	str	r3, [r7, #12]
 8004a3c:	4a04      	ldr	r2, [pc, #16]	; (8004a50 <HAL_MspInit+0x80>)
 8004a3e:	68fb      	ldr	r3, [r7, #12]
 8004a40:	6053      	str	r3, [r2, #4]

  /* USER CODE BEGIN MspInit 1 */

  /* USER CODE END MspInit 1 */
}
 8004a42:	bf00      	nop
 8004a44:	3710      	adds	r7, #16
 8004a46:	46bd      	mov	sp, r7
 8004a48:	bd80      	pop	{r7, pc}
 8004a4a:	bf00      	nop
 8004a4c:	40021000 	.word	0x40021000
 8004a50:	40010000 	.word	0x40010000

08004a54 <HAL_ADC_MspInit>:
* This function configures the hardware resources used in this example
* @param hadc: ADC handle pointer
* @retval None
*/
void HAL_ADC_MspInit(ADC_HandleTypeDef* hadc)
{
 8004a54:	b580      	push	{r7, lr}
 8004a56:	b088      	sub	sp, #32
 8004a58:	af00      	add	r7, sp, #0
 8004a5a:	6078      	str	r0, [r7, #4]
  GPIO_InitTypeDef GPIO_InitStruct = {0};
 8004a5c:	f107 0310 	add.w	r3, r7, #16
 8004a60:	2200      	movs	r2, #0
 8004a62:	601a      	str	r2, [r3, #0]
 8004a64:	605a      	str	r2, [r3, #4]
 8004a66:	609a      	str	r2, [r3, #8]
 8004a68:	60da      	str	r2, [r3, #12]
  if(hadc->Instance==ADC1)
 8004a6a:	687b      	ldr	r3, [r7, #4]
 8004a6c:	681b      	ldr	r3, [r3, #0]
 8004a6e:	4a2d      	ldr	r2, [pc, #180]	; (8004b24 <HAL_ADC_MspInit+0xd0>)
 8004a70:	4293      	cmp	r3, r2
 8004a72:	d152      	bne.n	8004b1a <HAL_ADC_MspInit+0xc6>
  {
  /* USER CODE BEGIN ADC1_MspInit 0 */

  /* USER CODE END ADC1_MspInit 0 */
    /* Peripheral clock enable */
    __HAL_RCC_ADC1_CLK_ENABLE();
 8004a74:	4b2c      	ldr	r3, [pc, #176]	; (8004b28 <HAL_ADC_MspInit+0xd4>)
 8004a76:	699b      	ldr	r3, [r3, #24]
 8004a78:	4a2b      	ldr	r2, [pc, #172]	; (8004b28 <HAL_ADC_MspInit+0xd4>)
 8004a7a:	f443 7300 	orr.w	r3, r3, #512	; 0x200
 8004a7e:	6193      	str	r3, [r2, #24]
 8004a80:	4b29      	ldr	r3, [pc, #164]	; (8004b28 <HAL_ADC_MspInit+0xd4>)
 8004a82:	699b      	ldr	r3, [r3, #24]
 8004a84:	f403 7300 	and.w	r3, r3, #512	; 0x200
 8004a88:	60fb      	str	r3, [r7, #12]
 8004a8a:	68fb      	ldr	r3, [r7, #12]

    __HAL_RCC_GPIOA_CLK_ENABLE();
 8004a8c:	4b26      	ldr	r3, [pc, #152]	; (8004b28 <HAL_ADC_MspInit+0xd4>)
 8004a8e:	699b      	ldr	r3, [r3, #24]
 8004a90:	4a25      	ldr	r2, [pc, #148]	; (8004b28 <HAL_ADC_MspInit+0xd4>)
 8004a92:	f043 0304 	orr.w	r3, r3, #4
 8004a96:	6193      	str	r3, [r2, #24]
 8004a98:	4b23      	ldr	r3, [pc, #140]	; (8004b28 <HAL_ADC_MspInit+0xd4>)
 8004a9a:	699b      	ldr	r3, [r3, #24]
 8004a9c:	f003 0304 	and.w	r3, r3, #4
 8004aa0:	60bb      	str	r3, [r7, #8]
 8004aa2:	68bb      	ldr	r3, [r7, #8]
    PA0-WKUP     ------> ADC1_IN0
    PA1     ------> ADC1_IN1
    PA6     ------> ADC1_IN6
    PA7     ------> ADC1_IN7
    */
    GPIO_InitStruct.Pin = GPIO_PIN_0|GPIO_PIN_1|GPIO_PIN_6|GPIO_PIN_7;
 8004aa4:	23c3      	movs	r3, #195	; 0xc3
 8004aa6:	613b      	str	r3, [r7, #16]
    GPIO_InitStruct.Mode = GPIO_MODE_ANALOG;
 8004aa8:	2303      	movs	r3, #3
 8004aaa:	617b      	str	r3, [r7, #20]
    HAL_GPIO_Init(GPIOA, &GPIO_InitStruct);
 8004aac:	f107 0310 	add.w	r3, r7, #16
 8004ab0:	4619      	mov	r1, r3
 8004ab2:	481e      	ldr	r0, [pc, #120]	; (8004b2c <HAL_ADC_MspInit+0xd8>)
 8004ab4:	f001 fd2e 	bl	8006514 <HAL_GPIO_Init>

    /* ADC1 DMA Init */
    /* ADC1 Init */
    hdma_adc1.Instance = DMA1_Channel1;
 8004ab8:	4b1d      	ldr	r3, [pc, #116]	; (8004b30 <HAL_ADC_MspInit+0xdc>)
 8004aba:	4a1e      	ldr	r2, [pc, #120]	; (8004b34 <HAL_ADC_MspInit+0xe0>)
 8004abc:	601a      	str	r2, [r3, #0]
    hdma_adc1.Init.Direction = DMA_PERIPH_TO_MEMORY;
 8004abe:	4b1c      	ldr	r3, [pc, #112]	; (8004b30 <HAL_ADC_MspInit+0xdc>)
 8004ac0:	2200      	movs	r2, #0
 8004ac2:	605a      	str	r2, [r3, #4]
    hdma_adc1.Init.PeriphInc = DMA_PINC_DISABLE;
 8004ac4:	4b1a      	ldr	r3, [pc, #104]	; (8004b30 <HAL_ADC_MspInit+0xdc>)
 8004ac6:	2200      	movs	r2, #0
 8004ac8:	609a      	str	r2, [r3, #8]
    hdma_adc1.Init.MemInc = DMA_MINC_ENABLE;
 8004aca:	4b19      	ldr	r3, [pc, #100]	; (8004b30 <HAL_ADC_MspInit+0xdc>)
 8004acc:	2280      	movs	r2, #128	; 0x80
 8004ace:	60da      	str	r2, [r3, #12]
    hdma_adc1.Init.PeriphDataAlignment = DMA_PDATAALIGN_HALFWORD;
 8004ad0:	4b17      	ldr	r3, [pc, #92]	; (8004b30 <HAL_ADC_MspInit+0xdc>)
 8004ad2:	f44f 7280 	mov.w	r2, #256	; 0x100
 8004ad6:	611a      	str	r2, [r3, #16]
    hdma_adc1.Init.MemDataAlignment = DMA_MDATAALIGN_HALFWORD;
 8004ad8:	4b15      	ldr	r3, [pc, #84]	; (8004b30 <HAL_ADC_MspInit+0xdc>)
 8004ada:	f44f 6280 	mov.w	r2, #1024	; 0x400
 8004ade:	615a      	str	r2, [r3, #20]
    hdma_adc1.Init.Mode = DMA_NORMAL;
 8004ae0:	4b13      	ldr	r3, [pc, #76]	; (8004b30 <HAL_ADC_MspInit+0xdc>)
 8004ae2:	2200      	movs	r2, #0
 8004ae4:	619a      	str	r2, [r3, #24]
    hdma_adc1.Init.Priority = DMA_PRIORITY_VERY_HIGH;
 8004ae6:	4b12      	ldr	r3, [pc, #72]	; (8004b30 <HAL_ADC_MspInit+0xdc>)
 8004ae8:	f44f 5240 	mov.w	r2, #12288	; 0x3000
 8004aec:	61da      	str	r2, [r3, #28]
    if (HAL_DMA_Init(&hdma_adc1) != HAL_OK)
 8004aee:	4810      	ldr	r0, [pc, #64]	; (8004b30 <HAL_ADC_MspInit+0xdc>)
 8004af0:	f001 f82c 	bl	8005b4c <HAL_DMA_Init>
 8004af4:	4603      	mov	r3, r0
 8004af6:	2b00      	cmp	r3, #0
 8004af8:	d001      	beq.n	8004afe <HAL_ADC_MspInit+0xaa>
    {
      Error_Handler();
 8004afa:	f7ff ff63 	bl	80049c4 <Error_Handler>
    }

    __HAL_LINKDMA(hadc,DMA_Handle,hdma_adc1);
 8004afe:	687b      	ldr	r3, [r7, #4]
 8004b00:	4a0b      	ldr	r2, [pc, #44]	; (8004b30 <HAL_ADC_MspInit+0xdc>)
 8004b02:	621a      	str	r2, [r3, #32]
 8004b04:	4a0a      	ldr	r2, [pc, #40]	; (8004b30 <HAL_ADC_MspInit+0xdc>)
 8004b06:	687b      	ldr	r3, [r7, #4]
 8004b08:	6253      	str	r3, [r2, #36]	; 0x24

    /* ADC1 interrupt Init */
    HAL_NVIC_SetPriority(ADC1_2_IRQn, 0, 0);
 8004b0a:	2200      	movs	r2, #0
 8004b0c:	2100      	movs	r1, #0
 8004b0e:	2012      	movs	r0, #18
 8004b10:	f000 ffe5 	bl	8005ade <HAL_NVIC_SetPriority>
    HAL_NVIC_EnableIRQ(ADC1_2_IRQn);
 8004b14:	2012      	movs	r0, #18
 8004b16:	f000 fffe 	bl	8005b16 <HAL_NVIC_EnableIRQ>
  /* USER CODE BEGIN ADC1_MspInit 1 */

  /* USER CODE END ADC1_MspInit 1 */
  }

}
 8004b1a:	bf00      	nop
 8004b1c:	3720      	adds	r7, #32
 8004b1e:	46bd      	mov	sp, r7
 8004b20:	bd80      	pop	{r7, pc}
 8004b22:	bf00      	nop
 8004b24:	40012400 	.word	0x40012400
 8004b28:	40021000 	.word	0x40021000
 8004b2c:	40010800 	.word	0x40010800
 8004b30:	200005bc 	.word	0x200005bc
 8004b34:	40020008 	.word	0x40020008

08004b38 <HAL_I2C_MspInit>:
* This function configures the hardware resources used in this example
* @param hi2c: I2C handle pointer
* @retval None
*/
void HAL_I2C_MspInit(I2C_HandleTypeDef* hi2c)
{
 8004b38:	b580      	push	{r7, lr}
 8004b3a:	b088      	sub	sp, #32
 8004b3c:	af00      	add	r7, sp, #0
 8004b3e:	6078      	str	r0, [r7, #4]
  GPIO_InitTypeDef GPIO_InitStruct = {0};
 8004b40:	f107 0310 	add.w	r3, r7, #16
 8004b44:	2200      	movs	r2, #0
 8004b46:	601a      	str	r2, [r3, #0]
 8004b48:	605a      	str	r2, [r3, #4]
 8004b4a:	609a      	str	r2, [r3, #8]
 8004b4c:	60da      	str	r2, [r3, #12]
  if(hi2c->Instance==I2C1)
 8004b4e:	687b      	ldr	r3, [r7, #4]
 8004b50:	681b      	ldr	r3, [r3, #0]
 8004b52:	4a15      	ldr	r2, [pc, #84]	; (8004ba8 <HAL_I2C_MspInit+0x70>)
 8004b54:	4293      	cmp	r3, r2
 8004b56:	d123      	bne.n	8004ba0 <HAL_I2C_MspInit+0x68>
  {
  /* USER CODE BEGIN I2C1_MspInit 0 */

  /* USER CODE END I2C1_MspInit 0 */

    __HAL_RCC_GPIOB_CLK_ENABLE();
 8004b58:	4b14      	ldr	r3, [pc, #80]	; (8004bac <HAL_I2C_MspInit+0x74>)
 8004b5a:	699b      	ldr	r3, [r3, #24]
 8004b5c:	4a13      	ldr	r2, [pc, #76]	; (8004bac <HAL_I2C_MspInit+0x74>)
 8004b5e:	f043 0308 	orr.w	r3, r3, #8
 8004b62:	6193      	str	r3, [r2, #24]
 8004b64:	4b11      	ldr	r3, [pc, #68]	; (8004bac <HAL_I2C_MspInit+0x74>)
 8004b66:	699b      	ldr	r3, [r3, #24]
 8004b68:	f003 0308 	and.w	r3, r3, #8
 8004b6c:	60fb      	str	r3, [r7, #12]
 8004b6e:	68fb      	ldr	r3, [r7, #12]
    /**I2C1 GPIO Configuration
    PB6     ------> I2C1_SCL
    PB7     ------> I2C1_SDA
    */
    GPIO_InitStruct.Pin = GPIO_PIN_6|GPIO_PIN_7;
 8004b70:	23c0      	movs	r3, #192	; 0xc0
 8004b72:	613b      	str	r3, [r7, #16]
    GPIO_InitStruct.Mode = GPIO_MODE_AF_OD;
 8004b74:	2312      	movs	r3, #18
 8004b76:	617b      	str	r3, [r7, #20]
    GPIO_InitStruct.Speed = GPIO_SPEED_FREQ_HIGH;
 8004b78:	2303      	movs	r3, #3
 8004b7a:	61fb      	str	r3, [r7, #28]
    HAL_GPIO_Init(GPIOB, &GPIO_InitStruct);
 8004b7c:	f107 0310 	add.w	r3, r7, #16
 8004b80:	4619      	mov	r1, r3
 8004b82:	480b      	ldr	r0, [pc, #44]	; (8004bb0 <HAL_I2C_MspInit+0x78>)
 8004b84:	f001 fcc6 	bl	8006514 <HAL_GPIO_Init>

    /* Peripheral clock enable */
    __HAL_RCC_I2C1_CLK_ENABLE();
 8004b88:	4b08      	ldr	r3, [pc, #32]	; (8004bac <HAL_I2C_MspInit+0x74>)
 8004b8a:	69db      	ldr	r3, [r3, #28]
 8004b8c:	4a07      	ldr	r2, [pc, #28]	; (8004bac <HAL_I2C_MspInit+0x74>)
 8004b8e:	f443 1300 	orr.w	r3, r3, #2097152	; 0x200000
 8004b92:	61d3      	str	r3, [r2, #28]
 8004b94:	4b05      	ldr	r3, [pc, #20]	; (8004bac <HAL_I2C_MspInit+0x74>)
 8004b96:	69db      	ldr	r3, [r3, #28]
 8004b98:	f403 1300 	and.w	r3, r3, #2097152	; 0x200000
 8004b9c:	60bb      	str	r3, [r7, #8]
 8004b9e:	68bb      	ldr	r3, [r7, #8]
  /* USER CODE BEGIN I2C1_MspInit 1 */

  /* USER CODE END I2C1_MspInit 1 */
  }

}
 8004ba0:	bf00      	nop
 8004ba2:	3720      	adds	r7, #32
 8004ba4:	46bd      	mov	sp, r7
 8004ba6:	bd80      	pop	{r7, pc}
 8004ba8:	40005400 	.word	0x40005400
 8004bac:	40021000 	.word	0x40021000
 8004bb0:	40010c00 	.word	0x40010c00

08004bb4 <HAL_TIM_Base_MspInit>:
* This function configures the hardware resources used in this example
* @param htim_base: TIM_Base handle pointer
* @retval None
*/
void HAL_TIM_Base_MspInit(TIM_HandleTypeDef* htim_base)
{
 8004bb4:	b580      	push	{r7, lr}
 8004bb6:	b086      	sub	sp, #24
 8004bb8:	af00      	add	r7, sp, #0
 8004bba:	6078      	str	r0, [r7, #4]
  if(htim_base->Instance==TIM1)
 8004bbc:	687b      	ldr	r3, [r7, #4]
 8004bbe:	681b      	ldr	r3, [r3, #0]
 8004bc0:	4a34      	ldr	r2, [pc, #208]	; (8004c94 <HAL_TIM_Base_MspInit+0xe0>)
 8004bc2:	4293      	cmp	r3, r2
 8004bc4:	d114      	bne.n	8004bf0 <HAL_TIM_Base_MspInit+0x3c>
  {
  /* USER CODE BEGIN TIM1_MspInit 0 */

  /* USER CODE END TIM1_MspInit 0 */
    /* Peripheral clock enable */
    __HAL_RCC_TIM1_CLK_ENABLE();
 8004bc6:	4b34      	ldr	r3, [pc, #208]	; (8004c98 <HAL_TIM_Base_MspInit+0xe4>)
 8004bc8:	699b      	ldr	r3, [r3, #24]
 8004bca:	4a33      	ldr	r2, [pc, #204]	; (8004c98 <HAL_TIM_Base_MspInit+0xe4>)
 8004bcc:	f443 6300 	orr.w	r3, r3, #2048	; 0x800
 8004bd0:	6193      	str	r3, [r2, #24]
 8004bd2:	4b31      	ldr	r3, [pc, #196]	; (8004c98 <HAL_TIM_Base_MspInit+0xe4>)
 8004bd4:	699b      	ldr	r3, [r3, #24]
 8004bd6:	f403 6300 	and.w	r3, r3, #2048	; 0x800
 8004bda:	617b      	str	r3, [r7, #20]
 8004bdc:	697b      	ldr	r3, [r7, #20]
    /* TIM1 interrupt Init */
    HAL_NVIC_SetPriority(TIM1_UP_IRQn, 0, 0);
 8004bde:	2200      	movs	r2, #0
 8004be0:	2100      	movs	r1, #0
 8004be2:	2019      	movs	r0, #25
 8004be4:	f000 ff7b 	bl	8005ade <HAL_NVIC_SetPriority>
    HAL_NVIC_EnableIRQ(TIM1_UP_IRQn);
 8004be8:	2019      	movs	r0, #25
 8004bea:	f000 ff94 	bl	8005b16 <HAL_NVIC_EnableIRQ>
  /* USER CODE BEGIN TIM4_MspInit 1 */

  /* USER CODE END TIM4_MspInit 1 */
  }

}
 8004bee:	e04c      	b.n	8004c8a <HAL_TIM_Base_MspInit+0xd6>
  else if(htim_base->Instance==TIM2)
 8004bf0:	687b      	ldr	r3, [r7, #4]
 8004bf2:	681b      	ldr	r3, [r3, #0]
 8004bf4:	f1b3 4f80 	cmp.w	r3, #1073741824	; 0x40000000
 8004bf8:	d114      	bne.n	8004c24 <HAL_TIM_Base_MspInit+0x70>
    __HAL_RCC_TIM2_CLK_ENABLE();
 8004bfa:	4b27      	ldr	r3, [pc, #156]	; (8004c98 <HAL_TIM_Base_MspInit+0xe4>)
 8004bfc:	69db      	ldr	r3, [r3, #28]
 8004bfe:	4a26      	ldr	r2, [pc, #152]	; (8004c98 <HAL_TIM_Base_MspInit+0xe4>)
 8004c00:	f043 0301 	orr.w	r3, r3, #1
 8004c04:	61d3      	str	r3, [r2, #28]
 8004c06:	4b24      	ldr	r3, [pc, #144]	; (8004c98 <HAL_TIM_Base_MspInit+0xe4>)
 8004c08:	69db      	ldr	r3, [r3, #28]
 8004c0a:	f003 0301 	and.w	r3, r3, #1
 8004c0e:	613b      	str	r3, [r7, #16]
 8004c10:	693b      	ldr	r3, [r7, #16]
    HAL_NVIC_SetPriority(TIM2_IRQn, 3, 0);
 8004c12:	2200      	movs	r2, #0
 8004c14:	2103      	movs	r1, #3
 8004c16:	201c      	movs	r0, #28
 8004c18:	f000 ff61 	bl	8005ade <HAL_NVIC_SetPriority>
    HAL_NVIC_EnableIRQ(TIM2_IRQn);
 8004c1c:	201c      	movs	r0, #28
 8004c1e:	f000 ff7a 	bl	8005b16 <HAL_NVIC_EnableIRQ>
}
 8004c22:	e032      	b.n	8004c8a <HAL_TIM_Base_MspInit+0xd6>
  else if(htim_base->Instance==TIM3)
 8004c24:	687b      	ldr	r3, [r7, #4]
 8004c26:	681b      	ldr	r3, [r3, #0]
 8004c28:	4a1c      	ldr	r2, [pc, #112]	; (8004c9c <HAL_TIM_Base_MspInit+0xe8>)
 8004c2a:	4293      	cmp	r3, r2
 8004c2c:	d114      	bne.n	8004c58 <HAL_TIM_Base_MspInit+0xa4>
    __HAL_RCC_TIM3_CLK_ENABLE();
 8004c2e:	4b1a      	ldr	r3, [pc, #104]	; (8004c98 <HAL_TIM_Base_MspInit+0xe4>)
 8004c30:	69db      	ldr	r3, [r3, #28]
 8004c32:	4a19      	ldr	r2, [pc, #100]	; (8004c98 <HAL_TIM_Base_MspInit+0xe4>)
 8004c34:	f043 0302 	orr.w	r3, r3, #2
 8004c38:	61d3      	str	r3, [r2, #28]
 8004c3a:	4b17      	ldr	r3, [pc, #92]	; (8004c98 <HAL_TIM_Base_MspInit+0xe4>)
 8004c3c:	69db      	ldr	r3, [r3, #28]
 8004c3e:	f003 0302 	and.w	r3, r3, #2
 8004c42:	60fb      	str	r3, [r7, #12]
 8004c44:	68fb      	ldr	r3, [r7, #12]
    HAL_NVIC_SetPriority(TIM3_IRQn, 3, 0);
 8004c46:	2200      	movs	r2, #0
 8004c48:	2103      	movs	r1, #3
 8004c4a:	201d      	movs	r0, #29
 8004c4c:	f000 ff47 	bl	8005ade <HAL_NVIC_SetPriority>
    HAL_NVIC_EnableIRQ(TIM3_IRQn);
 8004c50:	201d      	movs	r0, #29
 8004c52:	f000 ff60 	bl	8005b16 <HAL_NVIC_EnableIRQ>
}
 8004c56:	e018      	b.n	8004c8a <HAL_TIM_Base_MspInit+0xd6>
  else if(htim_base->Instance==TIM4)
 8004c58:	687b      	ldr	r3, [r7, #4]
 8004c5a:	681b      	ldr	r3, [r3, #0]
 8004c5c:	4a10      	ldr	r2, [pc, #64]	; (8004ca0 <HAL_TIM_Base_MspInit+0xec>)
 8004c5e:	4293      	cmp	r3, r2
 8004c60:	d113      	bne.n	8004c8a <HAL_TIM_Base_MspInit+0xd6>
    __HAL_RCC_TIM4_CLK_ENABLE();
 8004c62:	4b0d      	ldr	r3, [pc, #52]	; (8004c98 <HAL_TIM_Base_MspInit+0xe4>)
 8004c64:	69db      	ldr	r3, [r3, #28]
 8004c66:	4a0c      	ldr	r2, [pc, #48]	; (8004c98 <HAL_TIM_Base_MspInit+0xe4>)
 8004c68:	f043 0304 	orr.w	r3, r3, #4
 8004c6c:	61d3      	str	r3, [r2, #28]
 8004c6e:	4b0a      	ldr	r3, [pc, #40]	; (8004c98 <HAL_TIM_Base_MspInit+0xe4>)
 8004c70:	69db      	ldr	r3, [r3, #28]
 8004c72:	f003 0304 	and.w	r3, r3, #4
 8004c76:	60bb      	str	r3, [r7, #8]
 8004c78:	68bb      	ldr	r3, [r7, #8]
    HAL_NVIC_SetPriority(TIM4_IRQn, 1, 0);
 8004c7a:	2200      	movs	r2, #0
 8004c7c:	2101      	movs	r1, #1
 8004c7e:	201e      	movs	r0, #30
 8004c80:	f000 ff2d 	bl	8005ade <HAL_NVIC_SetPriority>
    HAL_NVIC_EnableIRQ(TIM4_IRQn);
 8004c84:	201e      	movs	r0, #30
 8004c86:	f000 ff46 	bl	8005b16 <HAL_NVIC_EnableIRQ>
}
 8004c8a:	bf00      	nop
 8004c8c:	3718      	adds	r7, #24
 8004c8e:	46bd      	mov	sp, r7
 8004c90:	bd80      	pop	{r7, pc}
 8004c92:	bf00      	nop
 8004c94:	40012c00 	.word	0x40012c00
 8004c98:	40021000 	.word	0x40021000
 8004c9c:	40000400 	.word	0x40000400
 8004ca0:	40000800 	.word	0x40000800

08004ca4 <HAL_TIM_MspPostInit>:

void HAL_TIM_MspPostInit(TIM_HandleTypeDef* htim)
{
 8004ca4:	b580      	push	{r7, lr}
 8004ca6:	b088      	sub	sp, #32
 8004ca8:	af00      	add	r7, sp, #0
 8004caa:	6078      	str	r0, [r7, #4]
  GPIO_InitTypeDef GPIO_InitStruct = {0};
 8004cac:	f107 0310 	add.w	r3, r7, #16
 8004cb0:	2200      	movs	r2, #0
 8004cb2:	601a      	str	r2, [r3, #0]
 8004cb4:	605a      	str	r2, [r3, #4]
 8004cb6:	609a      	str	r2, [r3, #8]
 8004cb8:	60da      	str	r2, [r3, #12]
  if(htim->Instance==TIM2)
 8004cba:	687b      	ldr	r3, [r7, #4]
 8004cbc:	681b      	ldr	r3, [r3, #0]
 8004cbe:	f1b3 4f80 	cmp.w	r3, #1073741824	; 0x40000000
 8004cc2:	d117      	bne.n	8004cf4 <HAL_TIM_MspPostInit+0x50>
  {
  /* USER CODE BEGIN TIM2_MspPostInit 0 */

  /* USER CODE END TIM2_MspPostInit 0 */

    __HAL_RCC_GPIOA_CLK_ENABLE();
 8004cc4:	4b0d      	ldr	r3, [pc, #52]	; (8004cfc <HAL_TIM_MspPostInit+0x58>)
 8004cc6:	699b      	ldr	r3, [r3, #24]
 8004cc8:	4a0c      	ldr	r2, [pc, #48]	; (8004cfc <HAL_TIM_MspPostInit+0x58>)
 8004cca:	f043 0304 	orr.w	r3, r3, #4
 8004cce:	6193      	str	r3, [r2, #24]
 8004cd0:	4b0a      	ldr	r3, [pc, #40]	; (8004cfc <HAL_TIM_MspPostInit+0x58>)
 8004cd2:	699b      	ldr	r3, [r3, #24]
 8004cd4:	f003 0304 	and.w	r3, r3, #4
 8004cd8:	60fb      	str	r3, [r7, #12]
 8004cda:	68fb      	ldr	r3, [r7, #12]
    /**TIM2 GPIO Configuration
    PA3     ------> TIM2_CH4
    */
    GPIO_InitStruct.Pin = GPIO_PIN_3;
 8004cdc:	2308      	movs	r3, #8
 8004cde:	613b      	str	r3, [r7, #16]
    GPIO_InitStruct.Mode = GPIO_MODE_AF_PP;
 8004ce0:	2302      	movs	r3, #2
 8004ce2:	617b      	str	r3, [r7, #20]
    GPIO_InitStruct.Speed = GPIO_SPEED_FREQ_HIGH;
 8004ce4:	2303      	movs	r3, #3
 8004ce6:	61fb      	str	r3, [r7, #28]
    HAL_GPIO_Init(GPIOA, &GPIO_InitStruct);
 8004ce8:	f107 0310 	add.w	r3, r7, #16
 8004cec:	4619      	mov	r1, r3
 8004cee:	4804      	ldr	r0, [pc, #16]	; (8004d00 <HAL_TIM_MspPostInit+0x5c>)
 8004cf0:	f001 fc10 	bl	8006514 <HAL_GPIO_Init>
  /* USER CODE BEGIN TIM2_MspPostInit 1 */

  /* USER CODE END TIM2_MspPostInit 1 */
  }

}
 8004cf4:	bf00      	nop
 8004cf6:	3720      	adds	r7, #32
 8004cf8:	46bd      	mov	sp, r7
 8004cfa:	bd80      	pop	{r7, pc}
 8004cfc:	40021000 	.word	0x40021000
 8004d00:	40010800 	.word	0x40010800

08004d04 <NMI_Handler>:
/******************************************************************************/
/**
  * @brief This function handles Non maskable interrupt.
  */
void NMI_Handler(void)
{
 8004d04:	b480      	push	{r7}
 8004d06:	af00      	add	r7, sp, #0
  /* USER CODE BEGIN NonMaskableInt_IRQn 0 */

  /* USER CODE END NonMaskableInt_IRQn 0 */
  /* USER CODE BEGIN NonMaskableInt_IRQn 1 */
  while (1)
 8004d08:	e7fe      	b.n	8004d08 <NMI_Handler+0x4>

08004d0a <HardFault_Handler>:

/**
  * @brief This function handles Hard fault interrupt.
  */
void HardFault_Handler(void)
{
 8004d0a:	b480      	push	{r7}
 8004d0c:	af00      	add	r7, sp, #0
  /* USER CODE BEGIN HardFault_IRQn 0 */

  /* USER CODE END HardFault_IRQn 0 */
  while (1)
 8004d0e:	e7fe      	b.n	8004d0e <HardFault_Handler+0x4>

08004d10 <MemManage_Handler>:

/**
  * @brief This function handles Memory management fault.
  */
void MemManage_Handler(void)
{
 8004d10:	b480      	push	{r7}
 8004d12:	af00      	add	r7, sp, #0
  /* USER CODE BEGIN MemoryManagement_IRQn 0 */

  /* USER CODE END MemoryManagement_IRQn 0 */
  while (1)
 8004d14:	e7fe      	b.n	8004d14 <MemManage_Handler+0x4>

08004d16 <BusFault_Handler>:

/**
  * @brief This function handles Prefetch fault, memory access fault.
  */
void BusFault_Handler(void)
{
 8004d16:	b480      	push	{r7}
 8004d18:	af00      	add	r7, sp, #0
  /* USER CODE BEGIN BusFault_IRQn 0 */

  /* USER CODE END BusFault_IRQn 0 */
  while (1)
 8004d1a:	e7fe      	b.n	8004d1a <BusFault_Handler+0x4>

08004d1c <UsageFault_Handler>:

/**
  * @brief This function handles Undefined instruction or illegal state.
  */
void UsageFault_Handler(void)
{
 8004d1c:	b480      	push	{r7}
 8004d1e:	af00      	add	r7, sp, #0
  /* USER CODE BEGIN UsageFault_IRQn 0 */

  /* USER CODE END UsageFault_IRQn 0 */
  while (1)
 8004d20:	e7fe      	b.n	8004d20 <UsageFault_Handler+0x4>

08004d22 <SVC_Handler>:

/**
  * @brief This function handles System service call via SWI instruction.
  */
void SVC_Handler(void)
{
 8004d22:	b480      	push	{r7}
 8004d24:	af00      	add	r7, sp, #0

  /* USER CODE END SVCall_IRQn 0 */
  /* USER CODE BEGIN SVCall_IRQn 1 */

  /* USER CODE END SVCall_IRQn 1 */
}
 8004d26:	bf00      	nop
 8004d28:	46bd      	mov	sp, r7
 8004d2a:	bc80      	pop	{r7}
 8004d2c:	4770      	bx	lr

08004d2e <DebugMon_Handler>:

/**
  * @brief This function handles Debug monitor.
  */
void DebugMon_Handler(void)
{
 8004d2e:	b480      	push	{r7}
 8004d30:	af00      	add	r7, sp, #0

  /* USER CODE END DebugMonitor_IRQn 0 */
  /* USER CODE BEGIN DebugMonitor_IRQn 1 */

  /* USER CODE END DebugMonitor_IRQn 1 */
}
 8004d32:	bf00      	nop
 8004d34:	46bd      	mov	sp, r7
 8004d36:	bc80      	pop	{r7}
 8004d38:	4770      	bx	lr

08004d3a <PendSV_Handler>:

/**
  * @brief This function handles Pendable request for system service.
  */
void PendSV_Handler(void)
{
 8004d3a:	b480      	push	{r7}
 8004d3c:	af00      	add	r7, sp, #0

  /* USER CODE END PendSV_IRQn 0 */
  /* USER CODE BEGIN PendSV_IRQn 1 */

  /* USER CODE END PendSV_IRQn 1 */
}
 8004d3e:	bf00      	nop
 8004d40:	46bd      	mov	sp, r7
 8004d42:	bc80      	pop	{r7}
 8004d44:	4770      	bx	lr

08004d46 <SysTick_Handler>:

/**
  * @brief This function handles System tick timer.
  */
void SysTick_Handler(void)
{
 8004d46:	b580      	push	{r7, lr}
 8004d48:	af00      	add	r7, sp, #0
  /* USER CODE BEGIN SysTick_IRQn 0 */

  /* USER CODE END SysTick_IRQn 0 */
  HAL_IncTick();
 8004d4a:	f000 f91b 	bl	8004f84 <HAL_IncTick>
  /* USER CODE BEGIN SysTick_IRQn 1 */

  /* USER CODE END SysTick_IRQn 1 */
}
 8004d4e:	bf00      	nop
 8004d50:	bd80      	pop	{r7, pc}

08004d52 <FLASH_IRQHandler>:

/**
  * @brief This function handles Flash global interrupt.
  */
void FLASH_IRQHandler(void)
{
 8004d52:	b580      	push	{r7, lr}
 8004d54:	af00      	add	r7, sp, #0
  /* USER CODE BEGIN FLASH_IRQn 0 */

  /* USER CODE END FLASH_IRQn 0 */
  HAL_FLASH_IRQHandler();
 8004d56:	f001 f957 	bl	8006008 <HAL_FLASH_IRQHandler>
  /* USER CODE BEGIN FLASH_IRQn 1 */

  /* USER CODE END FLASH_IRQn 1 */
}
 8004d5a:	bf00      	nop
 8004d5c:	bd80      	pop	{r7, pc}

08004d5e <RCC_IRQHandler>:

/**
  * @brief This function handles RCC global interrupt.
  */
void RCC_IRQHandler(void)
{
 8004d5e:	b480      	push	{r7}
 8004d60:	af00      	add	r7, sp, #0

  /* USER CODE END RCC_IRQn 0 */
  /* USER CODE BEGIN RCC_IRQn 1 */

  /* USER CODE END RCC_IRQn 1 */
}
 8004d62:	bf00      	nop
 8004d64:	46bd      	mov	sp, r7
 8004d66:	bc80      	pop	{r7}
 8004d68:	4770      	bx	lr

08004d6a <EXTI1_IRQHandler>:

/**
  * @brief This function handles EXTI line1 interrupt.
  */
void EXTI1_IRQHandler(void)
{
 8004d6a:	b580      	push	{r7, lr}
 8004d6c:	af00      	add	r7, sp, #0
  /* USER CODE BEGIN EXTI1_IRQn 0 */

  /* USER CODE END EXTI1_IRQn 0 */
  HAL_GPIO_EXTI_IRQHandler(GPIO_PIN_1);
 8004d6e:	2002      	movs	r0, #2
 8004d70:	f001 fd84 	bl	800687c <HAL_GPIO_EXTI_IRQHandler>
  /* USER CODE BEGIN EXTI1_IRQn 1 */

  /* USER CODE END EXTI1_IRQn 1 */
}
 8004d74:	bf00      	nop
 8004d76:	bd80      	pop	{r7, pc}

08004d78 <EXTI2_IRQHandler>:

/**
  * @brief This function handles EXTI line2 interrupt.
  */
void EXTI2_IRQHandler(void)
{
 8004d78:	b580      	push	{r7, lr}
 8004d7a:	af00      	add	r7, sp, #0
  /* USER CODE BEGIN EXTI2_IRQn 0 */

  /* USER CODE END EXTI2_IRQn 0 */
  HAL_GPIO_EXTI_IRQHandler(GPIO_PIN_2);
 8004d7c:	2004      	movs	r0, #4
 8004d7e:	f001 fd7d 	bl	800687c <HAL_GPIO_EXTI_IRQHandler>
  /* USER CODE BEGIN EXTI2_IRQn 1 */

  /* USER CODE END EXTI2_IRQn 1 */
}
 8004d82:	bf00      	nop
 8004d84:	bd80      	pop	{r7, pc}

08004d86 <EXTI3_IRQHandler>:

/**
  * @brief This function handles EXTI line3 interrupt.
  */
void EXTI3_IRQHandler(void)
{
 8004d86:	b580      	push	{r7, lr}
 8004d88:	af00      	add	r7, sp, #0
  /* USER CODE BEGIN EXTI3_IRQn 0 */

  /* USER CODE END EXTI3_IRQn 0 */
  HAL_GPIO_EXTI_IRQHandler(GPIO_PIN_3);
 8004d8a:	2008      	movs	r0, #8
 8004d8c:	f001 fd76 	bl	800687c <HAL_GPIO_EXTI_IRQHandler>
  /* USER CODE BEGIN EXTI3_IRQn 1 */

  /* USER CODE END EXTI3_IRQn 1 */
}
 8004d90:	bf00      	nop
 8004d92:	bd80      	pop	{r7, pc}

08004d94 <DMA1_Channel1_IRQHandler>:

/**
  * @brief This function handles DMA1 channel1 global interrupt.
  */
void DMA1_Channel1_IRQHandler(void)
{
 8004d94:	b580      	push	{r7, lr}
 8004d96:	af00      	add	r7, sp, #0
  /* USER CODE BEGIN DMA1_Channel1_IRQn 0 */

  /* USER CODE END DMA1_Channel1_IRQn 0 */
  HAL_DMA_IRQHandler(&hdma_adc1);
 8004d98:	4802      	ldr	r0, [pc, #8]	; (8004da4 <DMA1_Channel1_IRQHandler+0x10>)
 8004d9a:	f000 ff91 	bl	8005cc0 <HAL_DMA_IRQHandler>
  /* USER CODE BEGIN DMA1_Channel1_IRQn 1 */

  /* USER CODE END DMA1_Channel1_IRQn 1 */
}
 8004d9e:	bf00      	nop
 8004da0:	bd80      	pop	{r7, pc}
 8004da2:	bf00      	nop
 8004da4:	200005bc 	.word	0x200005bc

08004da8 <ADC1_2_IRQHandler>:

/**
  * @brief This function handles ADC1 and ADC2 global interrupts.
  */
void ADC1_2_IRQHandler(void)
{
 8004da8:	b580      	push	{r7, lr}
 8004daa:	af00      	add	r7, sp, #0
  /* USER CODE BEGIN ADC1_2_IRQn 0 */

  /* USER CODE END ADC1_2_IRQn 0 */
  HAL_ADC_IRQHandler(&hadc1);
 8004dac:	4802      	ldr	r0, [pc, #8]	; (8004db8 <ADC1_2_IRQHandler+0x10>)
 8004dae:	f000 fadf 	bl	8005370 <HAL_ADC_IRQHandler>
  /* USER CODE BEGIN ADC1_2_IRQn 1 */

  /* USER CODE END ADC1_2_IRQn 1 */
}
 8004db2:	bf00      	nop
 8004db4:	bd80      	pop	{r7, pc}
 8004db6:	bf00      	nop
 8004db8:	2000058c 	.word	0x2000058c

08004dbc <TIM1_UP_IRQHandler>:

/**
  * @brief This function handles TIM1 update interrupt.
  */
void TIM1_UP_IRQHandler(void)
{
 8004dbc:	b580      	push	{r7, lr}
 8004dbe:	af00      	add	r7, sp, #0
  /* USER CODE BEGIN TIM1_UP_IRQn 0 */

  /* USER CODE END TIM1_UP_IRQn 0 */
  HAL_TIM_IRQHandler(&htim1);
 8004dc0:	4802      	ldr	r0, [pc, #8]	; (8004dcc <TIM1_UP_IRQHandler+0x10>)
 8004dc2:	f003 f9a7 	bl	8008114 <HAL_TIM_IRQHandler>
  /* USER CODE BEGIN TIM1_UP_IRQn 1 */

  /* USER CODE END TIM1_UP_IRQn 1 */
}
 8004dc6:	bf00      	nop
 8004dc8:	bd80      	pop	{r7, pc}
 8004dca:	bf00      	nop
 8004dcc:	20000654 	.word	0x20000654

08004dd0 <TIM2_IRQHandler>:

/**
  * @brief This function handles TIM2 global interrupt.
  */
void TIM2_IRQHandler(void)
{
 8004dd0:	b580      	push	{r7, lr}
 8004dd2:	af00      	add	r7, sp, #0
  /* USER CODE BEGIN TIM2_IRQn 0 */

  /* USER CODE END TIM2_IRQn 0 */
  HAL_TIM_IRQHandler(&htim2);
 8004dd4:	4802      	ldr	r0, [pc, #8]	; (8004de0 <TIM2_IRQHandler+0x10>)
 8004dd6:	f003 f99d 	bl	8008114 <HAL_TIM_IRQHandler>
  /* USER CODE BEGIN TIM2_IRQn 1 */

  /* USER CODE END TIM2_IRQn 1 */
}
 8004dda:	bf00      	nop
 8004ddc:	bd80      	pop	{r7, pc}
 8004dde:	bf00      	nop
 8004de0:	2000069c 	.word	0x2000069c

08004de4 <TIM3_IRQHandler>:

/**
  * @brief This function handles TIM3 global interrupt.
  */
void TIM3_IRQHandler(void)
{
 8004de4:	b580      	push	{r7, lr}
 8004de6:	af00      	add	r7, sp, #0
  /* USER CODE BEGIN TIM3_IRQn 0 */

  /* USER CODE END TIM3_IRQn 0 */
  HAL_TIM_IRQHandler(&htim3);
 8004de8:	4802      	ldr	r0, [pc, #8]	; (8004df4 <TIM3_IRQHandler+0x10>)
 8004dea:	f003 f993 	bl	8008114 <HAL_TIM_IRQHandler>
  /* USER CODE BEGIN TIM3_IRQn 1 */

  /* USER CODE END TIM3_IRQn 1 */
}
 8004dee:	bf00      	nop
 8004df0:	bd80      	pop	{r7, pc}
 8004df2:	bf00      	nop
 8004df4:	200006e4 	.word	0x200006e4

08004df8 <TIM4_IRQHandler>:

/**
  * @brief This function handles TIM4 global interrupt.
  */
void TIM4_IRQHandler(void)
{
 8004df8:	b580      	push	{r7, lr}
 8004dfa:	af00      	add	r7, sp, #0
  /* USER CODE BEGIN TIM4_IRQn 0 */

  /* USER CODE END TIM4_IRQn 0 */
  HAL_TIM_IRQHandler(&htim4);
 8004dfc:	4802      	ldr	r0, [pc, #8]	; (8004e08 <TIM4_IRQHandler+0x10>)
 8004dfe:	f003 f989 	bl	8008114 <HAL_TIM_IRQHandler>
  /* USER CODE BEGIN TIM4_IRQn 1 */

  /* USER CODE END TIM4_IRQn 1 */
}
 8004e02:	bf00      	nop
 8004e04:	bd80      	pop	{r7, pc}
 8004e06:	bf00      	nop
 8004e08:	2000072c 	.word	0x2000072c

08004e0c <EXTI15_10_IRQHandler>:

/**
  * @brief This function handles EXTI line[15:10] interrupts.
  */
void EXTI15_10_IRQHandler(void)
{
 8004e0c:	b580      	push	{r7, lr}
 8004e0e:	af00      	add	r7, sp, #0
  /* USER CODE BEGIN EXTI15_10_IRQn 0 */

  /* USER CODE END EXTI15_10_IRQn 0 */
  HAL_GPIO_EXTI_IRQHandler(GPIO_PIN_11);
 8004e10:	f44f 6000 	mov.w	r0, #2048	; 0x800
 8004e14:	f001 fd32 	bl	800687c <HAL_GPIO_EXTI_IRQHandler>
  HAL_GPIO_EXTI_IRQHandler(GPIO_PIN_12);
 8004e18:	f44f 5080 	mov.w	r0, #4096	; 0x1000
 8004e1c:	f001 fd2e 	bl	800687c <HAL_GPIO_EXTI_IRQHandler>
  HAL_GPIO_EXTI_IRQHandler(GPIO_PIN_14);
 8004e20:	f44f 4080 	mov.w	r0, #16384	; 0x4000
 8004e24:	f001 fd2a 	bl	800687c <HAL_GPIO_EXTI_IRQHandler>
  HAL_GPIO_EXTI_IRQHandler(GPIO_PIN_15);
 8004e28:	f44f 4000 	mov.w	r0, #32768	; 0x8000
 8004e2c:	f001 fd26 	bl	800687c <HAL_GPIO_EXTI_IRQHandler>
  /* USER CODE BEGIN EXTI15_10_IRQn 1 */

  /* USER CODE END EXTI15_10_IRQn 1 */
}
 8004e30:	bf00      	nop
 8004e32:	bd80      	pop	{r7, pc}

08004e34 <_sbrk>:
 8004e34:	b580      	push	{r7, lr}
 8004e36:	b086      	sub	sp, #24
 8004e38:	af00      	add	r7, sp, #0
 8004e3a:	6078      	str	r0, [r7, #4]
 8004e3c:	4a14      	ldr	r2, [pc, #80]	; (8004e90 <_sbrk+0x5c>)
 8004e3e:	4b15      	ldr	r3, [pc, #84]	; (8004e94 <_sbrk+0x60>)
 8004e40:	1ad3      	subs	r3, r2, r3
 8004e42:	617b      	str	r3, [r7, #20]
 8004e44:	697b      	ldr	r3, [r7, #20]
 8004e46:	613b      	str	r3, [r7, #16]
 8004e48:	4b13      	ldr	r3, [pc, #76]	; (8004e98 <_sbrk+0x64>)
 8004e4a:	681b      	ldr	r3, [r3, #0]
 8004e4c:	2b00      	cmp	r3, #0
 8004e4e:	d102      	bne.n	8004e56 <_sbrk+0x22>
 8004e50:	4b11      	ldr	r3, [pc, #68]	; (8004e98 <_sbrk+0x64>)
 8004e52:	4a12      	ldr	r2, [pc, #72]	; (8004e9c <_sbrk+0x68>)
 8004e54:	601a      	str	r2, [r3, #0]
 8004e56:	4b10      	ldr	r3, [pc, #64]	; (8004e98 <_sbrk+0x64>)
 8004e58:	681a      	ldr	r2, [r3, #0]
 8004e5a:	687b      	ldr	r3, [r7, #4]
 8004e5c:	4413      	add	r3, r2
 8004e5e:	693a      	ldr	r2, [r7, #16]
 8004e60:	429a      	cmp	r2, r3
 8004e62:	d207      	bcs.n	8004e74 <_sbrk+0x40>
 8004e64:	f003 ffe4 	bl	8008e30 <__errno>
 8004e68:	4603      	mov	r3, r0
 8004e6a:	220c      	movs	r2, #12
 8004e6c:	601a      	str	r2, [r3, #0]
 8004e6e:	f04f 33ff 	mov.w	r3, #4294967295
 8004e72:	e009      	b.n	8004e88 <_sbrk+0x54>
 8004e74:	4b08      	ldr	r3, [pc, #32]	; (8004e98 <_sbrk+0x64>)
 8004e76:	681b      	ldr	r3, [r3, #0]
 8004e78:	60fb      	str	r3, [r7, #12]
 8004e7a:	4b07      	ldr	r3, [pc, #28]	; (8004e98 <_sbrk+0x64>)
 8004e7c:	681a      	ldr	r2, [r3, #0]
 8004e7e:	687b      	ldr	r3, [r7, #4]
 8004e80:	4413      	add	r3, r2
 8004e82:	4a05      	ldr	r2, [pc, #20]	; (8004e98 <_sbrk+0x64>)
 8004e84:	6013      	str	r3, [r2, #0]
 8004e86:	68fb      	ldr	r3, [r7, #12]
 8004e88:	4618      	mov	r0, r3
 8004e8a:	3718      	adds	r7, #24
 8004e8c:	46bd      	mov	sp, r7
 8004e8e:	bd80      	pop	{r7, pc}
 8004e90:	20005000 	.word	0x20005000
 8004e94:	00000400 	.word	0x00000400
 8004e98:	20000a08 	.word	0x20000a08
 8004e9c:	20000b78 	.word	0x20000b78

08004ea0 <SystemInit>:
 8004ea0:	b480      	push	{r7}
 8004ea2:	af00      	add	r7, sp, #0
 8004ea4:	bf00      	nop
 8004ea6:	46bd      	mov	sp, r7
 8004ea8:	bc80      	pop	{r7}
 8004eaa:	4770      	bx	lr

08004eac <Reset_Handler>:
 8004eac:	f7ff fff8 	bl	8004ea0 <SystemInit>
 8004eb0:	480b      	ldr	r0, [pc, #44]	; (8004ee0 <LoopFillZerobss+0xe>)
 8004eb2:	490c      	ldr	r1, [pc, #48]	; (8004ee4 <LoopFillZerobss+0x12>)
 8004eb4:	4a0c      	ldr	r2, [pc, #48]	; (8004ee8 <LoopFillZerobss+0x16>)
 8004eb6:	2300      	movs	r3, #0
 8004eb8:	e002      	b.n	8004ec0 <LoopCopyDataInit>

08004eba <CopyDataInit>:
 8004eba:	58d4      	ldr	r4, [r2, r3]
 8004ebc:	50c4      	str	r4, [r0, r3]
 8004ebe:	3304      	adds	r3, #4

08004ec0 <LoopCopyDataInit>:
 8004ec0:	18c4      	adds	r4, r0, r3
 8004ec2:	428c      	cmp	r4, r1
 8004ec4:	d3f9      	bcc.n	8004eba <CopyDataInit>
 8004ec6:	4a09      	ldr	r2, [pc, #36]	; (8004eec <LoopFillZerobss+0x1a>)
 8004ec8:	4c09      	ldr	r4, [pc, #36]	; (8004ef0 <LoopFillZerobss+0x1e>)
 8004eca:	2300      	movs	r3, #0
 8004ecc:	e001      	b.n	8004ed2 <LoopFillZerobss>

08004ece <FillZerobss>:
 8004ece:	6013      	str	r3, [r2, #0]
 8004ed0:	3204      	adds	r2, #4

08004ed2 <LoopFillZerobss>:
 8004ed2:	42a2      	cmp	r2, r4
 8004ed4:	d3fb      	bcc.n	8004ece <FillZerobss>
 8004ed6:	f003 ffb1 	bl	8008e3c <__libc_init_array>
 8004eda:	f7ff f8fb 	bl	80040d4 <main>
 8004ede:	4770      	bx	lr
 8004ee0:	20000000 	.word	0x20000000
 8004ee4:	200004d8 	.word	0x200004d8
 8004ee8:	08009008 	.word	0x08009008
 8004eec:	200004d8 	.word	0x200004d8
 8004ef0:	20000b78 	.word	0x20000b78

08004ef4 <CAN1_RX1_IRQHandler>:
 8004ef4:	e7fe      	b.n	8004ef4 <CAN1_RX1_IRQHandler>
	...

08004ef8 <HAL_Init>:
 8004ef8:	b580      	push	{r7, lr}
 8004efa:	af00      	add	r7, sp, #0
 8004efc:	4b08      	ldr	r3, [pc, #32]	; (8004f20 <HAL_Init+0x28>)
 8004efe:	681b      	ldr	r3, [r3, #0]
 8004f00:	4a07      	ldr	r2, [pc, #28]	; (8004f20 <HAL_Init+0x28>)
 8004f02:	f043 0310 	orr.w	r3, r3, #16
 8004f06:	6013      	str	r3, [r2, #0]
 8004f08:	2003      	movs	r0, #3
 8004f0a:	f000 fddd 	bl	8005ac8 <HAL_NVIC_SetPriorityGrouping>
 8004f0e:	200f      	movs	r0, #15
 8004f10:	f000 f808 	bl	8004f24 <HAL_InitTick>
 8004f14:	f7ff fd5c 	bl	80049d0 <HAL_MspInit>
 8004f18:	2300      	movs	r3, #0
 8004f1a:	4618      	mov	r0, r3
 8004f1c:	bd80      	pop	{r7, pc}
 8004f1e:	bf00      	nop
 8004f20:	40022000 	.word	0x40022000

08004f24 <HAL_InitTick>:
 8004f24:	b580      	push	{r7, lr}
 8004f26:	b082      	sub	sp, #8
 8004f28:	af00      	add	r7, sp, #0
 8004f2a:	6078      	str	r0, [r7, #4]
 8004f2c:	4b12      	ldr	r3, [pc, #72]	; (8004f78 <HAL_InitTick+0x54>)
 8004f2e:	681a      	ldr	r2, [r3, #0]
 8004f30:	4b12      	ldr	r3, [pc, #72]	; (8004f7c <HAL_InitTick+0x58>)
 8004f32:	781b      	ldrb	r3, [r3, #0]
 8004f34:	4619      	mov	r1, r3
 8004f36:	f44f 737a 	mov.w	r3, #1000	; 0x3e8
 8004f3a:	fbb3 f3f1 	udiv	r3, r3, r1
 8004f3e:	fbb2 f3f3 	udiv	r3, r2, r3
 8004f42:	4618      	mov	r0, r3
 8004f44:	f000 fdf5 	bl	8005b32 <HAL_SYSTICK_Config>
 8004f48:	4603      	mov	r3, r0
 8004f4a:	2b00      	cmp	r3, #0
 8004f4c:	d001      	beq.n	8004f52 <HAL_InitTick+0x2e>
 8004f4e:	2301      	movs	r3, #1
 8004f50:	e00e      	b.n	8004f70 <HAL_InitTick+0x4c>
 8004f52:	687b      	ldr	r3, [r7, #4]
 8004f54:	2b0f      	cmp	r3, #15
 8004f56:	d80a      	bhi.n	8004f6e <HAL_InitTick+0x4a>
 8004f58:	2200      	movs	r2, #0
 8004f5a:	6879      	ldr	r1, [r7, #4]
 8004f5c:	f04f 30ff 	mov.w	r0, #4294967295
 8004f60:	f000 fdbd 	bl	8005ade <HAL_NVIC_SetPriority>
 8004f64:	4a06      	ldr	r2, [pc, #24]	; (8004f80 <HAL_InitTick+0x5c>)
 8004f66:	687b      	ldr	r3, [r7, #4]
 8004f68:	6013      	str	r3, [r2, #0]
 8004f6a:	2300      	movs	r3, #0
 8004f6c:	e000      	b.n	8004f70 <HAL_InitTick+0x4c>
 8004f6e:	2301      	movs	r3, #1
 8004f70:	4618      	mov	r0, r3
 8004f72:	3708      	adds	r7, #8
 8004f74:	46bd      	mov	sp, r7
 8004f76:	bd80      	pop	{r7, pc}
 8004f78:	2000047c 	.word	0x2000047c
 8004f7c:	20000484 	.word	0x20000484
 8004f80:	20000480 	.word	0x20000480

08004f84 <HAL_IncTick>:
 8004f84:	b480      	push	{r7}
 8004f86:	af00      	add	r7, sp, #0
 8004f88:	4b05      	ldr	r3, [pc, #20]	; (8004fa0 <HAL_IncTick+0x1c>)
 8004f8a:	781b      	ldrb	r3, [r3, #0]
 8004f8c:	461a      	mov	r2, r3
 8004f8e:	4b05      	ldr	r3, [pc, #20]	; (8004fa4 <HAL_IncTick+0x20>)
 8004f90:	681b      	ldr	r3, [r3, #0]
 8004f92:	4413      	add	r3, r2
 8004f94:	4a03      	ldr	r2, [pc, #12]	; (8004fa4 <HAL_IncTick+0x20>)
 8004f96:	6013      	str	r3, [r2, #0]
 8004f98:	bf00      	nop
 8004f9a:	46bd      	mov	sp, r7
 8004f9c:	bc80      	pop	{r7}
 8004f9e:	4770      	bx	lr
 8004fa0:	20000484 	.word	0x20000484
 8004fa4:	20000a0c 	.word	0x20000a0c

08004fa8 <HAL_GetTick>:
 8004fa8:	b480      	push	{r7}
 8004faa:	af00      	add	r7, sp, #0
 8004fac:	4b02      	ldr	r3, [pc, #8]	; (8004fb8 <HAL_GetTick+0x10>)
 8004fae:	681b      	ldr	r3, [r3, #0]
 8004fb0:	4618      	mov	r0, r3
 8004fb2:	46bd      	mov	sp, r7
 8004fb4:	bc80      	pop	{r7}
 8004fb6:	4770      	bx	lr
 8004fb8:	20000a0c 	.word	0x20000a0c

08004fbc <HAL_Delay>:
 8004fbc:	b580      	push	{r7, lr}
 8004fbe:	b084      	sub	sp, #16
 8004fc0:	af00      	add	r7, sp, #0
 8004fc2:	6078      	str	r0, [r7, #4]
 8004fc4:	f7ff fff0 	bl	8004fa8 <HAL_GetTick>
 8004fc8:	60b8      	str	r0, [r7, #8]
 8004fca:	687b      	ldr	r3, [r7, #4]
 8004fcc:	60fb      	str	r3, [r7, #12]
 8004fce:	68fb      	ldr	r3, [r7, #12]
 8004fd0:	f1b3 3fff 	cmp.w	r3, #4294967295
 8004fd4:	d005      	beq.n	8004fe2 <HAL_Delay+0x26>
 8004fd6:	4b0a      	ldr	r3, [pc, #40]	; (8005000 <HAL_Delay+0x44>)
 8004fd8:	781b      	ldrb	r3, [r3, #0]
 8004fda:	461a      	mov	r2, r3
 8004fdc:	68fb      	ldr	r3, [r7, #12]
 8004fde:	4413      	add	r3, r2
 8004fe0:	60fb      	str	r3, [r7, #12]
 8004fe2:	bf00      	nop
 8004fe4:	f7ff ffe0 	bl	8004fa8 <HAL_GetTick>
 8004fe8:	4602      	mov	r2, r0
 8004fea:	68bb      	ldr	r3, [r7, #8]
 8004fec:	1ad3      	subs	r3, r2, r3
 8004fee:	68fa      	ldr	r2, [r7, #12]
 8004ff0:	429a      	cmp	r2, r3
 8004ff2:	d8f7      	bhi.n	8004fe4 <HAL_Delay+0x28>
 8004ff4:	bf00      	nop
 8004ff6:	bf00      	nop
 8004ff8:	3710      	adds	r7, #16
 8004ffa:	46bd      	mov	sp, r7
 8004ffc:	bd80      	pop	{r7, pc}
 8004ffe:	bf00      	nop
 8005000:	20000484 	.word	0x20000484

08005004 <HAL_ADC_Init>:
 8005004:	b580      	push	{r7, lr}
 8005006:	b086      	sub	sp, #24
 8005008:	af00      	add	r7, sp, #0
 800500a:	6078      	str	r0, [r7, #4]
 800500c:	2300      	movs	r3, #0
 800500e:	75fb      	strb	r3, [r7, #23]
 8005010:	2300      	movs	r3, #0
 8005012:	613b      	str	r3, [r7, #16]
 8005014:	2300      	movs	r3, #0
 8005016:	60bb      	str	r3, [r7, #8]
 8005018:	2300      	movs	r3, #0
 800501a:	60fb      	str	r3, [r7, #12]
 800501c:	687b      	ldr	r3, [r7, #4]
 800501e:	2b00      	cmp	r3, #0
 8005020:	d101      	bne.n	8005026 <HAL_ADC_Init+0x22>
 8005022:	2301      	movs	r3, #1
 8005024:	e0be      	b.n	80051a4 <HAL_ADC_Init+0x1a0>
 8005026:	687b      	ldr	r3, [r7, #4]
 8005028:	689b      	ldr	r3, [r3, #8]
 800502a:	2b00      	cmp	r3, #0
 800502c:	687b      	ldr	r3, [r7, #4]
 800502e:	6a9b      	ldr	r3, [r3, #40]	; 0x28
 8005030:	2b00      	cmp	r3, #0
 8005032:	d109      	bne.n	8005048 <HAL_ADC_Init+0x44>
 8005034:	687b      	ldr	r3, [r7, #4]
 8005036:	2200      	movs	r2, #0
 8005038:	62da      	str	r2, [r3, #44]	; 0x2c
 800503a:	687b      	ldr	r3, [r7, #4]
 800503c:	2200      	movs	r2, #0
 800503e:	f883 2024 	strb.w	r2, [r3, #36]	; 0x24
 8005042:	6878      	ldr	r0, [r7, #4]
 8005044:	f7ff fd06 	bl	8004a54 <HAL_ADC_MspInit>
 8005048:	6878      	ldr	r0, [r7, #4]
 800504a:	f000 fbc1 	bl	80057d0 <ADC_ConversionStop_Disable>
 800504e:	4603      	mov	r3, r0
 8005050:	75fb      	strb	r3, [r7, #23]
 8005052:	687b      	ldr	r3, [r7, #4]
 8005054:	6a9b      	ldr	r3, [r3, #40]	; 0x28
 8005056:	f003 0310 	and.w	r3, r3, #16
 800505a:	2b00      	cmp	r3, #0
 800505c:	f040 8099 	bne.w	8005192 <HAL_ADC_Init+0x18e>
 8005060:	7dfb      	ldrb	r3, [r7, #23]
 8005062:	2b00      	cmp	r3, #0
 8005064:	f040 8095 	bne.w	8005192 <HAL_ADC_Init+0x18e>
 8005068:	687b      	ldr	r3, [r7, #4]
 800506a:	6a9b      	ldr	r3, [r3, #40]	; 0x28
 800506c:	f423 5388 	bic.w	r3, r3, #4352	; 0x1100
 8005070:	f023 0302 	bic.w	r3, r3, #2
 8005074:	f043 0202 	orr.w	r2, r3, #2
 8005078:	687b      	ldr	r3, [r7, #4]
 800507a:	629a      	str	r2, [r3, #40]	; 0x28
 800507c:	687b      	ldr	r3, [r7, #4]
 800507e:	685a      	ldr	r2, [r3, #4]
 8005080:	687b      	ldr	r3, [r7, #4]
 8005082:	69db      	ldr	r3, [r3, #28]
 8005084:	431a      	orrs	r2, r3
 8005086:	687b      	ldr	r3, [r7, #4]
 8005088:	7b1b      	ldrb	r3, [r3, #12]
 800508a:	005b      	lsls	r3, r3, #1
 800508c:	4313      	orrs	r3, r2
 800508e:	68ba      	ldr	r2, [r7, #8]
 8005090:	4313      	orrs	r3, r2
 8005092:	60bb      	str	r3, [r7, #8]
 8005094:	687b      	ldr	r3, [r7, #4]
 8005096:	689b      	ldr	r3, [r3, #8]
 8005098:	f5b3 7f80 	cmp.w	r3, #256	; 0x100
 800509c:	d003      	beq.n	80050a6 <HAL_ADC_Init+0xa2>
 800509e:	687b      	ldr	r3, [r7, #4]
 80050a0:	689b      	ldr	r3, [r3, #8]
 80050a2:	2b01      	cmp	r3, #1
 80050a4:	d102      	bne.n	80050ac <HAL_ADC_Init+0xa8>
 80050a6:	f44f 7380 	mov.w	r3, #256	; 0x100
 80050aa:	e000      	b.n	80050ae <HAL_ADC_Init+0xaa>
 80050ac:	2300      	movs	r3, #0
 80050ae:	693a      	ldr	r2, [r7, #16]
 80050b0:	4313      	orrs	r3, r2
 80050b2:	613b      	str	r3, [r7, #16]
 80050b4:	687b      	ldr	r3, [r7, #4]
 80050b6:	7d1b      	ldrb	r3, [r3, #20]
 80050b8:	2b01      	cmp	r3, #1
 80050ba:	d119      	bne.n	80050f0 <HAL_ADC_Init+0xec>
 80050bc:	687b      	ldr	r3, [r7, #4]
 80050be:	7b1b      	ldrb	r3, [r3, #12]
 80050c0:	2b00      	cmp	r3, #0
 80050c2:	d109      	bne.n	80050d8 <HAL_ADC_Init+0xd4>
 80050c4:	687b      	ldr	r3, [r7, #4]
 80050c6:	699b      	ldr	r3, [r3, #24]
 80050c8:	3b01      	subs	r3, #1
 80050ca:	035a      	lsls	r2, r3, #13
 80050cc:	693b      	ldr	r3, [r7, #16]
 80050ce:	4313      	orrs	r3, r2
 80050d0:	f443 6300 	orr.w	r3, r3, #2048	; 0x800
 80050d4:	613b      	str	r3, [r7, #16]
 80050d6:	e00b      	b.n	80050f0 <HAL_ADC_Init+0xec>
 80050d8:	687b      	ldr	r3, [r7, #4]
 80050da:	6a9b      	ldr	r3, [r3, #40]	; 0x28
 80050dc:	f043 0220 	orr.w	r2, r3, #32
 80050e0:	687b      	ldr	r3, [r7, #4]
 80050e2:	629a      	str	r2, [r3, #40]	; 0x28
 80050e4:	687b      	ldr	r3, [r7, #4]
 80050e6:	6adb      	ldr	r3, [r3, #44]	; 0x2c
 80050e8:	f043 0201 	orr.w	r2, r3, #1
 80050ec:	687b      	ldr	r3, [r7, #4]
 80050ee:	62da      	str	r2, [r3, #44]	; 0x2c
 80050f0:	687b      	ldr	r3, [r7, #4]
 80050f2:	681b      	ldr	r3, [r3, #0]
 80050f4:	685b      	ldr	r3, [r3, #4]
 80050f6:	f423 4169 	bic.w	r1, r3, #59648	; 0xe900
 80050fa:	687b      	ldr	r3, [r7, #4]
 80050fc:	681b      	ldr	r3, [r3, #0]
 80050fe:	693a      	ldr	r2, [r7, #16]
 8005100:	430a      	orrs	r2, r1
 8005102:	605a      	str	r2, [r3, #4]
 8005104:	687b      	ldr	r3, [r7, #4]
 8005106:	681b      	ldr	r3, [r3, #0]
 8005108:	689a      	ldr	r2, [r3, #8]
 800510a:	4b28      	ldr	r3, [pc, #160]	; (80051ac <HAL_ADC_Init+0x1a8>)
 800510c:	4013      	ands	r3, r2
 800510e:	687a      	ldr	r2, [r7, #4]
 8005110:	6812      	ldr	r2, [r2, #0]
 8005112:	68b9      	ldr	r1, [r7, #8]
 8005114:	430b      	orrs	r3, r1
 8005116:	6093      	str	r3, [r2, #8]
 8005118:	687b      	ldr	r3, [r7, #4]
 800511a:	689b      	ldr	r3, [r3, #8]
 800511c:	f5b3 7f80 	cmp.w	r3, #256	; 0x100
 8005120:	d003      	beq.n	800512a <HAL_ADC_Init+0x126>
 8005122:	687b      	ldr	r3, [r7, #4]
 8005124:	689b      	ldr	r3, [r3, #8]
 8005126:	2b01      	cmp	r3, #1
 8005128:	d104      	bne.n	8005134 <HAL_ADC_Init+0x130>
 800512a:	687b      	ldr	r3, [r7, #4]
 800512c:	691b      	ldr	r3, [r3, #16]
 800512e:	3b01      	subs	r3, #1
 8005130:	051b      	lsls	r3, r3, #20
 8005132:	60fb      	str	r3, [r7, #12]
 8005134:	687b      	ldr	r3, [r7, #4]
 8005136:	681b      	ldr	r3, [r3, #0]
 8005138:	6adb      	ldr	r3, [r3, #44]	; 0x2c
 800513a:	f423 0170 	bic.w	r1, r3, #15728640	; 0xf00000
 800513e:	687b      	ldr	r3, [r7, #4]
 8005140:	681b      	ldr	r3, [r3, #0]
 8005142:	68fa      	ldr	r2, [r7, #12]
 8005144:	430a      	orrs	r2, r1
 8005146:	62da      	str	r2, [r3, #44]	; 0x2c
 8005148:	687b      	ldr	r3, [r7, #4]
 800514a:	681b      	ldr	r3, [r3, #0]
 800514c:	689a      	ldr	r2, [r3, #8]
 800514e:	4b18      	ldr	r3, [pc, #96]	; (80051b0 <HAL_ADC_Init+0x1ac>)
 8005150:	4013      	ands	r3, r2
 8005152:	68ba      	ldr	r2, [r7, #8]
 8005154:	429a      	cmp	r2, r3
 8005156:	d10b      	bne.n	8005170 <HAL_ADC_Init+0x16c>
 8005158:	687b      	ldr	r3, [r7, #4]
 800515a:	2200      	movs	r2, #0
 800515c:	62da      	str	r2, [r3, #44]	; 0x2c
 800515e:	687b      	ldr	r3, [r7, #4]
 8005160:	6a9b      	ldr	r3, [r3, #40]	; 0x28
 8005162:	f023 0303 	bic.w	r3, r3, #3
 8005166:	f043 0201 	orr.w	r2, r3, #1
 800516a:	687b      	ldr	r3, [r7, #4]
 800516c:	629a      	str	r2, [r3, #40]	; 0x28
 800516e:	e018      	b.n	80051a2 <HAL_ADC_Init+0x19e>
 8005170:	687b      	ldr	r3, [r7, #4]
 8005172:	6a9b      	ldr	r3, [r3, #40]	; 0x28
 8005174:	f023 0312 	bic.w	r3, r3, #18
 8005178:	f043 0210 	orr.w	r2, r3, #16
 800517c:	687b      	ldr	r3, [r7, #4]
 800517e:	629a      	str	r2, [r3, #40]	; 0x28
 8005180:	687b      	ldr	r3, [r7, #4]
 8005182:	6adb      	ldr	r3, [r3, #44]	; 0x2c
 8005184:	f043 0201 	orr.w	r2, r3, #1
 8005188:	687b      	ldr	r3, [r7, #4]
 800518a:	62da      	str	r2, [r3, #44]	; 0x2c
 800518c:	2301      	movs	r3, #1
 800518e:	75fb      	strb	r3, [r7, #23]
 8005190:	e007      	b.n	80051a2 <HAL_ADC_Init+0x19e>
 8005192:	687b      	ldr	r3, [r7, #4]
 8005194:	6a9b      	ldr	r3, [r3, #40]	; 0x28
 8005196:	f043 0210 	orr.w	r2, r3, #16
 800519a:	687b      	ldr	r3, [r7, #4]
 800519c:	629a      	str	r2, [r3, #40]	; 0x28
 800519e:	2301      	movs	r3, #1
 80051a0:	75fb      	strb	r3, [r7, #23]
 80051a2:	7dfb      	ldrb	r3, [r7, #23]
 80051a4:	4618      	mov	r0, r3
 80051a6:	3718      	adds	r7, #24
 80051a8:	46bd      	mov	sp, r7
 80051aa:	bd80      	pop	{r7, pc}
 80051ac:	ffe1f7fd 	.word	0xffe1f7fd
 80051b0:	ff1f0efe 	.word	0xff1f0efe

080051b4 <HAL_ADC_Start_DMA>:
 80051b4:	b580      	push	{r7, lr}
 80051b6:	b086      	sub	sp, #24
 80051b8:	af00      	add	r7, sp, #0
 80051ba:	60f8      	str	r0, [r7, #12]
 80051bc:	60b9      	str	r1, [r7, #8]
 80051be:	607a      	str	r2, [r7, #4]
 80051c0:	2300      	movs	r3, #0
 80051c2:	75fb      	strb	r3, [r7, #23]
 80051c4:	68fb      	ldr	r3, [r7, #12]
 80051c6:	681b      	ldr	r3, [r3, #0]
 80051c8:	4a64      	ldr	r2, [pc, #400]	; (800535c <HAL_ADC_Start_DMA+0x1a8>)
 80051ca:	4293      	cmp	r3, r2
 80051cc:	d004      	beq.n	80051d8 <HAL_ADC_Start_DMA+0x24>
 80051ce:	68fb      	ldr	r3, [r7, #12]
 80051d0:	681b      	ldr	r3, [r3, #0]
 80051d2:	4a63      	ldr	r2, [pc, #396]	; (8005360 <HAL_ADC_Start_DMA+0x1ac>)
 80051d4:	4293      	cmp	r3, r2
 80051d6:	d106      	bne.n	80051e6 <HAL_ADC_Start_DMA+0x32>
 80051d8:	4b60      	ldr	r3, [pc, #384]	; (800535c <HAL_ADC_Start_DMA+0x1a8>)
 80051da:	685b      	ldr	r3, [r3, #4]
 80051dc:	f403 2370 	and.w	r3, r3, #983040	; 0xf0000
 80051e0:	2b00      	cmp	r3, #0
 80051e2:	f040 80b3 	bne.w	800534c <HAL_ADC_Start_DMA+0x198>
 80051e6:	68fb      	ldr	r3, [r7, #12]
 80051e8:	f893 3024 	ldrb.w	r3, [r3, #36]	; 0x24
 80051ec:	2b01      	cmp	r3, #1
 80051ee:	d101      	bne.n	80051f4 <HAL_ADC_Start_DMA+0x40>
 80051f0:	2302      	movs	r3, #2
 80051f2:	e0ae      	b.n	8005352 <HAL_ADC_Start_DMA+0x19e>
 80051f4:	68fb      	ldr	r3, [r7, #12]
 80051f6:	2201      	movs	r2, #1
 80051f8:	f883 2024 	strb.w	r2, [r3, #36]	; 0x24
 80051fc:	68f8      	ldr	r0, [r7, #12]
 80051fe:	f000 fa8d 	bl	800571c <ADC_Enable>
 8005202:	4603      	mov	r3, r0
 8005204:	75fb      	strb	r3, [r7, #23]
 8005206:	7dfb      	ldrb	r3, [r7, #23]
 8005208:	2b00      	cmp	r3, #0
 800520a:	f040 809a 	bne.w	8005342 <HAL_ADC_Start_DMA+0x18e>
 800520e:	68fb      	ldr	r3, [r7, #12]
 8005210:	6a9b      	ldr	r3, [r3, #40]	; 0x28
 8005212:	f423 6370 	bic.w	r3, r3, #3840	; 0xf00
 8005216:	f023 0301 	bic.w	r3, r3, #1
 800521a:	f443 7280 	orr.w	r2, r3, #256	; 0x100
 800521e:	68fb      	ldr	r3, [r7, #12]
 8005220:	629a      	str	r2, [r3, #40]	; 0x28
 8005222:	68fb      	ldr	r3, [r7, #12]
 8005224:	681b      	ldr	r3, [r3, #0]
 8005226:	4a4e      	ldr	r2, [pc, #312]	; (8005360 <HAL_ADC_Start_DMA+0x1ac>)
 8005228:	4293      	cmp	r3, r2
 800522a:	d105      	bne.n	8005238 <HAL_ADC_Start_DMA+0x84>
 800522c:	4b4b      	ldr	r3, [pc, #300]	; (800535c <HAL_ADC_Start_DMA+0x1a8>)
 800522e:	685b      	ldr	r3, [r3, #4]
 8005230:	f403 2370 	and.w	r3, r3, #983040	; 0xf0000
 8005234:	2b00      	cmp	r3, #0
 8005236:	d115      	bne.n	8005264 <HAL_ADC_Start_DMA+0xb0>
 8005238:	68fb      	ldr	r3, [r7, #12]
 800523a:	6a9b      	ldr	r3, [r3, #40]	; 0x28
 800523c:	f423 1280 	bic.w	r2, r3, #1048576	; 0x100000
 8005240:	68fb      	ldr	r3, [r7, #12]
 8005242:	629a      	str	r2, [r3, #40]	; 0x28
 8005244:	68fb      	ldr	r3, [r7, #12]
 8005246:	681b      	ldr	r3, [r3, #0]
 8005248:	685b      	ldr	r3, [r3, #4]
 800524a:	f403 6380 	and.w	r3, r3, #1024	; 0x400
 800524e:	2b00      	cmp	r3, #0
 8005250:	d026      	beq.n	80052a0 <HAL_ADC_Start_DMA+0xec>
 8005252:	68fb      	ldr	r3, [r7, #12]
 8005254:	6a9b      	ldr	r3, [r3, #40]	; 0x28
 8005256:	f423 5340 	bic.w	r3, r3, #12288	; 0x3000
 800525a:	f443 5280 	orr.w	r2, r3, #4096	; 0x1000
 800525e:	68fb      	ldr	r3, [r7, #12]
 8005260:	629a      	str	r2, [r3, #40]	; 0x28
 8005262:	e01d      	b.n	80052a0 <HAL_ADC_Start_DMA+0xec>
 8005264:	68fb      	ldr	r3, [r7, #12]
 8005266:	6a9b      	ldr	r3, [r3, #40]	; 0x28
 8005268:	f443 1280 	orr.w	r2, r3, #1048576	; 0x100000
 800526c:	68fb      	ldr	r3, [r7, #12]
 800526e:	629a      	str	r2, [r3, #40]	; 0x28
 8005270:	68fb      	ldr	r3, [r7, #12]
 8005272:	681b      	ldr	r3, [r3, #0]
 8005274:	4a39      	ldr	r2, [pc, #228]	; (800535c <HAL_ADC_Start_DMA+0x1a8>)
 8005276:	4293      	cmp	r3, r2
 8005278:	d004      	beq.n	8005284 <HAL_ADC_Start_DMA+0xd0>
 800527a:	68fb      	ldr	r3, [r7, #12]
 800527c:	681b      	ldr	r3, [r3, #0]
 800527e:	4a38      	ldr	r2, [pc, #224]	; (8005360 <HAL_ADC_Start_DMA+0x1ac>)
 8005280:	4293      	cmp	r3, r2
 8005282:	d10d      	bne.n	80052a0 <HAL_ADC_Start_DMA+0xec>
 8005284:	4b35      	ldr	r3, [pc, #212]	; (800535c <HAL_ADC_Start_DMA+0x1a8>)
 8005286:	685b      	ldr	r3, [r3, #4]
 8005288:	f403 6380 	and.w	r3, r3, #1024	; 0x400
 800528c:	2b00      	cmp	r3, #0
 800528e:	d007      	beq.n	80052a0 <HAL_ADC_Start_DMA+0xec>
 8005290:	68fb      	ldr	r3, [r7, #12]
 8005292:	6a9b      	ldr	r3, [r3, #40]	; 0x28
 8005294:	f423 5340 	bic.w	r3, r3, #12288	; 0x3000
 8005298:	f443 5280 	orr.w	r2, r3, #4096	; 0x1000
 800529c:	68fb      	ldr	r3, [r7, #12]
 800529e:	629a      	str	r2, [r3, #40]	; 0x28
 80052a0:	68fb      	ldr	r3, [r7, #12]
 80052a2:	6a9b      	ldr	r3, [r3, #40]	; 0x28
 80052a4:	f403 5380 	and.w	r3, r3, #4096	; 0x1000
 80052a8:	2b00      	cmp	r3, #0
 80052aa:	d006      	beq.n	80052ba <HAL_ADC_Start_DMA+0x106>
 80052ac:	68fb      	ldr	r3, [r7, #12]
 80052ae:	6adb      	ldr	r3, [r3, #44]	; 0x2c
 80052b0:	f023 0206 	bic.w	r2, r3, #6
 80052b4:	68fb      	ldr	r3, [r7, #12]
 80052b6:	62da      	str	r2, [r3, #44]	; 0x2c
 80052b8:	e002      	b.n	80052c0 <HAL_ADC_Start_DMA+0x10c>
 80052ba:	68fb      	ldr	r3, [r7, #12]
 80052bc:	2200      	movs	r2, #0
 80052be:	62da      	str	r2, [r3, #44]	; 0x2c
 80052c0:	68fb      	ldr	r3, [r7, #12]
 80052c2:	2200      	movs	r2, #0
 80052c4:	f883 2024 	strb.w	r2, [r3, #36]	; 0x24
 80052c8:	68fb      	ldr	r3, [r7, #12]
 80052ca:	6a1b      	ldr	r3, [r3, #32]
 80052cc:	4a25      	ldr	r2, [pc, #148]	; (8005364 <HAL_ADC_Start_DMA+0x1b0>)
 80052ce:	629a      	str	r2, [r3, #40]	; 0x28
 80052d0:	68fb      	ldr	r3, [r7, #12]
 80052d2:	6a1b      	ldr	r3, [r3, #32]
 80052d4:	4a24      	ldr	r2, [pc, #144]	; (8005368 <HAL_ADC_Start_DMA+0x1b4>)
 80052d6:	62da      	str	r2, [r3, #44]	; 0x2c
 80052d8:	68fb      	ldr	r3, [r7, #12]
 80052da:	6a1b      	ldr	r3, [r3, #32]
 80052dc:	4a23      	ldr	r2, [pc, #140]	; (800536c <HAL_ADC_Start_DMA+0x1b8>)
 80052de:	631a      	str	r2, [r3, #48]	; 0x30
 80052e0:	68fb      	ldr	r3, [r7, #12]
 80052e2:	681b      	ldr	r3, [r3, #0]
 80052e4:	f06f 0202 	mvn.w	r2, #2
 80052e8:	601a      	str	r2, [r3, #0]
 80052ea:	68fb      	ldr	r3, [r7, #12]
 80052ec:	681b      	ldr	r3, [r3, #0]
 80052ee:	689a      	ldr	r2, [r3, #8]
 80052f0:	68fb      	ldr	r3, [r7, #12]
 80052f2:	681b      	ldr	r3, [r3, #0]
 80052f4:	f442 7280 	orr.w	r2, r2, #256	; 0x100
 80052f8:	609a      	str	r2, [r3, #8]
 80052fa:	68fb      	ldr	r3, [r7, #12]
 80052fc:	6a18      	ldr	r0, [r3, #32]
 80052fe:	68fb      	ldr	r3, [r7, #12]
 8005300:	681b      	ldr	r3, [r3, #0]
 8005302:	334c      	adds	r3, #76	; 0x4c
 8005304:	4619      	mov	r1, r3
 8005306:	68ba      	ldr	r2, [r7, #8]
 8005308:	687b      	ldr	r3, [r7, #4]
 800530a:	f000 fc79 	bl	8005c00 <HAL_DMA_Start_IT>
 800530e:	68fb      	ldr	r3, [r7, #12]
 8005310:	681b      	ldr	r3, [r3, #0]
 8005312:	689b      	ldr	r3, [r3, #8]
 8005314:	f403 2360 	and.w	r3, r3, #917504	; 0xe0000
 8005318:	f5b3 2f60 	cmp.w	r3, #917504	; 0xe0000
 800531c:	d108      	bne.n	8005330 <HAL_ADC_Start_DMA+0x17c>
 800531e:	68fb      	ldr	r3, [r7, #12]
 8005320:	681b      	ldr	r3, [r3, #0]
 8005322:	689a      	ldr	r2, [r3, #8]
 8005324:	68fb      	ldr	r3, [r7, #12]
 8005326:	681b      	ldr	r3, [r3, #0]
 8005328:	f442 02a0 	orr.w	r2, r2, #5242880	; 0x500000
 800532c:	609a      	str	r2, [r3, #8]
 800532e:	e00f      	b.n	8005350 <HAL_ADC_Start_DMA+0x19c>
 8005330:	68fb      	ldr	r3, [r7, #12]
 8005332:	681b      	ldr	r3, [r3, #0]
 8005334:	689a      	ldr	r2, [r3, #8]
 8005336:	68fb      	ldr	r3, [r7, #12]
 8005338:	681b      	ldr	r3, [r3, #0]
 800533a:	f442 1280 	orr.w	r2, r2, #1048576	; 0x100000
 800533e:	609a      	str	r2, [r3, #8]
 8005340:	e006      	b.n	8005350 <HAL_ADC_Start_DMA+0x19c>
 8005342:	68fb      	ldr	r3, [r7, #12]
 8005344:	2200      	movs	r2, #0
 8005346:	f883 2024 	strb.w	r2, [r3, #36]	; 0x24
 800534a:	e001      	b.n	8005350 <HAL_ADC_Start_DMA+0x19c>
 800534c:	2301      	movs	r3, #1
 800534e:	75fb      	strb	r3, [r7, #23]
 8005350:	7dfb      	ldrb	r3, [r7, #23]
 8005352:	4618      	mov	r0, r3
 8005354:	3718      	adds	r7, #24
 8005356:	46bd      	mov	sp, r7
 8005358:	bd80      	pop	{r7, pc}
 800535a:	bf00      	nop
 800535c:	40012400 	.word	0x40012400
 8005360:	40012800 	.word	0x40012800
 8005364:	08005853 	.word	0x08005853
 8005368:	080058cf 	.word	0x080058cf
 800536c:	080058eb 	.word	0x080058eb

08005370 <HAL_ADC_IRQHandler>:
 8005370:	b580      	push	{r7, lr}
 8005372:	b082      	sub	sp, #8
 8005374:	af00      	add	r7, sp, #0
 8005376:	6078      	str	r0, [r7, #4]
 8005378:	687b      	ldr	r3, [r7, #4]
 800537a:	681b      	ldr	r3, [r3, #0]
 800537c:	685b      	ldr	r3, [r3, #4]
 800537e:	f003 0320 	and.w	r3, r3, #32
 8005382:	2b20      	cmp	r3, #32
 8005384:	d140      	bne.n	8005408 <HAL_ADC_IRQHandler+0x98>
 8005386:	687b      	ldr	r3, [r7, #4]
 8005388:	681b      	ldr	r3, [r3, #0]
 800538a:	681b      	ldr	r3, [r3, #0]
 800538c:	f003 0302 	and.w	r3, r3, #2
 8005390:	2b02      	cmp	r3, #2
 8005392:	d139      	bne.n	8005408 <HAL_ADC_IRQHandler+0x98>
 8005394:	687b      	ldr	r3, [r7, #4]
 8005396:	6a9b      	ldr	r3, [r3, #40]	; 0x28
 8005398:	f003 0310 	and.w	r3, r3, #16
 800539c:	2b00      	cmp	r3, #0
 800539e:	d105      	bne.n	80053ac <HAL_ADC_IRQHandler+0x3c>
 80053a0:	687b      	ldr	r3, [r7, #4]
 80053a2:	6a9b      	ldr	r3, [r3, #40]	; 0x28
 80053a4:	f443 7200 	orr.w	r2, r3, #512	; 0x200
 80053a8:	687b      	ldr	r3, [r7, #4]
 80053aa:	629a      	str	r2, [r3, #40]	; 0x28
 80053ac:	687b      	ldr	r3, [r7, #4]
 80053ae:	681b      	ldr	r3, [r3, #0]
 80053b0:	689b      	ldr	r3, [r3, #8]
 80053b2:	f403 2360 	and.w	r3, r3, #917504	; 0xe0000
 80053b6:	f5b3 2f60 	cmp.w	r3, #917504	; 0xe0000
 80053ba:	d11d      	bne.n	80053f8 <HAL_ADC_IRQHandler+0x88>
 80053bc:	687b      	ldr	r3, [r7, #4]
 80053be:	7b1b      	ldrb	r3, [r3, #12]
 80053c0:	2b00      	cmp	r3, #0
 80053c2:	d119      	bne.n	80053f8 <HAL_ADC_IRQHandler+0x88>
 80053c4:	687b      	ldr	r3, [r7, #4]
 80053c6:	681b      	ldr	r3, [r3, #0]
 80053c8:	685a      	ldr	r2, [r3, #4]
 80053ca:	687b      	ldr	r3, [r7, #4]
 80053cc:	681b      	ldr	r3, [r3, #0]
 80053ce:	f022 0220 	bic.w	r2, r2, #32
 80053d2:	605a      	str	r2, [r3, #4]
 80053d4:	687b      	ldr	r3, [r7, #4]
 80053d6:	6a9b      	ldr	r3, [r3, #40]	; 0x28
 80053d8:	f423 7280 	bic.w	r2, r3, #256	; 0x100
 80053dc:	687b      	ldr	r3, [r7, #4]
 80053de:	629a      	str	r2, [r3, #40]	; 0x28
 80053e0:	687b      	ldr	r3, [r7, #4]
 80053e2:	6a9b      	ldr	r3, [r3, #40]	; 0x28
 80053e4:	f403 5380 	and.w	r3, r3, #4096	; 0x1000
 80053e8:	2b00      	cmp	r3, #0
 80053ea:	d105      	bne.n	80053f8 <HAL_ADC_IRQHandler+0x88>
 80053ec:	687b      	ldr	r3, [r7, #4]
 80053ee:	6a9b      	ldr	r3, [r3, #40]	; 0x28
 80053f0:	f043 0201 	orr.w	r2, r3, #1
 80053f4:	687b      	ldr	r3, [r7, #4]
 80053f6:	629a      	str	r2, [r3, #40]	; 0x28
 80053f8:	6878      	ldr	r0, [r7, #4]
 80053fa:	f7fe f9c1 	bl	8003780 <HAL_ADC_ConvCpltCallback>
 80053fe:	687b      	ldr	r3, [r7, #4]
 8005400:	681b      	ldr	r3, [r3, #0]
 8005402:	f06f 0212 	mvn.w	r2, #18
 8005406:	601a      	str	r2, [r3, #0]
 8005408:	687b      	ldr	r3, [r7, #4]
 800540a:	681b      	ldr	r3, [r3, #0]
 800540c:	685b      	ldr	r3, [r3, #4]
 800540e:	f003 0380 	and.w	r3, r3, #128	; 0x80
 8005412:	2b80      	cmp	r3, #128	; 0x80
 8005414:	d14f      	bne.n	80054b6 <HAL_ADC_IRQHandler+0x146>
 8005416:	687b      	ldr	r3, [r7, #4]
 8005418:	681b      	ldr	r3, [r3, #0]
 800541a:	681b      	ldr	r3, [r3, #0]
 800541c:	f003 0304 	and.w	r3, r3, #4
 8005420:	2b04      	cmp	r3, #4
 8005422:	d148      	bne.n	80054b6 <HAL_ADC_IRQHandler+0x146>
 8005424:	687b      	ldr	r3, [r7, #4]
 8005426:	6a9b      	ldr	r3, [r3, #40]	; 0x28
 8005428:	f003 0310 	and.w	r3, r3, #16
 800542c:	2b00      	cmp	r3, #0
 800542e:	d105      	bne.n	800543c <HAL_ADC_IRQHandler+0xcc>
 8005430:	687b      	ldr	r3, [r7, #4]
 8005432:	6a9b      	ldr	r3, [r3, #40]	; 0x28
 8005434:	f443 5200 	orr.w	r2, r3, #8192	; 0x2000
 8005438:	687b      	ldr	r3, [r7, #4]
 800543a:	629a      	str	r2, [r3, #40]	; 0x28
 800543c:	687b      	ldr	r3, [r7, #4]
 800543e:	681b      	ldr	r3, [r3, #0]
 8005440:	689b      	ldr	r3, [r3, #8]
 8005442:	f403 43e0 	and.w	r3, r3, #28672	; 0x7000
 8005446:	f5b3 4fe0 	cmp.w	r3, #28672	; 0x7000
 800544a:	d012      	beq.n	8005472 <HAL_ADC_IRQHandler+0x102>
 800544c:	687b      	ldr	r3, [r7, #4]
 800544e:	681b      	ldr	r3, [r3, #0]
 8005450:	685b      	ldr	r3, [r3, #4]
 8005452:	f403 6380 	and.w	r3, r3, #1024	; 0x400
 8005456:	2b00      	cmp	r3, #0
 8005458:	d125      	bne.n	80054a6 <HAL_ADC_IRQHandler+0x136>
 800545a:	687b      	ldr	r3, [r7, #4]
 800545c:	681b      	ldr	r3, [r3, #0]
 800545e:	689b      	ldr	r3, [r3, #8]
 8005460:	f403 2360 	and.w	r3, r3, #917504	; 0xe0000
 8005464:	f5b3 2f60 	cmp.w	r3, #917504	; 0xe0000
 8005468:	d11d      	bne.n	80054a6 <HAL_ADC_IRQHandler+0x136>
 800546a:	687b      	ldr	r3, [r7, #4]
 800546c:	7b1b      	ldrb	r3, [r3, #12]
 800546e:	2b00      	cmp	r3, #0
 8005470:	d119      	bne.n	80054a6 <HAL_ADC_IRQHandler+0x136>
 8005472:	687b      	ldr	r3, [r7, #4]
 8005474:	681b      	ldr	r3, [r3, #0]
 8005476:	685a      	ldr	r2, [r3, #4]
 8005478:	687b      	ldr	r3, [r7, #4]
 800547a:	681b      	ldr	r3, [r3, #0]
 800547c:	f022 0280 	bic.w	r2, r2, #128	; 0x80
 8005480:	605a      	str	r2, [r3, #4]
 8005482:	687b      	ldr	r3, [r7, #4]
 8005484:	6a9b      	ldr	r3, [r3, #40]	; 0x28
 8005486:	f423 5280 	bic.w	r2, r3, #4096	; 0x1000
 800548a:	687b      	ldr	r3, [r7, #4]
 800548c:	629a      	str	r2, [r3, #40]	; 0x28
 800548e:	687b      	ldr	r3, [r7, #4]
 8005490:	6a9b      	ldr	r3, [r3, #40]	; 0x28
 8005492:	f403 7380 	and.w	r3, r3, #256	; 0x100
 8005496:	2b00      	cmp	r3, #0
 8005498:	d105      	bne.n	80054a6 <HAL_ADC_IRQHandler+0x136>
 800549a:	687b      	ldr	r3, [r7, #4]
 800549c:	6a9b      	ldr	r3, [r3, #40]	; 0x28
 800549e:	f043 0201 	orr.w	r2, r3, #1
 80054a2:	687b      	ldr	r3, [r7, #4]
 80054a4:	629a      	str	r2, [r3, #40]	; 0x28
 80054a6:	6878      	ldr	r0, [r7, #4]
 80054a8:	f000 fa39 	bl	800591e <HAL_ADCEx_InjectedConvCpltCallback>
 80054ac:	687b      	ldr	r3, [r7, #4]
 80054ae:	681b      	ldr	r3, [r3, #0]
 80054b0:	f06f 020c 	mvn.w	r2, #12
 80054b4:	601a      	str	r2, [r3, #0]
 80054b6:	687b      	ldr	r3, [r7, #4]
 80054b8:	681b      	ldr	r3, [r3, #0]
 80054ba:	685b      	ldr	r3, [r3, #4]
 80054bc:	f003 0340 	and.w	r3, r3, #64	; 0x40
 80054c0:	2b40      	cmp	r3, #64	; 0x40
 80054c2:	d114      	bne.n	80054ee <HAL_ADC_IRQHandler+0x17e>
 80054c4:	687b      	ldr	r3, [r7, #4]
 80054c6:	681b      	ldr	r3, [r3, #0]
 80054c8:	681b      	ldr	r3, [r3, #0]
 80054ca:	f003 0301 	and.w	r3, r3, #1
 80054ce:	2b01      	cmp	r3, #1
 80054d0:	d10d      	bne.n	80054ee <HAL_ADC_IRQHandler+0x17e>
 80054d2:	687b      	ldr	r3, [r7, #4]
 80054d4:	6a9b      	ldr	r3, [r3, #40]	; 0x28
 80054d6:	f443 3280 	orr.w	r2, r3, #65536	; 0x10000
 80054da:	687b      	ldr	r3, [r7, #4]
 80054dc:	629a      	str	r2, [r3, #40]	; 0x28
 80054de:	6878      	ldr	r0, [r7, #4]
 80054e0:	f000 f812 	bl	8005508 <HAL_ADC_LevelOutOfWindowCallback>
 80054e4:	687b      	ldr	r3, [r7, #4]
 80054e6:	681b      	ldr	r3, [r3, #0]
 80054e8:	f06f 0201 	mvn.w	r2, #1
 80054ec:	601a      	str	r2, [r3, #0]
 80054ee:	bf00      	nop
 80054f0:	3708      	adds	r7, #8
 80054f2:	46bd      	mov	sp, r7
 80054f4:	bd80      	pop	{r7, pc}

080054f6 <HAL_ADC_ConvHalfCpltCallback>:
 80054f6:	b480      	push	{r7}
 80054f8:	b083      	sub	sp, #12
 80054fa:	af00      	add	r7, sp, #0
 80054fc:	6078      	str	r0, [r7, #4]
 80054fe:	bf00      	nop
 8005500:	370c      	adds	r7, #12
 8005502:	46bd      	mov	sp, r7
 8005504:	bc80      	pop	{r7}
 8005506:	4770      	bx	lr

08005508 <HAL_ADC_LevelOutOfWindowCallback>:
 8005508:	b480      	push	{r7}
 800550a:	b083      	sub	sp, #12
 800550c:	af00      	add	r7, sp, #0
 800550e:	6078      	str	r0, [r7, #4]
 8005510:	bf00      	nop
 8005512:	370c      	adds	r7, #12
 8005514:	46bd      	mov	sp, r7
 8005516:	bc80      	pop	{r7}
 8005518:	4770      	bx	lr

0800551a <HAL_ADC_ErrorCallback>:
 800551a:	b480      	push	{r7}
 800551c:	b083      	sub	sp, #12
 800551e:	af00      	add	r7, sp, #0
 8005520:	6078      	str	r0, [r7, #4]
 8005522:	bf00      	nop
 8005524:	370c      	adds	r7, #12
 8005526:	46bd      	mov	sp, r7
 8005528:	bc80      	pop	{r7}
 800552a:	4770      	bx	lr

0800552c <HAL_ADC_ConfigChannel>:
 800552c:	b480      	push	{r7}
 800552e:	b085      	sub	sp, #20
 8005530:	af00      	add	r7, sp, #0
 8005532:	6078      	str	r0, [r7, #4]
 8005534:	6039      	str	r1, [r7, #0]
 8005536:	2300      	movs	r3, #0
 8005538:	73fb      	strb	r3, [r7, #15]
 800553a:	2300      	movs	r3, #0
 800553c:	60bb      	str	r3, [r7, #8]
 800553e:	687b      	ldr	r3, [r7, #4]
 8005540:	f893 3024 	ldrb.w	r3, [r3, #36]	; 0x24
 8005544:	2b01      	cmp	r3, #1
 8005546:	d101      	bne.n	800554c <HAL_ADC_ConfigChannel+0x20>
 8005548:	2302      	movs	r3, #2
 800554a:	e0dc      	b.n	8005706 <HAL_ADC_ConfigChannel+0x1da>
 800554c:	687b      	ldr	r3, [r7, #4]
 800554e:	2201      	movs	r2, #1
 8005550:	f883 2024 	strb.w	r2, [r3, #36]	; 0x24
 8005554:	683b      	ldr	r3, [r7, #0]
 8005556:	685b      	ldr	r3, [r3, #4]
 8005558:	2b06      	cmp	r3, #6
 800555a:	d81c      	bhi.n	8005596 <HAL_ADC_ConfigChannel+0x6a>
 800555c:	687b      	ldr	r3, [r7, #4]
 800555e:	681b      	ldr	r3, [r3, #0]
 8005560:	6b59      	ldr	r1, [r3, #52]	; 0x34
 8005562:	683b      	ldr	r3, [r7, #0]
 8005564:	685a      	ldr	r2, [r3, #4]
 8005566:	4613      	mov	r3, r2
 8005568:	009b      	lsls	r3, r3, #2
 800556a:	4413      	add	r3, r2
 800556c:	3b05      	subs	r3, #5
 800556e:	221f      	movs	r2, #31
 8005570:	fa02 f303 	lsl.w	r3, r2, r3
 8005574:	43db      	mvns	r3, r3
 8005576:	4019      	ands	r1, r3
 8005578:	683b      	ldr	r3, [r7, #0]
 800557a:	6818      	ldr	r0, [r3, #0]
 800557c:	683b      	ldr	r3, [r7, #0]
 800557e:	685a      	ldr	r2, [r3, #4]
 8005580:	4613      	mov	r3, r2
 8005582:	009b      	lsls	r3, r3, #2
 8005584:	4413      	add	r3, r2
 8005586:	3b05      	subs	r3, #5
 8005588:	fa00 f203 	lsl.w	r2, r0, r3
 800558c:	687b      	ldr	r3, [r7, #4]
 800558e:	681b      	ldr	r3, [r3, #0]
 8005590:	430a      	orrs	r2, r1
 8005592:	635a      	str	r2, [r3, #52]	; 0x34
 8005594:	e03c      	b.n	8005610 <HAL_ADC_ConfigChannel+0xe4>
 8005596:	683b      	ldr	r3, [r7, #0]
 8005598:	685b      	ldr	r3, [r3, #4]
 800559a:	2b0c      	cmp	r3, #12
 800559c:	d81c      	bhi.n	80055d8 <HAL_ADC_ConfigChannel+0xac>
 800559e:	687b      	ldr	r3, [r7, #4]
 80055a0:	681b      	ldr	r3, [r3, #0]
 80055a2:	6b19      	ldr	r1, [r3, #48]	; 0x30
 80055a4:	683b      	ldr	r3, [r7, #0]
 80055a6:	685a      	ldr	r2, [r3, #4]
 80055a8:	4613      	mov	r3, r2
 80055aa:	009b      	lsls	r3, r3, #2
 80055ac:	4413      	add	r3, r2
 80055ae:	3b23      	subs	r3, #35	; 0x23
 80055b0:	221f      	movs	r2, #31
 80055b2:	fa02 f303 	lsl.w	r3, r2, r3
 80055b6:	43db      	mvns	r3, r3
 80055b8:	4019      	ands	r1, r3
 80055ba:	683b      	ldr	r3, [r7, #0]
 80055bc:	6818      	ldr	r0, [r3, #0]
 80055be:	683b      	ldr	r3, [r7, #0]
 80055c0:	685a      	ldr	r2, [r3, #4]
 80055c2:	4613      	mov	r3, r2
 80055c4:	009b      	lsls	r3, r3, #2
 80055c6:	4413      	add	r3, r2
 80055c8:	3b23      	subs	r3, #35	; 0x23
 80055ca:	fa00 f203 	lsl.w	r2, r0, r3
 80055ce:	687b      	ldr	r3, [r7, #4]
 80055d0:	681b      	ldr	r3, [r3, #0]
 80055d2:	430a      	orrs	r2, r1
 80055d4:	631a      	str	r2, [r3, #48]	; 0x30
 80055d6:	e01b      	b.n	8005610 <HAL_ADC_ConfigChannel+0xe4>
 80055d8:	687b      	ldr	r3, [r7, #4]
 80055da:	681b      	ldr	r3, [r3, #0]
 80055dc:	6ad9      	ldr	r1, [r3, #44]	; 0x2c
 80055de:	683b      	ldr	r3, [r7, #0]
 80055e0:	685a      	ldr	r2, [r3, #4]
 80055e2:	4613      	mov	r3, r2
 80055e4:	009b      	lsls	r3, r3, #2
 80055e6:	4413      	add	r3, r2
 80055e8:	3b41      	subs	r3, #65	; 0x41
 80055ea:	221f      	movs	r2, #31
 80055ec:	fa02 f303 	lsl.w	r3, r2, r3
 80055f0:	43db      	mvns	r3, r3
 80055f2:	4019      	ands	r1, r3
 80055f4:	683b      	ldr	r3, [r7, #0]
 80055f6:	6818      	ldr	r0, [r3, #0]
 80055f8:	683b      	ldr	r3, [r7, #0]
 80055fa:	685a      	ldr	r2, [r3, #4]
 80055fc:	4613      	mov	r3, r2
 80055fe:	009b      	lsls	r3, r3, #2
 8005600:	4413      	add	r3, r2
 8005602:	3b41      	subs	r3, #65	; 0x41
 8005604:	fa00 f203 	lsl.w	r2, r0, r3
 8005608:	687b      	ldr	r3, [r7, #4]
 800560a:	681b      	ldr	r3, [r3, #0]
 800560c:	430a      	orrs	r2, r1
 800560e:	62da      	str	r2, [r3, #44]	; 0x2c
 8005610:	683b      	ldr	r3, [r7, #0]
 8005612:	681b      	ldr	r3, [r3, #0]
 8005614:	2b09      	cmp	r3, #9
 8005616:	d91c      	bls.n	8005652 <HAL_ADC_ConfigChannel+0x126>
 8005618:	687b      	ldr	r3, [r7, #4]
 800561a:	681b      	ldr	r3, [r3, #0]
 800561c:	68d9      	ldr	r1, [r3, #12]
 800561e:	683b      	ldr	r3, [r7, #0]
 8005620:	681a      	ldr	r2, [r3, #0]
 8005622:	4613      	mov	r3, r2
 8005624:	005b      	lsls	r3, r3, #1
 8005626:	4413      	add	r3, r2
 8005628:	3b1e      	subs	r3, #30
 800562a:	2207      	movs	r2, #7
 800562c:	fa02 f303 	lsl.w	r3, r2, r3
 8005630:	43db      	mvns	r3, r3
 8005632:	4019      	ands	r1, r3
 8005634:	683b      	ldr	r3, [r7, #0]
 8005636:	6898      	ldr	r0, [r3, #8]
 8005638:	683b      	ldr	r3, [r7, #0]
 800563a:	681a      	ldr	r2, [r3, #0]
 800563c:	4613      	mov	r3, r2
 800563e:	005b      	lsls	r3, r3, #1
 8005640:	4413      	add	r3, r2
 8005642:	3b1e      	subs	r3, #30
 8005644:	fa00 f203 	lsl.w	r2, r0, r3
 8005648:	687b      	ldr	r3, [r7, #4]
 800564a:	681b      	ldr	r3, [r3, #0]
 800564c:	430a      	orrs	r2, r1
 800564e:	60da      	str	r2, [r3, #12]
 8005650:	e019      	b.n	8005686 <HAL_ADC_ConfigChannel+0x15a>
 8005652:	687b      	ldr	r3, [r7, #4]
 8005654:	681b      	ldr	r3, [r3, #0]
 8005656:	6919      	ldr	r1, [r3, #16]
 8005658:	683b      	ldr	r3, [r7, #0]
 800565a:	681a      	ldr	r2, [r3, #0]
 800565c:	4613      	mov	r3, r2
 800565e:	005b      	lsls	r3, r3, #1
 8005660:	4413      	add	r3, r2
 8005662:	2207      	movs	r2, #7
 8005664:	fa02 f303 	lsl.w	r3, r2, r3
 8005668:	43db      	mvns	r3, r3
 800566a:	4019      	ands	r1, r3
 800566c:	683b      	ldr	r3, [r7, #0]
 800566e:	6898      	ldr	r0, [r3, #8]
 8005670:	683b      	ldr	r3, [r7, #0]
 8005672:	681a      	ldr	r2, [r3, #0]
 8005674:	4613      	mov	r3, r2
 8005676:	005b      	lsls	r3, r3, #1
 8005678:	4413      	add	r3, r2
 800567a:	fa00 f203 	lsl.w	r2, r0, r3
 800567e:	687b      	ldr	r3, [r7, #4]
 8005680:	681b      	ldr	r3, [r3, #0]
 8005682:	430a      	orrs	r2, r1
 8005684:	611a      	str	r2, [r3, #16]
 8005686:	683b      	ldr	r3, [r7, #0]
 8005688:	681b      	ldr	r3, [r3, #0]
 800568a:	2b10      	cmp	r3, #16
 800568c:	d003      	beq.n	8005696 <HAL_ADC_ConfigChannel+0x16a>
 800568e:	683b      	ldr	r3, [r7, #0]
 8005690:	681b      	ldr	r3, [r3, #0]
 8005692:	2b11      	cmp	r3, #17
 8005694:	d132      	bne.n	80056fc <HAL_ADC_ConfigChannel+0x1d0>
 8005696:	687b      	ldr	r3, [r7, #4]
 8005698:	681b      	ldr	r3, [r3, #0]
 800569a:	4a1d      	ldr	r2, [pc, #116]	; (8005710 <HAL_ADC_ConfigChannel+0x1e4>)
 800569c:	4293      	cmp	r3, r2
 800569e:	d125      	bne.n	80056ec <HAL_ADC_ConfigChannel+0x1c0>
 80056a0:	687b      	ldr	r3, [r7, #4]
 80056a2:	681b      	ldr	r3, [r3, #0]
 80056a4:	689b      	ldr	r3, [r3, #8]
 80056a6:	f403 0300 	and.w	r3, r3, #8388608	; 0x800000
 80056aa:	2b00      	cmp	r3, #0
 80056ac:	d126      	bne.n	80056fc <HAL_ADC_ConfigChannel+0x1d0>
 80056ae:	687b      	ldr	r3, [r7, #4]
 80056b0:	681b      	ldr	r3, [r3, #0]
 80056b2:	689a      	ldr	r2, [r3, #8]
 80056b4:	687b      	ldr	r3, [r7, #4]
 80056b6:	681b      	ldr	r3, [r3, #0]
 80056b8:	f442 0200 	orr.w	r2, r2, #8388608	; 0x800000
 80056bc:	609a      	str	r2, [r3, #8]
 80056be:	683b      	ldr	r3, [r7, #0]
 80056c0:	681b      	ldr	r3, [r3, #0]
 80056c2:	2b10      	cmp	r3, #16
 80056c4:	d11a      	bne.n	80056fc <HAL_ADC_ConfigChannel+0x1d0>
 80056c6:	4b13      	ldr	r3, [pc, #76]	; (8005714 <HAL_ADC_ConfigChannel+0x1e8>)
 80056c8:	681b      	ldr	r3, [r3, #0]
 80056ca:	4a13      	ldr	r2, [pc, #76]	; (8005718 <HAL_ADC_ConfigChannel+0x1ec>)
 80056cc:	fba2 2303 	umull	r2, r3, r2, r3
 80056d0:	0c9a      	lsrs	r2, r3, #18
 80056d2:	4613      	mov	r3, r2
 80056d4:	009b      	lsls	r3, r3, #2
 80056d6:	4413      	add	r3, r2
 80056d8:	005b      	lsls	r3, r3, #1
 80056da:	60bb      	str	r3, [r7, #8]
 80056dc:	e002      	b.n	80056e4 <HAL_ADC_ConfigChannel+0x1b8>
 80056de:	68bb      	ldr	r3, [r7, #8]
 80056e0:	3b01      	subs	r3, #1
 80056e2:	60bb      	str	r3, [r7, #8]
 80056e4:	68bb      	ldr	r3, [r7, #8]
 80056e6:	2b00      	cmp	r3, #0
 80056e8:	d1f9      	bne.n	80056de <HAL_ADC_ConfigChannel+0x1b2>
 80056ea:	e007      	b.n	80056fc <HAL_ADC_ConfigChannel+0x1d0>
 80056ec:	687b      	ldr	r3, [r7, #4]
 80056ee:	6a9b      	ldr	r3, [r3, #40]	; 0x28
 80056f0:	f043 0220 	orr.w	r2, r3, #32
 80056f4:	687b      	ldr	r3, [r7, #4]
 80056f6:	629a      	str	r2, [r3, #40]	; 0x28
 80056f8:	2301      	movs	r3, #1
 80056fa:	73fb      	strb	r3, [r7, #15]
 80056fc:	687b      	ldr	r3, [r7, #4]
 80056fe:	2200      	movs	r2, #0
 8005700:	f883 2024 	strb.w	r2, [r3, #36]	; 0x24
 8005704:	7bfb      	ldrb	r3, [r7, #15]
 8005706:	4618      	mov	r0, r3
 8005708:	3714      	adds	r7, #20
 800570a:	46bd      	mov	sp, r7
 800570c:	bc80      	pop	{r7}
 800570e:	4770      	bx	lr
 8005710:	40012400 	.word	0x40012400
 8005714:	2000047c 	.word	0x2000047c
 8005718:	431bde83 	.word	0x431bde83

0800571c <ADC_Enable>:
 800571c:	b580      	push	{r7, lr}
 800571e:	b084      	sub	sp, #16
 8005720:	af00      	add	r7, sp, #0
 8005722:	6078      	str	r0, [r7, #4]
 8005724:	2300      	movs	r3, #0
 8005726:	60fb      	str	r3, [r7, #12]
 8005728:	2300      	movs	r3, #0
 800572a:	60bb      	str	r3, [r7, #8]
 800572c:	687b      	ldr	r3, [r7, #4]
 800572e:	681b      	ldr	r3, [r3, #0]
 8005730:	689b      	ldr	r3, [r3, #8]
 8005732:	f003 0301 	and.w	r3, r3, #1
 8005736:	2b01      	cmp	r3, #1
 8005738:	d040      	beq.n	80057bc <ADC_Enable+0xa0>
 800573a:	687b      	ldr	r3, [r7, #4]
 800573c:	681b      	ldr	r3, [r3, #0]
 800573e:	689a      	ldr	r2, [r3, #8]
 8005740:	687b      	ldr	r3, [r7, #4]
 8005742:	681b      	ldr	r3, [r3, #0]
 8005744:	f042 0201 	orr.w	r2, r2, #1
 8005748:	609a      	str	r2, [r3, #8]
 800574a:	4b1f      	ldr	r3, [pc, #124]	; (80057c8 <ADC_Enable+0xac>)
 800574c:	681b      	ldr	r3, [r3, #0]
 800574e:	4a1f      	ldr	r2, [pc, #124]	; (80057cc <ADC_Enable+0xb0>)
 8005750:	fba2 2303 	umull	r2, r3, r2, r3
 8005754:	0c9b      	lsrs	r3, r3, #18
 8005756:	60bb      	str	r3, [r7, #8]
 8005758:	e002      	b.n	8005760 <ADC_Enable+0x44>
 800575a:	68bb      	ldr	r3, [r7, #8]
 800575c:	3b01      	subs	r3, #1
 800575e:	60bb      	str	r3, [r7, #8]
 8005760:	68bb      	ldr	r3, [r7, #8]
 8005762:	2b00      	cmp	r3, #0
 8005764:	d1f9      	bne.n	800575a <ADC_Enable+0x3e>
 8005766:	f7ff fc1f 	bl	8004fa8 <HAL_GetTick>
 800576a:	60f8      	str	r0, [r7, #12]
 800576c:	e01f      	b.n	80057ae <ADC_Enable+0x92>
 800576e:	f7ff fc1b 	bl	8004fa8 <HAL_GetTick>
 8005772:	4602      	mov	r2, r0
 8005774:	68fb      	ldr	r3, [r7, #12]
 8005776:	1ad3      	subs	r3, r2, r3
 8005778:	2b02      	cmp	r3, #2
 800577a:	d918      	bls.n	80057ae <ADC_Enable+0x92>
 800577c:	687b      	ldr	r3, [r7, #4]
 800577e:	681b      	ldr	r3, [r3, #0]
 8005780:	689b      	ldr	r3, [r3, #8]
 8005782:	f003 0301 	and.w	r3, r3, #1
 8005786:	2b01      	cmp	r3, #1
 8005788:	d011      	beq.n	80057ae <ADC_Enable+0x92>
 800578a:	687b      	ldr	r3, [r7, #4]
 800578c:	6a9b      	ldr	r3, [r3, #40]	; 0x28
 800578e:	f043 0210 	orr.w	r2, r3, #16
 8005792:	687b      	ldr	r3, [r7, #4]
 8005794:	629a      	str	r2, [r3, #40]	; 0x28
 8005796:	687b      	ldr	r3, [r7, #4]
 8005798:	6adb      	ldr	r3, [r3, #44]	; 0x2c
 800579a:	f043 0201 	orr.w	r2, r3, #1
 800579e:	687b      	ldr	r3, [r7, #4]
 80057a0:	62da      	str	r2, [r3, #44]	; 0x2c
 80057a2:	687b      	ldr	r3, [r7, #4]
 80057a4:	2200      	movs	r2, #0
 80057a6:	f883 2024 	strb.w	r2, [r3, #36]	; 0x24
 80057aa:	2301      	movs	r3, #1
 80057ac:	e007      	b.n	80057be <ADC_Enable+0xa2>
 80057ae:	687b      	ldr	r3, [r7, #4]
 80057b0:	681b      	ldr	r3, [r3, #0]
 80057b2:	689b      	ldr	r3, [r3, #8]
 80057b4:	f003 0301 	and.w	r3, r3, #1
 80057b8:	2b01      	cmp	r3, #1
 80057ba:	d1d8      	bne.n	800576e <ADC_Enable+0x52>
 80057bc:	2300      	movs	r3, #0
 80057be:	4618      	mov	r0, r3
 80057c0:	3710      	adds	r7, #16
 80057c2:	46bd      	mov	sp, r7
 80057c4:	bd80      	pop	{r7, pc}
 80057c6:	bf00      	nop
 80057c8:	2000047c 	.word	0x2000047c
 80057cc:	431bde83 	.word	0x431bde83

080057d0 <ADC_ConversionStop_Disable>:
 80057d0:	b580      	push	{r7, lr}
 80057d2:	b084      	sub	sp, #16
 80057d4:	af00      	add	r7, sp, #0
 80057d6:	6078      	str	r0, [r7, #4]
 80057d8:	2300      	movs	r3, #0
 80057da:	60fb      	str	r3, [r7, #12]
 80057dc:	687b      	ldr	r3, [r7, #4]
 80057de:	681b      	ldr	r3, [r3, #0]
 80057e0:	689b      	ldr	r3, [r3, #8]
 80057e2:	f003 0301 	and.w	r3, r3, #1
 80057e6:	2b01      	cmp	r3, #1
 80057e8:	d12e      	bne.n	8005848 <ADC_ConversionStop_Disable+0x78>
 80057ea:	687b      	ldr	r3, [r7, #4]
 80057ec:	681b      	ldr	r3, [r3, #0]
 80057ee:	689a      	ldr	r2, [r3, #8]
 80057f0:	687b      	ldr	r3, [r7, #4]
 80057f2:	681b      	ldr	r3, [r3, #0]
 80057f4:	f022 0201 	bic.w	r2, r2, #1
 80057f8:	609a      	str	r2, [r3, #8]
 80057fa:	f7ff fbd5 	bl	8004fa8 <HAL_GetTick>
 80057fe:	60f8      	str	r0, [r7, #12]
 8005800:	e01b      	b.n	800583a <ADC_ConversionStop_Disable+0x6a>
 8005802:	f7ff fbd1 	bl	8004fa8 <HAL_GetTick>
 8005806:	4602      	mov	r2, r0
 8005808:	68fb      	ldr	r3, [r7, #12]
 800580a:	1ad3      	subs	r3, r2, r3
 800580c:	2b02      	cmp	r3, #2
 800580e:	d914      	bls.n	800583a <ADC_ConversionStop_Disable+0x6a>
 8005810:	687b      	ldr	r3, [r7, #4]
 8005812:	681b      	ldr	r3, [r3, #0]
 8005814:	689b      	ldr	r3, [r3, #8]
 8005816:	f003 0301 	and.w	r3, r3, #1
 800581a:	2b01      	cmp	r3, #1
 800581c:	d10d      	bne.n	800583a <ADC_ConversionStop_Disable+0x6a>
 800581e:	687b      	ldr	r3, [r7, #4]
 8005820:	6a9b      	ldr	r3, [r3, #40]	; 0x28
 8005822:	f043 0210 	orr.w	r2, r3, #16
 8005826:	687b      	ldr	r3, [r7, #4]
 8005828:	629a      	str	r2, [r3, #40]	; 0x28
 800582a:	687b      	ldr	r3, [r7, #4]
 800582c:	6adb      	ldr	r3, [r3, #44]	; 0x2c
 800582e:	f043 0201 	orr.w	r2, r3, #1
 8005832:	687b      	ldr	r3, [r7, #4]
 8005834:	62da      	str	r2, [r3, #44]	; 0x2c
 8005836:	2301      	movs	r3, #1
 8005838:	e007      	b.n	800584a <ADC_ConversionStop_Disable+0x7a>
 800583a:	687b      	ldr	r3, [r7, #4]
 800583c:	681b      	ldr	r3, [r3, #0]
 800583e:	689b      	ldr	r3, [r3, #8]
 8005840:	f003 0301 	and.w	r3, r3, #1
 8005844:	2b01      	cmp	r3, #1
 8005846:	d0dc      	beq.n	8005802 <ADC_ConversionStop_Disable+0x32>
 8005848:	2300      	movs	r3, #0
 800584a:	4618      	mov	r0, r3
 800584c:	3710      	adds	r7, #16
 800584e:	46bd      	mov	sp, r7
 8005850:	bd80      	pop	{r7, pc}

08005852 <ADC_DMAConvCplt>:
 8005852:	b580      	push	{r7, lr}
 8005854:	b084      	sub	sp, #16
 8005856:	af00      	add	r7, sp, #0
 8005858:	6078      	str	r0, [r7, #4]
 800585a:	687b      	ldr	r3, [r7, #4]
 800585c:	6a5b      	ldr	r3, [r3, #36]	; 0x24
 800585e:	60fb      	str	r3, [r7, #12]
 8005860:	68fb      	ldr	r3, [r7, #12]
 8005862:	6a9b      	ldr	r3, [r3, #40]	; 0x28
 8005864:	f003 0350 	and.w	r3, r3, #80	; 0x50
 8005868:	2b00      	cmp	r3, #0
 800586a:	d127      	bne.n	80058bc <ADC_DMAConvCplt+0x6a>
 800586c:	68fb      	ldr	r3, [r7, #12]
 800586e:	6a9b      	ldr	r3, [r3, #40]	; 0x28
 8005870:	f443 7200 	orr.w	r2, r3, #512	; 0x200
 8005874:	68fb      	ldr	r3, [r7, #12]
 8005876:	629a      	str	r2, [r3, #40]	; 0x28
 8005878:	68fb      	ldr	r3, [r7, #12]
 800587a:	681b      	ldr	r3, [r3, #0]
 800587c:	689b      	ldr	r3, [r3, #8]
 800587e:	f403 2360 	and.w	r3, r3, #917504	; 0xe0000
 8005882:	f5b3 2f60 	cmp.w	r3, #917504	; 0xe0000
 8005886:	d115      	bne.n	80058b4 <ADC_DMAConvCplt+0x62>
 8005888:	68fb      	ldr	r3, [r7, #12]
 800588a:	7b1b      	ldrb	r3, [r3, #12]
 800588c:	2b00      	cmp	r3, #0
 800588e:	d111      	bne.n	80058b4 <ADC_DMAConvCplt+0x62>
 8005890:	68fb      	ldr	r3, [r7, #12]
 8005892:	6a9b      	ldr	r3, [r3, #40]	; 0x28
 8005894:	f423 7280 	bic.w	r2, r3, #256	; 0x100
 8005898:	68fb      	ldr	r3, [r7, #12]
 800589a:	629a      	str	r2, [r3, #40]	; 0x28
 800589c:	68fb      	ldr	r3, [r7, #12]
 800589e:	6a9b      	ldr	r3, [r3, #40]	; 0x28
 80058a0:	f403 5380 	and.w	r3, r3, #4096	; 0x1000
 80058a4:	2b00      	cmp	r3, #0
 80058a6:	d105      	bne.n	80058b4 <ADC_DMAConvCplt+0x62>
 80058a8:	68fb      	ldr	r3, [r7, #12]
 80058aa:	6a9b      	ldr	r3, [r3, #40]	; 0x28
 80058ac:	f043 0201 	orr.w	r2, r3, #1
 80058b0:	68fb      	ldr	r3, [r7, #12]
 80058b2:	629a      	str	r2, [r3, #40]	; 0x28
 80058b4:	68f8      	ldr	r0, [r7, #12]
 80058b6:	f7fd ff63 	bl	8003780 <HAL_ADC_ConvCpltCallback>
 80058ba:	e004      	b.n	80058c6 <ADC_DMAConvCplt+0x74>
 80058bc:	68fb      	ldr	r3, [r7, #12]
 80058be:	6a1b      	ldr	r3, [r3, #32]
 80058c0:	6b1b      	ldr	r3, [r3, #48]	; 0x30
 80058c2:	6878      	ldr	r0, [r7, #4]
 80058c4:	4798      	blx	r3
 80058c6:	bf00      	nop
 80058c8:	3710      	adds	r7, #16
 80058ca:	46bd      	mov	sp, r7
 80058cc:	bd80      	pop	{r7, pc}

080058ce <ADC_DMAHalfConvCplt>:
 80058ce:	b580      	push	{r7, lr}
 80058d0:	b084      	sub	sp, #16
 80058d2:	af00      	add	r7, sp, #0
 80058d4:	6078      	str	r0, [r7, #4]
 80058d6:	687b      	ldr	r3, [r7, #4]
 80058d8:	6a5b      	ldr	r3, [r3, #36]	; 0x24
 80058da:	60fb      	str	r3, [r7, #12]
 80058dc:	68f8      	ldr	r0, [r7, #12]
 80058de:	f7ff fe0a 	bl	80054f6 <HAL_ADC_ConvHalfCpltCallback>
 80058e2:	bf00      	nop
 80058e4:	3710      	adds	r7, #16
 80058e6:	46bd      	mov	sp, r7
 80058e8:	bd80      	pop	{r7, pc}

080058ea <ADC_DMAError>:
 80058ea:	b580      	push	{r7, lr}
 80058ec:	b084      	sub	sp, #16
 80058ee:	af00      	add	r7, sp, #0
 80058f0:	6078      	str	r0, [r7, #4]
 80058f2:	687b      	ldr	r3, [r7, #4]
 80058f4:	6a5b      	ldr	r3, [r3, #36]	; 0x24
 80058f6:	60fb      	str	r3, [r7, #12]
 80058f8:	68fb      	ldr	r3, [r7, #12]
 80058fa:	6a9b      	ldr	r3, [r3, #40]	; 0x28
 80058fc:	f043 0240 	orr.w	r2, r3, #64	; 0x40
 8005900:	68fb      	ldr	r3, [r7, #12]
 8005902:	629a      	str	r2, [r3, #40]	; 0x28
 8005904:	68fb      	ldr	r3, [r7, #12]
 8005906:	6adb      	ldr	r3, [r3, #44]	; 0x2c
 8005908:	f043 0204 	orr.w	r2, r3, #4
 800590c:	68fb      	ldr	r3, [r7, #12]
 800590e:	62da      	str	r2, [r3, #44]	; 0x2c
 8005910:	68f8      	ldr	r0, [r7, #12]
 8005912:	f7ff fe02 	bl	800551a <HAL_ADC_ErrorCallback>
 8005916:	bf00      	nop
 8005918:	3710      	adds	r7, #16
 800591a:	46bd      	mov	sp, r7
 800591c:	bd80      	pop	{r7, pc}

0800591e <HAL_ADCEx_InjectedConvCpltCallback>:
 800591e:	b480      	push	{r7}
 8005920:	b083      	sub	sp, #12
 8005922:	af00      	add	r7, sp, #0
 8005924:	6078      	str	r0, [r7, #4]
 8005926:	bf00      	nop
 8005928:	370c      	adds	r7, #12
 800592a:	46bd      	mov	sp, r7
 800592c:	bc80      	pop	{r7}
 800592e:	4770      	bx	lr

08005930 <__NVIC_SetPriorityGrouping>:
 8005930:	b480      	push	{r7}
 8005932:	b085      	sub	sp, #20
 8005934:	af00      	add	r7, sp, #0
 8005936:	6078      	str	r0, [r7, #4]
 8005938:	687b      	ldr	r3, [r7, #4]
 800593a:	f003 0307 	and.w	r3, r3, #7
 800593e:	60fb      	str	r3, [r7, #12]
 8005940:	4b0c      	ldr	r3, [pc, #48]	; (8005974 <__NVIC_SetPriorityGrouping+0x44>)
 8005942:	68db      	ldr	r3, [r3, #12]
 8005944:	60bb      	str	r3, [r7, #8]
 8005946:	68ba      	ldr	r2, [r7, #8]
 8005948:	f64f 03ff 	movw	r3, #63743	; 0xf8ff
 800594c:	4013      	ands	r3, r2
 800594e:	60bb      	str	r3, [r7, #8]
 8005950:	68fb      	ldr	r3, [r7, #12]
 8005952:	021a      	lsls	r2, r3, #8
 8005954:	68bb      	ldr	r3, [r7, #8]
 8005956:	4313      	orrs	r3, r2
 8005958:	f043 63bf 	orr.w	r3, r3, #100139008	; 0x5f80000
 800595c:	f443 3300 	orr.w	r3, r3, #131072	; 0x20000
 8005960:	60bb      	str	r3, [r7, #8]
 8005962:	4a04      	ldr	r2, [pc, #16]	; (8005974 <__NVIC_SetPriorityGrouping+0x44>)
 8005964:	68bb      	ldr	r3, [r7, #8]
 8005966:	60d3      	str	r3, [r2, #12]
 8005968:	bf00      	nop
 800596a:	3714      	adds	r7, #20
 800596c:	46bd      	mov	sp, r7
 800596e:	bc80      	pop	{r7}
 8005970:	4770      	bx	lr
 8005972:	bf00      	nop
 8005974:	e000ed00 	.word	0xe000ed00

08005978 <__NVIC_GetPriorityGrouping>:
 8005978:	b480      	push	{r7}
 800597a:	af00      	add	r7, sp, #0
 800597c:	4b04      	ldr	r3, [pc, #16]	; (8005990 <__NVIC_GetPriorityGrouping+0x18>)
 800597e:	68db      	ldr	r3, [r3, #12]
 8005980:	0a1b      	lsrs	r3, r3, #8
 8005982:	f003 0307 	and.w	r3, r3, #7
 8005986:	4618      	mov	r0, r3
 8005988:	46bd      	mov	sp, r7
 800598a:	bc80      	pop	{r7}
 800598c:	4770      	bx	lr
 800598e:	bf00      	nop
 8005990:	e000ed00 	.word	0xe000ed00

08005994 <__NVIC_EnableIRQ>:
 8005994:	b480      	push	{r7}
 8005996:	b083      	sub	sp, #12
 8005998:	af00      	add	r7, sp, #0
 800599a:	4603      	mov	r3, r0
 800599c:	71fb      	strb	r3, [r7, #7]
 800599e:	f997 3007 	ldrsb.w	r3, [r7, #7]
 80059a2:	2b00      	cmp	r3, #0
 80059a4:	db0b      	blt.n	80059be <__NVIC_EnableIRQ+0x2a>
 80059a6:	79fb      	ldrb	r3, [r7, #7]
 80059a8:	f003 021f 	and.w	r2, r3, #31
 80059ac:	4906      	ldr	r1, [pc, #24]	; (80059c8 <__NVIC_EnableIRQ+0x34>)
 80059ae:	f997 3007 	ldrsb.w	r3, [r7, #7]
 80059b2:	095b      	lsrs	r3, r3, #5
 80059b4:	2001      	movs	r0, #1
 80059b6:	fa00 f202 	lsl.w	r2, r0, r2
 80059ba:	f841 2023 	str.w	r2, [r1, r3, lsl #2]
 80059be:	bf00      	nop
 80059c0:	370c      	adds	r7, #12
 80059c2:	46bd      	mov	sp, r7
 80059c4:	bc80      	pop	{r7}
 80059c6:	4770      	bx	lr
 80059c8:	e000e100 	.word	0xe000e100

080059cc <__NVIC_SetPriority>:
 80059cc:	b480      	push	{r7}
 80059ce:	b083      	sub	sp, #12
 80059d0:	af00      	add	r7, sp, #0
 80059d2:	4603      	mov	r3, r0
 80059d4:	6039      	str	r1, [r7, #0]
 80059d6:	71fb      	strb	r3, [r7, #7]
 80059d8:	f997 3007 	ldrsb.w	r3, [r7, #7]
 80059dc:	2b00      	cmp	r3, #0
 80059de:	db0a      	blt.n	80059f6 <__NVIC_SetPriority+0x2a>
 80059e0:	683b      	ldr	r3, [r7, #0]
 80059e2:	b2da      	uxtb	r2, r3
 80059e4:	490c      	ldr	r1, [pc, #48]	; (8005a18 <__NVIC_SetPriority+0x4c>)
 80059e6:	f997 3007 	ldrsb.w	r3, [r7, #7]
 80059ea:	0112      	lsls	r2, r2, #4
 80059ec:	b2d2      	uxtb	r2, r2
 80059ee:	440b      	add	r3, r1
 80059f0:	f883 2300 	strb.w	r2, [r3, #768]	; 0x300
 80059f4:	e00a      	b.n	8005a0c <__NVIC_SetPriority+0x40>
 80059f6:	683b      	ldr	r3, [r7, #0]
 80059f8:	b2da      	uxtb	r2, r3
 80059fa:	4908      	ldr	r1, [pc, #32]	; (8005a1c <__NVIC_SetPriority+0x50>)
 80059fc:	79fb      	ldrb	r3, [r7, #7]
 80059fe:	f003 030f 	and.w	r3, r3, #15
 8005a02:	3b04      	subs	r3, #4
 8005a04:	0112      	lsls	r2, r2, #4
 8005a06:	b2d2      	uxtb	r2, r2
 8005a08:	440b      	add	r3, r1
 8005a0a:	761a      	strb	r2, [r3, #24]
 8005a0c:	bf00      	nop
 8005a0e:	370c      	adds	r7, #12
 8005a10:	46bd      	mov	sp, r7
 8005a12:	bc80      	pop	{r7}
 8005a14:	4770      	bx	lr
 8005a16:	bf00      	nop
 8005a18:	e000e100 	.word	0xe000e100
 8005a1c:	e000ed00 	.word	0xe000ed00

08005a20 <NVIC_EncodePriority>:
 8005a20:	b480      	push	{r7}
 8005a22:	b089      	sub	sp, #36	; 0x24
 8005a24:	af00      	add	r7, sp, #0
 8005a26:	60f8      	str	r0, [r7, #12]
 8005a28:	60b9      	str	r1, [r7, #8]
 8005a2a:	607a      	str	r2, [r7, #4]
 8005a2c:	68fb      	ldr	r3, [r7, #12]
 8005a2e:	f003 0307 	and.w	r3, r3, #7
 8005a32:	61fb      	str	r3, [r7, #28]
 8005a34:	69fb      	ldr	r3, [r7, #28]
 8005a36:	f1c3 0307 	rsb	r3, r3, #7
 8005a3a:	2b04      	cmp	r3, #4
 8005a3c:	bf28      	it	cs
 8005a3e:	2304      	movcs	r3, #4
 8005a40:	61bb      	str	r3, [r7, #24]
 8005a42:	69fb      	ldr	r3, [r7, #28]
 8005a44:	3304      	adds	r3, #4
 8005a46:	2b06      	cmp	r3, #6
 8005a48:	d902      	bls.n	8005a50 <NVIC_EncodePriority+0x30>
 8005a4a:	69fb      	ldr	r3, [r7, #28]
 8005a4c:	3b03      	subs	r3, #3
 8005a4e:	e000      	b.n	8005a52 <NVIC_EncodePriority+0x32>
 8005a50:	2300      	movs	r3, #0
 8005a52:	617b      	str	r3, [r7, #20]
 8005a54:	f04f 32ff 	mov.w	r2, #4294967295
 8005a58:	69bb      	ldr	r3, [r7, #24]
 8005a5a:	fa02 f303 	lsl.w	r3, r2, r3
 8005a5e:	43da      	mvns	r2, r3
 8005a60:	68bb      	ldr	r3, [r7, #8]
 8005a62:	401a      	ands	r2, r3
 8005a64:	697b      	ldr	r3, [r7, #20]
 8005a66:	409a      	lsls	r2, r3
 8005a68:	f04f 31ff 	mov.w	r1, #4294967295
 8005a6c:	697b      	ldr	r3, [r7, #20]
 8005a6e:	fa01 f303 	lsl.w	r3, r1, r3
 8005a72:	43d9      	mvns	r1, r3
 8005a74:	687b      	ldr	r3, [r7, #4]
 8005a76:	400b      	ands	r3, r1
 8005a78:	4313      	orrs	r3, r2
 8005a7a:	4618      	mov	r0, r3
 8005a7c:	3724      	adds	r7, #36	; 0x24
 8005a7e:	46bd      	mov	sp, r7
 8005a80:	bc80      	pop	{r7}
 8005a82:	4770      	bx	lr

08005a84 <SysTick_Config>:
 8005a84:	b580      	push	{r7, lr}
 8005a86:	b082      	sub	sp, #8
 8005a88:	af00      	add	r7, sp, #0
 8005a8a:	6078      	str	r0, [r7, #4]
 8005a8c:	687b      	ldr	r3, [r7, #4]
 8005a8e:	3b01      	subs	r3, #1
 8005a90:	f1b3 7f80 	cmp.w	r3, #16777216	; 0x1000000
 8005a94:	d301      	bcc.n	8005a9a <SysTick_Config+0x16>
 8005a96:	2301      	movs	r3, #1
 8005a98:	e00f      	b.n	8005aba <SysTick_Config+0x36>
 8005a9a:	4a0a      	ldr	r2, [pc, #40]	; (8005ac4 <SysTick_Config+0x40>)
 8005a9c:	687b      	ldr	r3, [r7, #4]
 8005a9e:	3b01      	subs	r3, #1
 8005aa0:	6053      	str	r3, [r2, #4]
 8005aa2:	210f      	movs	r1, #15
 8005aa4:	f04f 30ff 	mov.w	r0, #4294967295
 8005aa8:	f7ff ff90 	bl	80059cc <__NVIC_SetPriority>
 8005aac:	4b05      	ldr	r3, [pc, #20]	; (8005ac4 <SysTick_Config+0x40>)
 8005aae:	2200      	movs	r2, #0
 8005ab0:	609a      	str	r2, [r3, #8]
 8005ab2:	4b04      	ldr	r3, [pc, #16]	; (8005ac4 <SysTick_Config+0x40>)
 8005ab4:	2207      	movs	r2, #7
 8005ab6:	601a      	str	r2, [r3, #0]
 8005ab8:	2300      	movs	r3, #0
 8005aba:	4618      	mov	r0, r3
 8005abc:	3708      	adds	r7, #8
 8005abe:	46bd      	mov	sp, r7
 8005ac0:	bd80      	pop	{r7, pc}
 8005ac2:	bf00      	nop
 8005ac4:	e000e010 	.word	0xe000e010

08005ac8 <HAL_NVIC_SetPriorityGrouping>:
 8005ac8:	b580      	push	{r7, lr}
 8005aca:	b082      	sub	sp, #8
 8005acc:	af00      	add	r7, sp, #0
 8005ace:	6078      	str	r0, [r7, #4]
 8005ad0:	6878      	ldr	r0, [r7, #4]
 8005ad2:	f7ff ff2d 	bl	8005930 <__NVIC_SetPriorityGrouping>
 8005ad6:	bf00      	nop
 8005ad8:	3708      	adds	r7, #8
 8005ada:	46bd      	mov	sp, r7
 8005adc:	bd80      	pop	{r7, pc}

08005ade <HAL_NVIC_SetPriority>:
 8005ade:	b580      	push	{r7, lr}
 8005ae0:	b086      	sub	sp, #24
 8005ae2:	af00      	add	r7, sp, #0
 8005ae4:	4603      	mov	r3, r0
 8005ae6:	60b9      	str	r1, [r7, #8]
 8005ae8:	607a      	str	r2, [r7, #4]
 8005aea:	73fb      	strb	r3, [r7, #15]
 8005aec:	2300      	movs	r3, #0
 8005aee:	617b      	str	r3, [r7, #20]
 8005af0:	f7ff ff42 	bl	8005978 <__NVIC_GetPriorityGrouping>
 8005af4:	6178      	str	r0, [r7, #20]
 8005af6:	687a      	ldr	r2, [r7, #4]
 8005af8:	68b9      	ldr	r1, [r7, #8]
 8005afa:	6978      	ldr	r0, [r7, #20]
 8005afc:	f7ff ff90 	bl	8005a20 <NVIC_EncodePriority>
 8005b00:	4602      	mov	r2, r0
 8005b02:	f997 300f 	ldrsb.w	r3, [r7, #15]
 8005b06:	4611      	mov	r1, r2
 8005b08:	4618      	mov	r0, r3
 8005b0a:	f7ff ff5f 	bl	80059cc <__NVIC_SetPriority>
 8005b0e:	bf00      	nop
 8005b10:	3718      	adds	r7, #24
 8005b12:	46bd      	mov	sp, r7
 8005b14:	bd80      	pop	{r7, pc}

08005b16 <HAL_NVIC_EnableIRQ>:
 8005b16:	b580      	push	{r7, lr}
 8005b18:	b082      	sub	sp, #8
 8005b1a:	af00      	add	r7, sp, #0
 8005b1c:	4603      	mov	r3, r0
 8005b1e:	71fb      	strb	r3, [r7, #7]
 8005b20:	f997 3007 	ldrsb.w	r3, [r7, #7]
 8005b24:	4618      	mov	r0, r3
 8005b26:	f7ff ff35 	bl	8005994 <__NVIC_EnableIRQ>
 8005b2a:	bf00      	nop
 8005b2c:	3708      	adds	r7, #8
 8005b2e:	46bd      	mov	sp, r7
 8005b30:	bd80      	pop	{r7, pc}

08005b32 <HAL_SYSTICK_Config>:
 8005b32:	b580      	push	{r7, lr}
 8005b34:	b082      	sub	sp, #8
 8005b36:	af00      	add	r7, sp, #0
 8005b38:	6078      	str	r0, [r7, #4]
 8005b3a:	6878      	ldr	r0, [r7, #4]
 8005b3c:	f7ff ffa2 	bl	8005a84 <SysTick_Config>
 8005b40:	4603      	mov	r3, r0
 8005b42:	4618      	mov	r0, r3
 8005b44:	3708      	adds	r7, #8
 8005b46:	46bd      	mov	sp, r7
 8005b48:	bd80      	pop	{r7, pc}
	...

08005b4c <HAL_DMA_Init>:
 8005b4c:	b480      	push	{r7}
 8005b4e:	b085      	sub	sp, #20
 8005b50:	af00      	add	r7, sp, #0
 8005b52:	6078      	str	r0, [r7, #4]
 8005b54:	2300      	movs	r3, #0
 8005b56:	60fb      	str	r3, [r7, #12]
 8005b58:	687b      	ldr	r3, [r7, #4]
 8005b5a:	2b00      	cmp	r3, #0
 8005b5c:	d101      	bne.n	8005b62 <HAL_DMA_Init+0x16>
 8005b5e:	2301      	movs	r3, #1
 8005b60:	e043      	b.n	8005bea <HAL_DMA_Init+0x9e>
 8005b62:	687b      	ldr	r3, [r7, #4]
 8005b64:	681b      	ldr	r3, [r3, #0]
 8005b66:	461a      	mov	r2, r3
 8005b68:	4b22      	ldr	r3, [pc, #136]	; (8005bf4 <HAL_DMA_Init+0xa8>)
 8005b6a:	4413      	add	r3, r2
 8005b6c:	4a22      	ldr	r2, [pc, #136]	; (8005bf8 <HAL_DMA_Init+0xac>)
 8005b6e:	fba2 2303 	umull	r2, r3, r2, r3
 8005b72:	091b      	lsrs	r3, r3, #4
 8005b74:	009a      	lsls	r2, r3, #2
 8005b76:	687b      	ldr	r3, [r7, #4]
 8005b78:	641a      	str	r2, [r3, #64]	; 0x40
 8005b7a:	687b      	ldr	r3, [r7, #4]
 8005b7c:	4a1f      	ldr	r2, [pc, #124]	; (8005bfc <HAL_DMA_Init+0xb0>)
 8005b7e:	63da      	str	r2, [r3, #60]	; 0x3c
 8005b80:	687b      	ldr	r3, [r7, #4]
 8005b82:	2202      	movs	r2, #2
 8005b84:	f883 2021 	strb.w	r2, [r3, #33]	; 0x21
 8005b88:	687b      	ldr	r3, [r7, #4]
 8005b8a:	681b      	ldr	r3, [r3, #0]
 8005b8c:	681b      	ldr	r3, [r3, #0]
 8005b8e:	60fb      	str	r3, [r7, #12]
 8005b90:	68fb      	ldr	r3, [r7, #12]
 8005b92:	f423 537f 	bic.w	r3, r3, #16320	; 0x3fc0
 8005b96:	f023 0330 	bic.w	r3, r3, #48	; 0x30
 8005b9a:	60fb      	str	r3, [r7, #12]
 8005b9c:	687b      	ldr	r3, [r7, #4]
 8005b9e:	685a      	ldr	r2, [r3, #4]
 8005ba0:	687b      	ldr	r3, [r7, #4]
 8005ba2:	689b      	ldr	r3, [r3, #8]
 8005ba4:	431a      	orrs	r2, r3
 8005ba6:	687b      	ldr	r3, [r7, #4]
 8005ba8:	68db      	ldr	r3, [r3, #12]
 8005baa:	431a      	orrs	r2, r3
 8005bac:	687b      	ldr	r3, [r7, #4]
 8005bae:	691b      	ldr	r3, [r3, #16]
 8005bb0:	431a      	orrs	r2, r3
 8005bb2:	687b      	ldr	r3, [r7, #4]
 8005bb4:	695b      	ldr	r3, [r3, #20]
 8005bb6:	431a      	orrs	r2, r3
 8005bb8:	687b      	ldr	r3, [r7, #4]
 8005bba:	699b      	ldr	r3, [r3, #24]
 8005bbc:	431a      	orrs	r2, r3
 8005bbe:	687b      	ldr	r3, [r7, #4]
 8005bc0:	69db      	ldr	r3, [r3, #28]
 8005bc2:	4313      	orrs	r3, r2
 8005bc4:	68fa      	ldr	r2, [r7, #12]
 8005bc6:	4313      	orrs	r3, r2
 8005bc8:	60fb      	str	r3, [r7, #12]
 8005bca:	687b      	ldr	r3, [r7, #4]
 8005bcc:	681b      	ldr	r3, [r3, #0]
 8005bce:	68fa      	ldr	r2, [r7, #12]
 8005bd0:	601a      	str	r2, [r3, #0]
 8005bd2:	687b      	ldr	r3, [r7, #4]
 8005bd4:	2200      	movs	r2, #0
 8005bd6:	639a      	str	r2, [r3, #56]	; 0x38
 8005bd8:	687b      	ldr	r3, [r7, #4]
 8005bda:	2201      	movs	r2, #1
 8005bdc:	f883 2021 	strb.w	r2, [r3, #33]	; 0x21
 8005be0:	687b      	ldr	r3, [r7, #4]
 8005be2:	2200      	movs	r2, #0
 8005be4:	f883 2020 	strb.w	r2, [r3, #32]
 8005be8:	2300      	movs	r3, #0
 8005bea:	4618      	mov	r0, r3
 8005bec:	3714      	adds	r7, #20
 8005bee:	46bd      	mov	sp, r7
 8005bf0:	bc80      	pop	{r7}
 8005bf2:	4770      	bx	lr
 8005bf4:	bffdfff8 	.word	0xbffdfff8
 8005bf8:	cccccccd 	.word	0xcccccccd
 8005bfc:	40020000 	.word	0x40020000

08005c00 <HAL_DMA_Start_IT>:
 8005c00:	b580      	push	{r7, lr}
 8005c02:	b086      	sub	sp, #24
 8005c04:	af00      	add	r7, sp, #0
 8005c06:	60f8      	str	r0, [r7, #12]
 8005c08:	60b9      	str	r1, [r7, #8]
 8005c0a:	607a      	str	r2, [r7, #4]
 8005c0c:	603b      	str	r3, [r7, #0]
 8005c0e:	2300      	movs	r3, #0
 8005c10:	75fb      	strb	r3, [r7, #23]
 8005c12:	68fb      	ldr	r3, [r7, #12]
 8005c14:	f893 3020 	ldrb.w	r3, [r3, #32]
 8005c18:	2b01      	cmp	r3, #1
 8005c1a:	d101      	bne.n	8005c20 <HAL_DMA_Start_IT+0x20>
 8005c1c:	2302      	movs	r3, #2
 8005c1e:	e04a      	b.n	8005cb6 <HAL_DMA_Start_IT+0xb6>
 8005c20:	68fb      	ldr	r3, [r7, #12]
 8005c22:	2201      	movs	r2, #1
 8005c24:	f883 2020 	strb.w	r2, [r3, #32]
 8005c28:	68fb      	ldr	r3, [r7, #12]
 8005c2a:	f893 3021 	ldrb.w	r3, [r3, #33]	; 0x21
 8005c2e:	2b01      	cmp	r3, #1
 8005c30:	d13a      	bne.n	8005ca8 <HAL_DMA_Start_IT+0xa8>
 8005c32:	68fb      	ldr	r3, [r7, #12]
 8005c34:	2202      	movs	r2, #2
 8005c36:	f883 2021 	strb.w	r2, [r3, #33]	; 0x21
 8005c3a:	68fb      	ldr	r3, [r7, #12]
 8005c3c:	2200      	movs	r2, #0
 8005c3e:	639a      	str	r2, [r3, #56]	; 0x38
 8005c40:	68fb      	ldr	r3, [r7, #12]
 8005c42:	681b      	ldr	r3, [r3, #0]
 8005c44:	681a      	ldr	r2, [r3, #0]
 8005c46:	68fb      	ldr	r3, [r7, #12]
 8005c48:	681b      	ldr	r3, [r3, #0]
 8005c4a:	f022 0201 	bic.w	r2, r2, #1
 8005c4e:	601a      	str	r2, [r3, #0]
 8005c50:	683b      	ldr	r3, [r7, #0]
 8005c52:	687a      	ldr	r2, [r7, #4]
 8005c54:	68b9      	ldr	r1, [r7, #8]
 8005c56:	68f8      	ldr	r0, [r7, #12]
 8005c58:	f000 f938 	bl	8005ecc <DMA_SetConfig>
 8005c5c:	68fb      	ldr	r3, [r7, #12]
 8005c5e:	6adb      	ldr	r3, [r3, #44]	; 0x2c
 8005c60:	2b00      	cmp	r3, #0
 8005c62:	d008      	beq.n	8005c76 <HAL_DMA_Start_IT+0x76>
 8005c64:	68fb      	ldr	r3, [r7, #12]
 8005c66:	681b      	ldr	r3, [r3, #0]
 8005c68:	681a      	ldr	r2, [r3, #0]
 8005c6a:	68fb      	ldr	r3, [r7, #12]
 8005c6c:	681b      	ldr	r3, [r3, #0]
 8005c6e:	f042 020e 	orr.w	r2, r2, #14
 8005c72:	601a      	str	r2, [r3, #0]
 8005c74:	e00f      	b.n	8005c96 <HAL_DMA_Start_IT+0x96>
 8005c76:	68fb      	ldr	r3, [r7, #12]
 8005c78:	681b      	ldr	r3, [r3, #0]
 8005c7a:	681a      	ldr	r2, [r3, #0]
 8005c7c:	68fb      	ldr	r3, [r7, #12]
 8005c7e:	681b      	ldr	r3, [r3, #0]
 8005c80:	f022 0204 	bic.w	r2, r2, #4
 8005c84:	601a      	str	r2, [r3, #0]
 8005c86:	68fb      	ldr	r3, [r7, #12]
 8005c88:	681b      	ldr	r3, [r3, #0]
 8005c8a:	681a      	ldr	r2, [r3, #0]
 8005c8c:	68fb      	ldr	r3, [r7, #12]
 8005c8e:	681b      	ldr	r3, [r3, #0]
 8005c90:	f042 020a 	orr.w	r2, r2, #10
 8005c94:	601a      	str	r2, [r3, #0]
 8005c96:	68fb      	ldr	r3, [r7, #12]
 8005c98:	681b      	ldr	r3, [r3, #0]
 8005c9a:	681a      	ldr	r2, [r3, #0]
 8005c9c:	68fb      	ldr	r3, [r7, #12]
 8005c9e:	681b      	ldr	r3, [r3, #0]
 8005ca0:	f042 0201 	orr.w	r2, r2, #1
 8005ca4:	601a      	str	r2, [r3, #0]
 8005ca6:	e005      	b.n	8005cb4 <HAL_DMA_Start_IT+0xb4>
 8005ca8:	68fb      	ldr	r3, [r7, #12]
 8005caa:	2200      	movs	r2, #0
 8005cac:	f883 2020 	strb.w	r2, [r3, #32]
 8005cb0:	2302      	movs	r3, #2
 8005cb2:	75fb      	strb	r3, [r7, #23]
 8005cb4:	7dfb      	ldrb	r3, [r7, #23]
 8005cb6:	4618      	mov	r0, r3
 8005cb8:	3718      	adds	r7, #24
 8005cba:	46bd      	mov	sp, r7
 8005cbc:	bd80      	pop	{r7, pc}
	...

08005cc0 <HAL_DMA_IRQHandler>:
 8005cc0:	b580      	push	{r7, lr}
 8005cc2:	b084      	sub	sp, #16
 8005cc4:	af00      	add	r7, sp, #0
 8005cc6:	6078      	str	r0, [r7, #4]
 8005cc8:	687b      	ldr	r3, [r7, #4]
 8005cca:	6bdb      	ldr	r3, [r3, #60]	; 0x3c
 8005ccc:	681b      	ldr	r3, [r3, #0]
 8005cce:	60fb      	str	r3, [r7, #12]
 8005cd0:	687b      	ldr	r3, [r7, #4]
 8005cd2:	681b      	ldr	r3, [r3, #0]
 8005cd4:	681b      	ldr	r3, [r3, #0]
 8005cd6:	60bb      	str	r3, [r7, #8]
 8005cd8:	687b      	ldr	r3, [r7, #4]
 8005cda:	6c1b      	ldr	r3, [r3, #64]	; 0x40
 8005cdc:	2204      	movs	r2, #4
 8005cde:	409a      	lsls	r2, r3
 8005ce0:	68fb      	ldr	r3, [r7, #12]
 8005ce2:	4013      	ands	r3, r2
 8005ce4:	2b00      	cmp	r3, #0
 8005ce6:	d04f      	beq.n	8005d88 <HAL_DMA_IRQHandler+0xc8>
 8005ce8:	68bb      	ldr	r3, [r7, #8]
 8005cea:	f003 0304 	and.w	r3, r3, #4
 8005cee:	2b00      	cmp	r3, #0
 8005cf0:	d04a      	beq.n	8005d88 <HAL_DMA_IRQHandler+0xc8>
 8005cf2:	687b      	ldr	r3, [r7, #4]
 8005cf4:	681b      	ldr	r3, [r3, #0]
 8005cf6:	681b      	ldr	r3, [r3, #0]
 8005cf8:	f003 0320 	and.w	r3, r3, #32
 8005cfc:	2b00      	cmp	r3, #0
 8005cfe:	d107      	bne.n	8005d10 <HAL_DMA_IRQHandler+0x50>
 8005d00:	687b      	ldr	r3, [r7, #4]
 8005d02:	681b      	ldr	r3, [r3, #0]
 8005d04:	681a      	ldr	r2, [r3, #0]
 8005d06:	687b      	ldr	r3, [r7, #4]
 8005d08:	681b      	ldr	r3, [r3, #0]
 8005d0a:	f022 0204 	bic.w	r2, r2, #4
 8005d0e:	601a      	str	r2, [r3, #0]
 8005d10:	687b      	ldr	r3, [r7, #4]
 8005d12:	681b      	ldr	r3, [r3, #0]
 8005d14:	4a66      	ldr	r2, [pc, #408]	; (8005eb0 <HAL_DMA_IRQHandler+0x1f0>)
 8005d16:	4293      	cmp	r3, r2
 8005d18:	d029      	beq.n	8005d6e <HAL_DMA_IRQHandler+0xae>
 8005d1a:	687b      	ldr	r3, [r7, #4]
 8005d1c:	681b      	ldr	r3, [r3, #0]
 8005d1e:	4a65      	ldr	r2, [pc, #404]	; (8005eb4 <HAL_DMA_IRQHandler+0x1f4>)
 8005d20:	4293      	cmp	r3, r2
 8005d22:	d022      	beq.n	8005d6a <HAL_DMA_IRQHandler+0xaa>
 8005d24:	687b      	ldr	r3, [r7, #4]
 8005d26:	681b      	ldr	r3, [r3, #0]
 8005d28:	4a63      	ldr	r2, [pc, #396]	; (8005eb8 <HAL_DMA_IRQHandler+0x1f8>)
 8005d2a:	4293      	cmp	r3, r2
 8005d2c:	d01a      	beq.n	8005d64 <HAL_DMA_IRQHandler+0xa4>
 8005d2e:	687b      	ldr	r3, [r7, #4]
 8005d30:	681b      	ldr	r3, [r3, #0]
 8005d32:	4a62      	ldr	r2, [pc, #392]	; (8005ebc <HAL_DMA_IRQHandler+0x1fc>)
 8005d34:	4293      	cmp	r3, r2
 8005d36:	d012      	beq.n	8005d5e <HAL_DMA_IRQHandler+0x9e>
 8005d38:	687b      	ldr	r3, [r7, #4]
 8005d3a:	681b      	ldr	r3, [r3, #0]
 8005d3c:	4a60      	ldr	r2, [pc, #384]	; (8005ec0 <HAL_DMA_IRQHandler+0x200>)
 8005d3e:	4293      	cmp	r3, r2
 8005d40:	d00a      	beq.n	8005d58 <HAL_DMA_IRQHandler+0x98>
 8005d42:	687b      	ldr	r3, [r7, #4]
 8005d44:	681b      	ldr	r3, [r3, #0]
 8005d46:	4a5f      	ldr	r2, [pc, #380]	; (8005ec4 <HAL_DMA_IRQHandler+0x204>)
 8005d48:	4293      	cmp	r3, r2
 8005d4a:	d102      	bne.n	8005d52 <HAL_DMA_IRQHandler+0x92>
 8005d4c:	f44f 0380 	mov.w	r3, #4194304	; 0x400000
 8005d50:	e00e      	b.n	8005d70 <HAL_DMA_IRQHandler+0xb0>
 8005d52:	f04f 6380 	mov.w	r3, #67108864	; 0x4000000
 8005d56:	e00b      	b.n	8005d70 <HAL_DMA_IRQHandler+0xb0>
 8005d58:	f44f 2380 	mov.w	r3, #262144	; 0x40000
 8005d5c:	e008      	b.n	8005d70 <HAL_DMA_IRQHandler+0xb0>
 8005d5e:	f44f 4380 	mov.w	r3, #16384	; 0x4000
 8005d62:	e005      	b.n	8005d70 <HAL_DMA_IRQHandler+0xb0>
 8005d64:	f44f 6380 	mov.w	r3, #1024	; 0x400
 8005d68:	e002      	b.n	8005d70 <HAL_DMA_IRQHandler+0xb0>
 8005d6a:	2340      	movs	r3, #64	; 0x40
 8005d6c:	e000      	b.n	8005d70 <HAL_DMA_IRQHandler+0xb0>
 8005d6e:	2304      	movs	r3, #4
 8005d70:	4a55      	ldr	r2, [pc, #340]	; (8005ec8 <HAL_DMA_IRQHandler+0x208>)
 8005d72:	6053      	str	r3, [r2, #4]
 8005d74:	687b      	ldr	r3, [r7, #4]
 8005d76:	6adb      	ldr	r3, [r3, #44]	; 0x2c
 8005d78:	2b00      	cmp	r3, #0
 8005d7a:	f000 8094 	beq.w	8005ea6 <HAL_DMA_IRQHandler+0x1e6>
 8005d7e:	687b      	ldr	r3, [r7, #4]
 8005d80:	6adb      	ldr	r3, [r3, #44]	; 0x2c
 8005d82:	6878      	ldr	r0, [r7, #4]
 8005d84:	4798      	blx	r3
 8005d86:	e08e      	b.n	8005ea6 <HAL_DMA_IRQHandler+0x1e6>
 8005d88:	687b      	ldr	r3, [r7, #4]
 8005d8a:	6c1b      	ldr	r3, [r3, #64]	; 0x40
 8005d8c:	2202      	movs	r2, #2
 8005d8e:	409a      	lsls	r2, r3
 8005d90:	68fb      	ldr	r3, [r7, #12]
 8005d92:	4013      	ands	r3, r2
 8005d94:	2b00      	cmp	r3, #0
 8005d96:	d056      	beq.n	8005e46 <HAL_DMA_IRQHandler+0x186>
 8005d98:	68bb      	ldr	r3, [r7, #8]
 8005d9a:	f003 0302 	and.w	r3, r3, #2
 8005d9e:	2b00      	cmp	r3, #0
 8005da0:	d051      	beq.n	8005e46 <HAL_DMA_IRQHandler+0x186>
 8005da2:	687b      	ldr	r3, [r7, #4]
 8005da4:	681b      	ldr	r3, [r3, #0]
 8005da6:	681b      	ldr	r3, [r3, #0]
 8005da8:	f003 0320 	and.w	r3, r3, #32
 8005dac:	2b00      	cmp	r3, #0
 8005dae:	d10b      	bne.n	8005dc8 <HAL_DMA_IRQHandler+0x108>
 8005db0:	687b      	ldr	r3, [r7, #4]
 8005db2:	681b      	ldr	r3, [r3, #0]
 8005db4:	681a      	ldr	r2, [r3, #0]
 8005db6:	687b      	ldr	r3, [r7, #4]
 8005db8:	681b      	ldr	r3, [r3, #0]
 8005dba:	f022 020a 	bic.w	r2, r2, #10
 8005dbe:	601a      	str	r2, [r3, #0]
 8005dc0:	687b      	ldr	r3, [r7, #4]
 8005dc2:	2201      	movs	r2, #1
 8005dc4:	f883 2021 	strb.w	r2, [r3, #33]	; 0x21
 8005dc8:	687b      	ldr	r3, [r7, #4]
 8005dca:	681b      	ldr	r3, [r3, #0]
 8005dcc:	4a38      	ldr	r2, [pc, #224]	; (8005eb0 <HAL_DMA_IRQHandler+0x1f0>)
 8005dce:	4293      	cmp	r3, r2
 8005dd0:	d029      	beq.n	8005e26 <HAL_DMA_IRQHandler+0x166>
 8005dd2:	687b      	ldr	r3, [r7, #4]
 8005dd4:	681b      	ldr	r3, [r3, #0]
 8005dd6:	4a37      	ldr	r2, [pc, #220]	; (8005eb4 <HAL_DMA_IRQHandler+0x1f4>)
 8005dd8:	4293      	cmp	r3, r2
 8005dda:	d022      	beq.n	8005e22 <HAL_DMA_IRQHandler+0x162>
 8005ddc:	687b      	ldr	r3, [r7, #4]
 8005dde:	681b      	ldr	r3, [r3, #0]
 8005de0:	4a35      	ldr	r2, [pc, #212]	; (8005eb8 <HAL_DMA_IRQHandler+0x1f8>)
 8005de2:	4293      	cmp	r3, r2
 8005de4:	d01a      	beq.n	8005e1c <HAL_DMA_IRQHandler+0x15c>
 8005de6:	687b      	ldr	r3, [r7, #4]
 8005de8:	681b      	ldr	r3, [r3, #0]
 8005dea:	4a34      	ldr	r2, [pc, #208]	; (8005ebc <HAL_DMA_IRQHandler+0x1fc>)
 8005dec:	4293      	cmp	r3, r2
 8005dee:	d012      	beq.n	8005e16 <HAL_DMA_IRQHandler+0x156>
 8005df0:	687b      	ldr	r3, [r7, #4]
 8005df2:	681b      	ldr	r3, [r3, #0]
 8005df4:	4a32      	ldr	r2, [pc, #200]	; (8005ec0 <HAL_DMA_IRQHandler+0x200>)
 8005df6:	4293      	cmp	r3, r2
 8005df8:	d00a      	beq.n	8005e10 <HAL_DMA_IRQHandler+0x150>
 8005dfa:	687b      	ldr	r3, [r7, #4]
 8005dfc:	681b      	ldr	r3, [r3, #0]
 8005dfe:	4a31      	ldr	r2, [pc, #196]	; (8005ec4 <HAL_DMA_IRQHandler+0x204>)
 8005e00:	4293      	cmp	r3, r2
 8005e02:	d102      	bne.n	8005e0a <HAL_DMA_IRQHandler+0x14a>
 8005e04:	f44f 1300 	mov.w	r3, #2097152	; 0x200000
 8005e08:	e00e      	b.n	8005e28 <HAL_DMA_IRQHandler+0x168>
 8005e0a:	f04f 7300 	mov.w	r3, #33554432	; 0x2000000
 8005e0e:	e00b      	b.n	8005e28 <HAL_DMA_IRQHandler+0x168>
 8005e10:	f44f 3300 	mov.w	r3, #131072	; 0x20000
 8005e14:	e008      	b.n	8005e28 <HAL_DMA_IRQHandler+0x168>
 8005e16:	f44f 5300 	mov.w	r3, #8192	; 0x2000
 8005e1a:	e005      	b.n	8005e28 <HAL_DMA_IRQHandler+0x168>
 8005e1c:	f44f 7300 	mov.w	r3, #512	; 0x200
 8005e20:	e002      	b.n	8005e28 <HAL_DMA_IRQHandler+0x168>
 8005e22:	2320      	movs	r3, #32
 8005e24:	e000      	b.n	8005e28 <HAL_DMA_IRQHandler+0x168>
 8005e26:	2302      	movs	r3, #2
 8005e28:	4a27      	ldr	r2, [pc, #156]	; (8005ec8 <HAL_DMA_IRQHandler+0x208>)
 8005e2a:	6053      	str	r3, [r2, #4]
 8005e2c:	687b      	ldr	r3, [r7, #4]
 8005e2e:	2200      	movs	r2, #0
 8005e30:	f883 2020 	strb.w	r2, [r3, #32]
 8005e34:	687b      	ldr	r3, [r7, #4]
 8005e36:	6a9b      	ldr	r3, [r3, #40]	; 0x28
 8005e38:	2b00      	cmp	r3, #0
 8005e3a:	d034      	beq.n	8005ea6 <HAL_DMA_IRQHandler+0x1e6>
 8005e3c:	687b      	ldr	r3, [r7, #4]
 8005e3e:	6a9b      	ldr	r3, [r3, #40]	; 0x28
 8005e40:	6878      	ldr	r0, [r7, #4]
 8005e42:	4798      	blx	r3
 8005e44:	e02f      	b.n	8005ea6 <HAL_DMA_IRQHandler+0x1e6>
 8005e46:	687b      	ldr	r3, [r7, #4]
 8005e48:	6c1b      	ldr	r3, [r3, #64]	; 0x40
 8005e4a:	2208      	movs	r2, #8
 8005e4c:	409a      	lsls	r2, r3
 8005e4e:	68fb      	ldr	r3, [r7, #12]
 8005e50:	4013      	ands	r3, r2
 8005e52:	2b00      	cmp	r3, #0
 8005e54:	d028      	beq.n	8005ea8 <HAL_DMA_IRQHandler+0x1e8>
 8005e56:	68bb      	ldr	r3, [r7, #8]
 8005e58:	f003 0308 	and.w	r3, r3, #8
 8005e5c:	2b00      	cmp	r3, #0
 8005e5e:	d023      	beq.n	8005ea8 <HAL_DMA_IRQHandler+0x1e8>
 8005e60:	687b      	ldr	r3, [r7, #4]
 8005e62:	681b      	ldr	r3, [r3, #0]
 8005e64:	681a      	ldr	r2, [r3, #0]
 8005e66:	687b      	ldr	r3, [r7, #4]
 8005e68:	681b      	ldr	r3, [r3, #0]
 8005e6a:	f022 020e 	bic.w	r2, r2, #14
 8005e6e:	601a      	str	r2, [r3, #0]
 8005e70:	687b      	ldr	r3, [r7, #4]
 8005e72:	6c1a      	ldr	r2, [r3, #64]	; 0x40
 8005e74:	687b      	ldr	r3, [r7, #4]
 8005e76:	6bdb      	ldr	r3, [r3, #60]	; 0x3c
 8005e78:	2101      	movs	r1, #1
 8005e7a:	fa01 f202 	lsl.w	r2, r1, r2
 8005e7e:	605a      	str	r2, [r3, #4]
 8005e80:	687b      	ldr	r3, [r7, #4]
 8005e82:	2201      	movs	r2, #1
 8005e84:	639a      	str	r2, [r3, #56]	; 0x38
 8005e86:	687b      	ldr	r3, [r7, #4]
 8005e88:	2201      	movs	r2, #1
 8005e8a:	f883 2021 	strb.w	r2, [r3, #33]	; 0x21
 8005e8e:	687b      	ldr	r3, [r7, #4]
 8005e90:	2200      	movs	r2, #0
 8005e92:	f883 2020 	strb.w	r2, [r3, #32]
 8005e96:	687b      	ldr	r3, [r7, #4]
 8005e98:	6b1b      	ldr	r3, [r3, #48]	; 0x30
 8005e9a:	2b00      	cmp	r3, #0
 8005e9c:	d004      	beq.n	8005ea8 <HAL_DMA_IRQHandler+0x1e8>
 8005e9e:	687b      	ldr	r3, [r7, #4]
 8005ea0:	6b1b      	ldr	r3, [r3, #48]	; 0x30
 8005ea2:	6878      	ldr	r0, [r7, #4]
 8005ea4:	4798      	blx	r3
 8005ea6:	bf00      	nop
 8005ea8:	bf00      	nop
 8005eaa:	3710      	adds	r7, #16
 8005eac:	46bd      	mov	sp, r7
 8005eae:	bd80      	pop	{r7, pc}
 8005eb0:	40020008 	.word	0x40020008
 8005eb4:	4002001c 	.word	0x4002001c
 8005eb8:	40020030 	.word	0x40020030
 8005ebc:	40020044 	.word	0x40020044
 8005ec0:	40020058 	.word	0x40020058
 8005ec4:	4002006c 	.word	0x4002006c
 8005ec8:	40020000 	.word	0x40020000

08005ecc <DMA_SetConfig>:
 8005ecc:	b480      	push	{r7}
 8005ece:	b085      	sub	sp, #20
 8005ed0:	af00      	add	r7, sp, #0
 8005ed2:	60f8      	str	r0, [r7, #12]
 8005ed4:	60b9      	str	r1, [r7, #8]
 8005ed6:	607a      	str	r2, [r7, #4]
 8005ed8:	603b      	str	r3, [r7, #0]
 8005eda:	68fb      	ldr	r3, [r7, #12]
 8005edc:	6c1a      	ldr	r2, [r3, #64]	; 0x40
 8005ede:	68fb      	ldr	r3, [r7, #12]
 8005ee0:	6bdb      	ldr	r3, [r3, #60]	; 0x3c
 8005ee2:	2101      	movs	r1, #1
 8005ee4:	fa01 f202 	lsl.w	r2, r1, r2
 8005ee8:	605a      	str	r2, [r3, #4]
 8005eea:	68fb      	ldr	r3, [r7, #12]
 8005eec:	681b      	ldr	r3, [r3, #0]
 8005eee:	683a      	ldr	r2, [r7, #0]
 8005ef0:	605a      	str	r2, [r3, #4]
 8005ef2:	68fb      	ldr	r3, [r7, #12]
 8005ef4:	685b      	ldr	r3, [r3, #4]
 8005ef6:	2b10      	cmp	r3, #16
 8005ef8:	d108      	bne.n	8005f0c <DMA_SetConfig+0x40>
 8005efa:	68fb      	ldr	r3, [r7, #12]
 8005efc:	681b      	ldr	r3, [r3, #0]
 8005efe:	687a      	ldr	r2, [r7, #4]
 8005f00:	609a      	str	r2, [r3, #8]
 8005f02:	68fb      	ldr	r3, [r7, #12]
 8005f04:	681b      	ldr	r3, [r3, #0]
 8005f06:	68ba      	ldr	r2, [r7, #8]
 8005f08:	60da      	str	r2, [r3, #12]
 8005f0a:	e007      	b.n	8005f1c <DMA_SetConfig+0x50>
 8005f0c:	68fb      	ldr	r3, [r7, #12]
 8005f0e:	681b      	ldr	r3, [r3, #0]
 8005f10:	68ba      	ldr	r2, [r7, #8]
 8005f12:	609a      	str	r2, [r3, #8]
 8005f14:	68fb      	ldr	r3, [r7, #12]
 8005f16:	681b      	ldr	r3, [r3, #0]
 8005f18:	687a      	ldr	r2, [r7, #4]
 8005f1a:	60da      	str	r2, [r3, #12]
 8005f1c:	bf00      	nop
 8005f1e:	3714      	adds	r7, #20
 8005f20:	46bd      	mov	sp, r7
 8005f22:	bc80      	pop	{r7}
 8005f24:	4770      	bx	lr
	...

08005f28 <HAL_FLASH_Program>:
 8005f28:	b5f0      	push	{r4, r5, r6, r7, lr}
 8005f2a:	b087      	sub	sp, #28
 8005f2c:	af00      	add	r7, sp, #0
 8005f2e:	60f8      	str	r0, [r7, #12]
 8005f30:	60b9      	str	r1, [r7, #8]
 8005f32:	e9c7 2300 	strd	r2, r3, [r7]
 8005f36:	2301      	movs	r3, #1
 8005f38:	75fb      	strb	r3, [r7, #23]
 8005f3a:	2300      	movs	r3, #0
 8005f3c:	75bb      	strb	r3, [r7, #22]
 8005f3e:	2300      	movs	r3, #0
 8005f40:	757b      	strb	r3, [r7, #21]
 8005f42:	4b2f      	ldr	r3, [pc, #188]	; (8006000 <HAL_FLASH_Program+0xd8>)
 8005f44:	7e1b      	ldrb	r3, [r3, #24]
 8005f46:	2b01      	cmp	r3, #1
 8005f48:	d101      	bne.n	8005f4e <HAL_FLASH_Program+0x26>
 8005f4a:	2302      	movs	r3, #2
 8005f4c:	e054      	b.n	8005ff8 <HAL_FLASH_Program+0xd0>
 8005f4e:	4b2c      	ldr	r3, [pc, #176]	; (8006000 <HAL_FLASH_Program+0xd8>)
 8005f50:	2201      	movs	r2, #1
 8005f52:	761a      	strb	r2, [r3, #24]
 8005f54:	f24c 3050 	movw	r0, #50000	; 0xc350
 8005f58:	f000 f99e 	bl	8006298 <FLASH_WaitForLastOperation>
 8005f5c:	4603      	mov	r3, r0
 8005f5e:	75fb      	strb	r3, [r7, #23]
 8005f60:	7dfb      	ldrb	r3, [r7, #23]
 8005f62:	2b00      	cmp	r3, #0
 8005f64:	d144      	bne.n	8005ff0 <HAL_FLASH_Program+0xc8>
 8005f66:	68fb      	ldr	r3, [r7, #12]
 8005f68:	2b01      	cmp	r3, #1
 8005f6a:	d102      	bne.n	8005f72 <HAL_FLASH_Program+0x4a>
 8005f6c:	2301      	movs	r3, #1
 8005f6e:	757b      	strb	r3, [r7, #21]
 8005f70:	e007      	b.n	8005f82 <HAL_FLASH_Program+0x5a>
 8005f72:	68fb      	ldr	r3, [r7, #12]
 8005f74:	2b02      	cmp	r3, #2
 8005f76:	d102      	bne.n	8005f7e <HAL_FLASH_Program+0x56>
 8005f78:	2302      	movs	r3, #2
 8005f7a:	757b      	strb	r3, [r7, #21]
 8005f7c:	e001      	b.n	8005f82 <HAL_FLASH_Program+0x5a>
 8005f7e:	2304      	movs	r3, #4
 8005f80:	757b      	strb	r3, [r7, #21]
 8005f82:	2300      	movs	r3, #0
 8005f84:	75bb      	strb	r3, [r7, #22]
 8005f86:	e02d      	b.n	8005fe4 <HAL_FLASH_Program+0xbc>
 8005f88:	7dbb      	ldrb	r3, [r7, #22]
 8005f8a:	005a      	lsls	r2, r3, #1
 8005f8c:	68bb      	ldr	r3, [r7, #8]
 8005f8e:	eb02 0c03 	add.w	ip, r2, r3
 8005f92:	7dbb      	ldrb	r3, [r7, #22]
 8005f94:	0119      	lsls	r1, r3, #4
 8005f96:	e9d7 2300 	ldrd	r2, r3, [r7]
 8005f9a:	f1c1 0620 	rsb	r6, r1, #32
 8005f9e:	f1a1 0020 	sub.w	r0, r1, #32
 8005fa2:	fa22 f401 	lsr.w	r4, r2, r1
 8005fa6:	fa03 f606 	lsl.w	r6, r3, r6
 8005faa:	4334      	orrs	r4, r6
 8005fac:	fa23 f000 	lsr.w	r0, r3, r0
 8005fb0:	4304      	orrs	r4, r0
 8005fb2:	fa23 f501 	lsr.w	r5, r3, r1
 8005fb6:	b2a3      	uxth	r3, r4
 8005fb8:	4619      	mov	r1, r3
 8005fba:	4660      	mov	r0, ip
 8005fbc:	f000 f950 	bl	8006260 <FLASH_Program_HalfWord>
 8005fc0:	f24c 3050 	movw	r0, #50000	; 0xc350
 8005fc4:	f000 f968 	bl	8006298 <FLASH_WaitForLastOperation>
 8005fc8:	4603      	mov	r3, r0
 8005fca:	75fb      	strb	r3, [r7, #23]
 8005fcc:	4b0d      	ldr	r3, [pc, #52]	; (8006004 <HAL_FLASH_Program+0xdc>)
 8005fce:	691b      	ldr	r3, [r3, #16]
 8005fd0:	4a0c      	ldr	r2, [pc, #48]	; (8006004 <HAL_FLASH_Program+0xdc>)
 8005fd2:	f023 0301 	bic.w	r3, r3, #1
 8005fd6:	6113      	str	r3, [r2, #16]
 8005fd8:	7dfb      	ldrb	r3, [r7, #23]
 8005fda:	2b00      	cmp	r3, #0
 8005fdc:	d107      	bne.n	8005fee <HAL_FLASH_Program+0xc6>
 8005fde:	7dbb      	ldrb	r3, [r7, #22]
 8005fe0:	3301      	adds	r3, #1
 8005fe2:	75bb      	strb	r3, [r7, #22]
 8005fe4:	7dba      	ldrb	r2, [r7, #22]
 8005fe6:	7d7b      	ldrb	r3, [r7, #21]
 8005fe8:	429a      	cmp	r2, r3
 8005fea:	d3cd      	bcc.n	8005f88 <HAL_FLASH_Program+0x60>
 8005fec:	e000      	b.n	8005ff0 <HAL_FLASH_Program+0xc8>
 8005fee:	bf00      	nop
 8005ff0:	4b03      	ldr	r3, [pc, #12]	; (8006000 <HAL_FLASH_Program+0xd8>)
 8005ff2:	2200      	movs	r2, #0
 8005ff4:	761a      	strb	r2, [r3, #24]
 8005ff6:	7dfb      	ldrb	r3, [r7, #23]
 8005ff8:	4618      	mov	r0, r3
 8005ffa:	371c      	adds	r7, #28
 8005ffc:	46bd      	mov	sp, r7
 8005ffe:	bdf0      	pop	{r4, r5, r6, r7, pc}
 8006000:	20000a10 	.word	0x20000a10
 8006004:	40022000 	.word	0x40022000

08006008 <HAL_FLASH_IRQHandler>:
 8006008:	b580      	push	{r7, lr}
 800600a:	b082      	sub	sp, #8
 800600c:	af00      	add	r7, sp, #0
 800600e:	2300      	movs	r3, #0
 8006010:	607b      	str	r3, [r7, #4]
 8006012:	4b6d      	ldr	r3, [pc, #436]	; (80061c8 <HAL_FLASH_IRQHandler+0x1c0>)
 8006014:	68db      	ldr	r3, [r3, #12]
 8006016:	f003 0310 	and.w	r3, r3, #16
 800601a:	2b00      	cmp	r3, #0
 800601c:	d105      	bne.n	800602a <HAL_FLASH_IRQHandler+0x22>
 800601e:	4b6a      	ldr	r3, [pc, #424]	; (80061c8 <HAL_FLASH_IRQHandler+0x1c0>)
 8006020:	68db      	ldr	r3, [r3, #12]
 8006022:	f003 0304 	and.w	r3, r3, #4
 8006026:	2b00      	cmp	r3, #0
 8006028:	d00e      	beq.n	8006048 <HAL_FLASH_IRQHandler+0x40>
 800602a:	4b68      	ldr	r3, [pc, #416]	; (80061cc <HAL_FLASH_IRQHandler+0x1c4>)
 800602c:	689b      	ldr	r3, [r3, #8]
 800602e:	607b      	str	r3, [r7, #4]
 8006030:	4b66      	ldr	r3, [pc, #408]	; (80061cc <HAL_FLASH_IRQHandler+0x1c4>)
 8006032:	f04f 32ff 	mov.w	r2, #4294967295
 8006036:	609a      	str	r2, [r3, #8]
 8006038:	f000 f974 	bl	8006324 <FLASH_SetErrorCode>
 800603c:	6878      	ldr	r0, [r7, #4]
 800603e:	f000 f8d0 	bl	80061e2 <HAL_FLASH_OperationErrorCallback>
 8006042:	4b62      	ldr	r3, [pc, #392]	; (80061cc <HAL_FLASH_IRQHandler+0x1c4>)
 8006044:	2200      	movs	r2, #0
 8006046:	701a      	strb	r2, [r3, #0]
 8006048:	4b5f      	ldr	r3, [pc, #380]	; (80061c8 <HAL_FLASH_IRQHandler+0x1c0>)
 800604a:	68db      	ldr	r3, [r3, #12]
 800604c:	f003 0320 	and.w	r3, r3, #32
 8006050:	2b00      	cmp	r3, #0
 8006052:	f000 80a0 	beq.w	8006196 <HAL_FLASH_IRQHandler+0x18e>
 8006056:	4b5c      	ldr	r3, [pc, #368]	; (80061c8 <HAL_FLASH_IRQHandler+0x1c0>)
 8006058:	2220      	movs	r2, #32
 800605a:	60da      	str	r2, [r3, #12]
 800605c:	4b5b      	ldr	r3, [pc, #364]	; (80061cc <HAL_FLASH_IRQHandler+0x1c4>)
 800605e:	781b      	ldrb	r3, [r3, #0]
 8006060:	b2db      	uxtb	r3, r3
 8006062:	2b00      	cmp	r3, #0
 8006064:	f000 8097 	beq.w	8006196 <HAL_FLASH_IRQHandler+0x18e>
 8006068:	4b58      	ldr	r3, [pc, #352]	; (80061cc <HAL_FLASH_IRQHandler+0x1c4>)
 800606a:	781b      	ldrb	r3, [r3, #0]
 800606c:	b2db      	uxtb	r3, r3
 800606e:	2b01      	cmp	r3, #1
 8006070:	d12d      	bne.n	80060ce <HAL_FLASH_IRQHandler+0xc6>
 8006072:	4b56      	ldr	r3, [pc, #344]	; (80061cc <HAL_FLASH_IRQHandler+0x1c4>)
 8006074:	685b      	ldr	r3, [r3, #4]
 8006076:	3b01      	subs	r3, #1
 8006078:	4a54      	ldr	r2, [pc, #336]	; (80061cc <HAL_FLASH_IRQHandler+0x1c4>)
 800607a:	6053      	str	r3, [r2, #4]
 800607c:	4b53      	ldr	r3, [pc, #332]	; (80061cc <HAL_FLASH_IRQHandler+0x1c4>)
 800607e:	685b      	ldr	r3, [r3, #4]
 8006080:	2b00      	cmp	r3, #0
 8006082:	d017      	beq.n	80060b4 <HAL_FLASH_IRQHandler+0xac>
 8006084:	4b51      	ldr	r3, [pc, #324]	; (80061cc <HAL_FLASH_IRQHandler+0x1c4>)
 8006086:	689b      	ldr	r3, [r3, #8]
 8006088:	607b      	str	r3, [r7, #4]
 800608a:	6878      	ldr	r0, [r7, #4]
 800608c:	f000 f8a0 	bl	80061d0 <HAL_FLASH_EndOfOperationCallback>
 8006090:	4b4e      	ldr	r3, [pc, #312]	; (80061cc <HAL_FLASH_IRQHandler+0x1c4>)
 8006092:	689b      	ldr	r3, [r3, #8]
 8006094:	f503 6380 	add.w	r3, r3, #1024	; 0x400
 8006098:	607b      	str	r3, [r7, #4]
 800609a:	4a4c      	ldr	r2, [pc, #304]	; (80061cc <HAL_FLASH_IRQHandler+0x1c4>)
 800609c:	687b      	ldr	r3, [r7, #4]
 800609e:	6093      	str	r3, [r2, #8]
 80060a0:	4b49      	ldr	r3, [pc, #292]	; (80061c8 <HAL_FLASH_IRQHandler+0x1c0>)
 80060a2:	691b      	ldr	r3, [r3, #16]
 80060a4:	4a48      	ldr	r2, [pc, #288]	; (80061c8 <HAL_FLASH_IRQHandler+0x1c0>)
 80060a6:	f023 0302 	bic.w	r3, r3, #2
 80060aa:	6113      	str	r3, [r2, #16]
 80060ac:	6878      	ldr	r0, [r7, #4]
 80060ae:	f000 fa11 	bl	80064d4 <FLASH_PageErase>
 80060b2:	e070      	b.n	8006196 <HAL_FLASH_IRQHandler+0x18e>
 80060b4:	f04f 33ff 	mov.w	r3, #4294967295
 80060b8:	607b      	str	r3, [r7, #4]
 80060ba:	4a44      	ldr	r2, [pc, #272]	; (80061cc <HAL_FLASH_IRQHandler+0x1c4>)
 80060bc:	687b      	ldr	r3, [r7, #4]
 80060be:	6093      	str	r3, [r2, #8]
 80060c0:	4b42      	ldr	r3, [pc, #264]	; (80061cc <HAL_FLASH_IRQHandler+0x1c4>)
 80060c2:	2200      	movs	r2, #0
 80060c4:	701a      	strb	r2, [r3, #0]
 80060c6:	6878      	ldr	r0, [r7, #4]
 80060c8:	f000 f882 	bl	80061d0 <HAL_FLASH_EndOfOperationCallback>
 80060cc:	e063      	b.n	8006196 <HAL_FLASH_IRQHandler+0x18e>
 80060ce:	4b3f      	ldr	r3, [pc, #252]	; (80061cc <HAL_FLASH_IRQHandler+0x1c4>)
 80060d0:	781b      	ldrb	r3, [r3, #0]
 80060d2:	b2db      	uxtb	r3, r3
 80060d4:	2b02      	cmp	r3, #2
 80060d6:	d10c      	bne.n	80060f2 <HAL_FLASH_IRQHandler+0xea>
 80060d8:	4b3b      	ldr	r3, [pc, #236]	; (80061c8 <HAL_FLASH_IRQHandler+0x1c0>)
 80060da:	691b      	ldr	r3, [r3, #16]
 80060dc:	4a3a      	ldr	r2, [pc, #232]	; (80061c8 <HAL_FLASH_IRQHandler+0x1c0>)
 80060de:	f023 0304 	bic.w	r3, r3, #4
 80060e2:	6113      	str	r3, [r2, #16]
 80060e4:	2000      	movs	r0, #0
 80060e6:	f000 f873 	bl	80061d0 <HAL_FLASH_EndOfOperationCallback>
 80060ea:	4b38      	ldr	r3, [pc, #224]	; (80061cc <HAL_FLASH_IRQHandler+0x1c4>)
 80060ec:	2200      	movs	r2, #0
 80060ee:	701a      	strb	r2, [r3, #0]
 80060f0:	e051      	b.n	8006196 <HAL_FLASH_IRQHandler+0x18e>
 80060f2:	4b36      	ldr	r3, [pc, #216]	; (80061cc <HAL_FLASH_IRQHandler+0x1c4>)
 80060f4:	685b      	ldr	r3, [r3, #4]
 80060f6:	3b01      	subs	r3, #1
 80060f8:	4a34      	ldr	r2, [pc, #208]	; (80061cc <HAL_FLASH_IRQHandler+0x1c4>)
 80060fa:	6053      	str	r3, [r2, #4]
 80060fc:	4b33      	ldr	r3, [pc, #204]	; (80061cc <HAL_FLASH_IRQHandler+0x1c4>)
 80060fe:	685b      	ldr	r3, [r3, #4]
 8006100:	2b00      	cmp	r3, #0
 8006102:	d024      	beq.n	800614e <HAL_FLASH_IRQHandler+0x146>
 8006104:	4b31      	ldr	r3, [pc, #196]	; (80061cc <HAL_FLASH_IRQHandler+0x1c4>)
 8006106:	689b      	ldr	r3, [r3, #8]
 8006108:	3302      	adds	r3, #2
 800610a:	4a30      	ldr	r2, [pc, #192]	; (80061cc <HAL_FLASH_IRQHandler+0x1c4>)
 800610c:	6093      	str	r3, [r2, #8]
 800610e:	4b2f      	ldr	r3, [pc, #188]	; (80061cc <HAL_FLASH_IRQHandler+0x1c4>)
 8006110:	689b      	ldr	r3, [r3, #8]
 8006112:	607b      	str	r3, [r7, #4]
 8006114:	4b2d      	ldr	r3, [pc, #180]	; (80061cc <HAL_FLASH_IRQHandler+0x1c4>)
 8006116:	e9d3 0104 	ldrd	r0, r1, [r3, #16]
 800611a:	f04f 0200 	mov.w	r2, #0
 800611e:	f04f 0300 	mov.w	r3, #0
 8006122:	0c02      	lsrs	r2, r0, #16
 8006124:	ea42 4201 	orr.w	r2, r2, r1, lsl #16
 8006128:	0c0b      	lsrs	r3, r1, #16
 800612a:	4928      	ldr	r1, [pc, #160]	; (80061cc <HAL_FLASH_IRQHandler+0x1c4>)
 800612c:	e9c1 2304 	strd	r2, r3, [r1, #16]
 8006130:	4b25      	ldr	r3, [pc, #148]	; (80061c8 <HAL_FLASH_IRQHandler+0x1c0>)
 8006132:	691b      	ldr	r3, [r3, #16]
 8006134:	4a24      	ldr	r2, [pc, #144]	; (80061c8 <HAL_FLASH_IRQHandler+0x1c0>)
 8006136:	f023 0301 	bic.w	r3, r3, #1
 800613a:	6113      	str	r3, [r2, #16]
 800613c:	4b23      	ldr	r3, [pc, #140]	; (80061cc <HAL_FLASH_IRQHandler+0x1c4>)
 800613e:	e9d3 2304 	ldrd	r2, r3, [r3, #16]
 8006142:	b293      	uxth	r3, r2
 8006144:	4619      	mov	r1, r3
 8006146:	6878      	ldr	r0, [r7, #4]
 8006148:	f000 f88a 	bl	8006260 <FLASH_Program_HalfWord>
 800614c:	e023      	b.n	8006196 <HAL_FLASH_IRQHandler+0x18e>
 800614e:	4b1f      	ldr	r3, [pc, #124]	; (80061cc <HAL_FLASH_IRQHandler+0x1c4>)
 8006150:	781b      	ldrb	r3, [r3, #0]
 8006152:	b2db      	uxtb	r3, r3
 8006154:	2b03      	cmp	r3, #3
 8006156:	d105      	bne.n	8006164 <HAL_FLASH_IRQHandler+0x15c>
 8006158:	4b1c      	ldr	r3, [pc, #112]	; (80061cc <HAL_FLASH_IRQHandler+0x1c4>)
 800615a:	689b      	ldr	r3, [r3, #8]
 800615c:	4618      	mov	r0, r3
 800615e:	f000 f837 	bl	80061d0 <HAL_FLASH_EndOfOperationCallback>
 8006162:	e011      	b.n	8006188 <HAL_FLASH_IRQHandler+0x180>
 8006164:	4b19      	ldr	r3, [pc, #100]	; (80061cc <HAL_FLASH_IRQHandler+0x1c4>)
 8006166:	781b      	ldrb	r3, [r3, #0]
 8006168:	b2db      	uxtb	r3, r3
 800616a:	2b04      	cmp	r3, #4
 800616c:	d106      	bne.n	800617c <HAL_FLASH_IRQHandler+0x174>
 800616e:	4b17      	ldr	r3, [pc, #92]	; (80061cc <HAL_FLASH_IRQHandler+0x1c4>)
 8006170:	689b      	ldr	r3, [r3, #8]
 8006172:	3b02      	subs	r3, #2
 8006174:	4618      	mov	r0, r3
 8006176:	f000 f82b 	bl	80061d0 <HAL_FLASH_EndOfOperationCallback>
 800617a:	e005      	b.n	8006188 <HAL_FLASH_IRQHandler+0x180>
 800617c:	4b13      	ldr	r3, [pc, #76]	; (80061cc <HAL_FLASH_IRQHandler+0x1c4>)
 800617e:	689b      	ldr	r3, [r3, #8]
 8006180:	3b06      	subs	r3, #6
 8006182:	4618      	mov	r0, r3
 8006184:	f000 f824 	bl	80061d0 <HAL_FLASH_EndOfOperationCallback>
 8006188:	4b10      	ldr	r3, [pc, #64]	; (80061cc <HAL_FLASH_IRQHandler+0x1c4>)
 800618a:	f04f 32ff 	mov.w	r2, #4294967295
 800618e:	609a      	str	r2, [r3, #8]
 8006190:	4b0e      	ldr	r3, [pc, #56]	; (80061cc <HAL_FLASH_IRQHandler+0x1c4>)
 8006192:	2200      	movs	r2, #0
 8006194:	701a      	strb	r2, [r3, #0]
 8006196:	4b0d      	ldr	r3, [pc, #52]	; (80061cc <HAL_FLASH_IRQHandler+0x1c4>)
 8006198:	781b      	ldrb	r3, [r3, #0]
 800619a:	b2db      	uxtb	r3, r3
 800619c:	2b00      	cmp	r3, #0
 800619e:	d10e      	bne.n	80061be <HAL_FLASH_IRQHandler+0x1b6>
 80061a0:	4b09      	ldr	r3, [pc, #36]	; (80061c8 <HAL_FLASH_IRQHandler+0x1c0>)
 80061a2:	691b      	ldr	r3, [r3, #16]
 80061a4:	4a08      	ldr	r2, [pc, #32]	; (80061c8 <HAL_FLASH_IRQHandler+0x1c0>)
 80061a6:	f023 0307 	bic.w	r3, r3, #7
 80061aa:	6113      	str	r3, [r2, #16]
 80061ac:	4b06      	ldr	r3, [pc, #24]	; (80061c8 <HAL_FLASH_IRQHandler+0x1c0>)
 80061ae:	691b      	ldr	r3, [r3, #16]
 80061b0:	4a05      	ldr	r2, [pc, #20]	; (80061c8 <HAL_FLASH_IRQHandler+0x1c0>)
 80061b2:	f423 53a0 	bic.w	r3, r3, #5120	; 0x1400
 80061b6:	6113      	str	r3, [r2, #16]
 80061b8:	4b04      	ldr	r3, [pc, #16]	; (80061cc <HAL_FLASH_IRQHandler+0x1c4>)
 80061ba:	2200      	movs	r2, #0
 80061bc:	761a      	strb	r2, [r3, #24]
 80061be:	bf00      	nop
 80061c0:	3708      	adds	r7, #8
 80061c2:	46bd      	mov	sp, r7
 80061c4:	bd80      	pop	{r7, pc}
 80061c6:	bf00      	nop
 80061c8:	40022000 	.word	0x40022000
 80061cc:	20000a10 	.word	0x20000a10

080061d0 <HAL_FLASH_EndOfOperationCallback>:
 80061d0:	b480      	push	{r7}
 80061d2:	b083      	sub	sp, #12
 80061d4:	af00      	add	r7, sp, #0
 80061d6:	6078      	str	r0, [r7, #4]
 80061d8:	bf00      	nop
 80061da:	370c      	adds	r7, #12
 80061dc:	46bd      	mov	sp, r7
 80061de:	bc80      	pop	{r7}
 80061e0:	4770      	bx	lr

080061e2 <HAL_FLASH_OperationErrorCallback>:
 80061e2:	b480      	push	{r7}
 80061e4:	b083      	sub	sp, #12
 80061e6:	af00      	add	r7, sp, #0
 80061e8:	6078      	str	r0, [r7, #4]
 80061ea:	bf00      	nop
 80061ec:	370c      	adds	r7, #12
 80061ee:	46bd      	mov	sp, r7
 80061f0:	bc80      	pop	{r7}
 80061f2:	4770      	bx	lr

080061f4 <HAL_FLASH_Unlock>:
 80061f4:	b480      	push	{r7}
 80061f6:	b083      	sub	sp, #12
 80061f8:	af00      	add	r7, sp, #0
 80061fa:	2300      	movs	r3, #0
 80061fc:	71fb      	strb	r3, [r7, #7]
 80061fe:	4b0d      	ldr	r3, [pc, #52]	; (8006234 <HAL_FLASH_Unlock+0x40>)
 8006200:	691b      	ldr	r3, [r3, #16]
 8006202:	f003 0380 	and.w	r3, r3, #128	; 0x80
 8006206:	2b00      	cmp	r3, #0
 8006208:	d00d      	beq.n	8006226 <HAL_FLASH_Unlock+0x32>
 800620a:	4b0a      	ldr	r3, [pc, #40]	; (8006234 <HAL_FLASH_Unlock+0x40>)
 800620c:	4a0a      	ldr	r2, [pc, #40]	; (8006238 <HAL_FLASH_Unlock+0x44>)
 800620e:	605a      	str	r2, [r3, #4]
 8006210:	4b08      	ldr	r3, [pc, #32]	; (8006234 <HAL_FLASH_Unlock+0x40>)
 8006212:	4a0a      	ldr	r2, [pc, #40]	; (800623c <HAL_FLASH_Unlock+0x48>)
 8006214:	605a      	str	r2, [r3, #4]
 8006216:	4b07      	ldr	r3, [pc, #28]	; (8006234 <HAL_FLASH_Unlock+0x40>)
 8006218:	691b      	ldr	r3, [r3, #16]
 800621a:	f003 0380 	and.w	r3, r3, #128	; 0x80
 800621e:	2b00      	cmp	r3, #0
 8006220:	d001      	beq.n	8006226 <HAL_FLASH_Unlock+0x32>
 8006222:	2301      	movs	r3, #1
 8006224:	71fb      	strb	r3, [r7, #7]
 8006226:	79fb      	ldrb	r3, [r7, #7]
 8006228:	4618      	mov	r0, r3
 800622a:	370c      	adds	r7, #12
 800622c:	46bd      	mov	sp, r7
 800622e:	bc80      	pop	{r7}
 8006230:	4770      	bx	lr
 8006232:	bf00      	nop
 8006234:	40022000 	.word	0x40022000
 8006238:	45670123 	.word	0x45670123
 800623c:	cdef89ab 	.word	0xcdef89ab

08006240 <HAL_FLASH_Lock>:
 8006240:	b480      	push	{r7}
 8006242:	af00      	add	r7, sp, #0
 8006244:	4b05      	ldr	r3, [pc, #20]	; (800625c <HAL_FLASH_Lock+0x1c>)
 8006246:	691b      	ldr	r3, [r3, #16]
 8006248:	4a04      	ldr	r2, [pc, #16]	; (800625c <HAL_FLASH_Lock+0x1c>)
 800624a:	f043 0380 	orr.w	r3, r3, #128	; 0x80
 800624e:	6113      	str	r3, [r2, #16]
 8006250:	2300      	movs	r3, #0
 8006252:	4618      	mov	r0, r3
 8006254:	46bd      	mov	sp, r7
 8006256:	bc80      	pop	{r7}
 8006258:	4770      	bx	lr
 800625a:	bf00      	nop
 800625c:	40022000 	.word	0x40022000

08006260 <FLASH_Program_HalfWord>:
 8006260:	b480      	push	{r7}
 8006262:	b083      	sub	sp, #12
 8006264:	af00      	add	r7, sp, #0
 8006266:	6078      	str	r0, [r7, #4]
 8006268:	460b      	mov	r3, r1
 800626a:	807b      	strh	r3, [r7, #2]
 800626c:	4b08      	ldr	r3, [pc, #32]	; (8006290 <FLASH_Program_HalfWord+0x30>)
 800626e:	2200      	movs	r2, #0
 8006270:	61da      	str	r2, [r3, #28]
 8006272:	4b08      	ldr	r3, [pc, #32]	; (8006294 <FLASH_Program_HalfWord+0x34>)
 8006274:	691b      	ldr	r3, [r3, #16]
 8006276:	4a07      	ldr	r2, [pc, #28]	; (8006294 <FLASH_Program_HalfWord+0x34>)
 8006278:	f043 0301 	orr.w	r3, r3, #1
 800627c:	6113      	str	r3, [r2, #16]
 800627e:	687b      	ldr	r3, [r7, #4]
 8006280:	887a      	ldrh	r2, [r7, #2]
 8006282:	801a      	strh	r2, [r3, #0]
 8006284:	bf00      	nop
 8006286:	370c      	adds	r7, #12
 8006288:	46bd      	mov	sp, r7
 800628a:	bc80      	pop	{r7}
 800628c:	4770      	bx	lr
 800628e:	bf00      	nop
 8006290:	20000a10 	.word	0x20000a10
 8006294:	40022000 	.word	0x40022000

08006298 <FLASH_WaitForLastOperation>:
 8006298:	b580      	push	{r7, lr}
 800629a:	b084      	sub	sp, #16
 800629c:	af00      	add	r7, sp, #0
 800629e:	6078      	str	r0, [r7, #4]
 80062a0:	f7fe fe82 	bl	8004fa8 <HAL_GetTick>
 80062a4:	60f8      	str	r0, [r7, #12]
 80062a6:	e010      	b.n	80062ca <FLASH_WaitForLastOperation+0x32>
 80062a8:	687b      	ldr	r3, [r7, #4]
 80062aa:	f1b3 3fff 	cmp.w	r3, #4294967295
 80062ae:	d00c      	beq.n	80062ca <FLASH_WaitForLastOperation+0x32>
 80062b0:	687b      	ldr	r3, [r7, #4]
 80062b2:	2b00      	cmp	r3, #0
 80062b4:	d007      	beq.n	80062c6 <FLASH_WaitForLastOperation+0x2e>
 80062b6:	f7fe fe77 	bl	8004fa8 <HAL_GetTick>
 80062ba:	4602      	mov	r2, r0
 80062bc:	68fb      	ldr	r3, [r7, #12]
 80062be:	1ad3      	subs	r3, r2, r3
 80062c0:	687a      	ldr	r2, [r7, #4]
 80062c2:	429a      	cmp	r2, r3
 80062c4:	d201      	bcs.n	80062ca <FLASH_WaitForLastOperation+0x32>
 80062c6:	2303      	movs	r3, #3
 80062c8:	e025      	b.n	8006316 <FLASH_WaitForLastOperation+0x7e>
 80062ca:	4b15      	ldr	r3, [pc, #84]	; (8006320 <FLASH_WaitForLastOperation+0x88>)
 80062cc:	68db      	ldr	r3, [r3, #12]
 80062ce:	f003 0301 	and.w	r3, r3, #1
 80062d2:	2b00      	cmp	r3, #0
 80062d4:	d1e8      	bne.n	80062a8 <FLASH_WaitForLastOperation+0x10>
 80062d6:	4b12      	ldr	r3, [pc, #72]	; (8006320 <FLASH_WaitForLastOperation+0x88>)
 80062d8:	68db      	ldr	r3, [r3, #12]
 80062da:	f003 0320 	and.w	r3, r3, #32
 80062de:	2b00      	cmp	r3, #0
 80062e0:	d002      	beq.n	80062e8 <FLASH_WaitForLastOperation+0x50>
 80062e2:	4b0f      	ldr	r3, [pc, #60]	; (8006320 <FLASH_WaitForLastOperation+0x88>)
 80062e4:	2220      	movs	r2, #32
 80062e6:	60da      	str	r2, [r3, #12]
 80062e8:	4b0d      	ldr	r3, [pc, #52]	; (8006320 <FLASH_WaitForLastOperation+0x88>)
 80062ea:	68db      	ldr	r3, [r3, #12]
 80062ec:	f003 0310 	and.w	r3, r3, #16
 80062f0:	2b00      	cmp	r3, #0
 80062f2:	d10b      	bne.n	800630c <FLASH_WaitForLastOperation+0x74>
 80062f4:	4b0a      	ldr	r3, [pc, #40]	; (8006320 <FLASH_WaitForLastOperation+0x88>)
 80062f6:	69db      	ldr	r3, [r3, #28]
 80062f8:	f003 0301 	and.w	r3, r3, #1
 80062fc:	2b00      	cmp	r3, #0
 80062fe:	d105      	bne.n	800630c <FLASH_WaitForLastOperation+0x74>
 8006300:	4b07      	ldr	r3, [pc, #28]	; (8006320 <FLASH_WaitForLastOperation+0x88>)
 8006302:	68db      	ldr	r3, [r3, #12]
 8006304:	f003 0304 	and.w	r3, r3, #4
 8006308:	2b00      	cmp	r3, #0
 800630a:	d003      	beq.n	8006314 <FLASH_WaitForLastOperation+0x7c>
 800630c:	f000 f80a 	bl	8006324 <FLASH_SetErrorCode>
 8006310:	2301      	movs	r3, #1
 8006312:	e000      	b.n	8006316 <FLASH_WaitForLastOperation+0x7e>
 8006314:	2300      	movs	r3, #0
 8006316:	4618      	mov	r0, r3
 8006318:	3710      	adds	r7, #16
 800631a:	46bd      	mov	sp, r7
 800631c:	bd80      	pop	{r7, pc}
 800631e:	bf00      	nop
 8006320:	40022000 	.word	0x40022000

08006324 <FLASH_SetErrorCode>:
 8006324:	b480      	push	{r7}
 8006326:	b083      	sub	sp, #12
 8006328:	af00      	add	r7, sp, #0
 800632a:	2300      	movs	r3, #0
 800632c:	607b      	str	r3, [r7, #4]
 800632e:	4b23      	ldr	r3, [pc, #140]	; (80063bc <FLASH_SetErrorCode+0x98>)
 8006330:	68db      	ldr	r3, [r3, #12]
 8006332:	f003 0310 	and.w	r3, r3, #16
 8006336:	2b00      	cmp	r3, #0
 8006338:	d009      	beq.n	800634e <FLASH_SetErrorCode+0x2a>
 800633a:	4b21      	ldr	r3, [pc, #132]	; (80063c0 <FLASH_SetErrorCode+0x9c>)
 800633c:	69db      	ldr	r3, [r3, #28]
 800633e:	f043 0302 	orr.w	r3, r3, #2
 8006342:	4a1f      	ldr	r2, [pc, #124]	; (80063c0 <FLASH_SetErrorCode+0x9c>)
 8006344:	61d3      	str	r3, [r2, #28]
 8006346:	687b      	ldr	r3, [r7, #4]
 8006348:	f043 0310 	orr.w	r3, r3, #16
 800634c:	607b      	str	r3, [r7, #4]
 800634e:	4b1b      	ldr	r3, [pc, #108]	; (80063bc <FLASH_SetErrorCode+0x98>)
 8006350:	68db      	ldr	r3, [r3, #12]
 8006352:	f003 0304 	and.w	r3, r3, #4
 8006356:	2b00      	cmp	r3, #0
 8006358:	d009      	beq.n	800636e <FLASH_SetErrorCode+0x4a>
 800635a:	4b19      	ldr	r3, [pc, #100]	; (80063c0 <FLASH_SetErrorCode+0x9c>)
 800635c:	69db      	ldr	r3, [r3, #28]
 800635e:	f043 0301 	orr.w	r3, r3, #1
 8006362:	4a17      	ldr	r2, [pc, #92]	; (80063c0 <FLASH_SetErrorCode+0x9c>)
 8006364:	61d3      	str	r3, [r2, #28]
 8006366:	687b      	ldr	r3, [r7, #4]
 8006368:	f043 0304 	orr.w	r3, r3, #4
 800636c:	607b      	str	r3, [r7, #4]
 800636e:	4b13      	ldr	r3, [pc, #76]	; (80063bc <FLASH_SetErrorCode+0x98>)
 8006370:	69db      	ldr	r3, [r3, #28]
 8006372:	f003 0301 	and.w	r3, r3, #1
 8006376:	2b00      	cmp	r3, #0
 8006378:	d00b      	beq.n	8006392 <FLASH_SetErrorCode+0x6e>
 800637a:	4b11      	ldr	r3, [pc, #68]	; (80063c0 <FLASH_SetErrorCode+0x9c>)
 800637c:	69db      	ldr	r3, [r3, #28]
 800637e:	f043 0304 	orr.w	r3, r3, #4
 8006382:	4a0f      	ldr	r2, [pc, #60]	; (80063c0 <FLASH_SetErrorCode+0x9c>)
 8006384:	61d3      	str	r3, [r2, #28]
 8006386:	4b0d      	ldr	r3, [pc, #52]	; (80063bc <FLASH_SetErrorCode+0x98>)
 8006388:	69db      	ldr	r3, [r3, #28]
 800638a:	4a0c      	ldr	r2, [pc, #48]	; (80063bc <FLASH_SetErrorCode+0x98>)
 800638c:	f023 0301 	bic.w	r3, r3, #1
 8006390:	61d3      	str	r3, [r2, #28]
 8006392:	687b      	ldr	r3, [r7, #4]
 8006394:	f240 1201 	movw	r2, #257	; 0x101
 8006398:	4293      	cmp	r3, r2
 800639a:	d106      	bne.n	80063aa <FLASH_SetErrorCode+0x86>
 800639c:	4b07      	ldr	r3, [pc, #28]	; (80063bc <FLASH_SetErrorCode+0x98>)
 800639e:	69db      	ldr	r3, [r3, #28]
 80063a0:	4a06      	ldr	r2, [pc, #24]	; (80063bc <FLASH_SetErrorCode+0x98>)
 80063a2:	f023 0301 	bic.w	r3, r3, #1
 80063a6:	61d3      	str	r3, [r2, #28]
 80063a8:	e002      	b.n	80063b0 <FLASH_SetErrorCode+0x8c>
 80063aa:	4a04      	ldr	r2, [pc, #16]	; (80063bc <FLASH_SetErrorCode+0x98>)
 80063ac:	687b      	ldr	r3, [r7, #4]
 80063ae:	60d3      	str	r3, [r2, #12]
 80063b0:	bf00      	nop
 80063b2:	370c      	adds	r7, #12
 80063b4:	46bd      	mov	sp, r7
 80063b6:	bc80      	pop	{r7}
 80063b8:	4770      	bx	lr
 80063ba:	bf00      	nop
 80063bc:	40022000 	.word	0x40022000
 80063c0:	20000a10 	.word	0x20000a10

080063c4 <HAL_FLASHEx_Erase>:
 80063c4:	b580      	push	{r7, lr}
 80063c6:	b084      	sub	sp, #16
 80063c8:	af00      	add	r7, sp, #0
 80063ca:	6078      	str	r0, [r7, #4]
 80063cc:	6039      	str	r1, [r7, #0]
 80063ce:	2301      	movs	r3, #1
 80063d0:	73fb      	strb	r3, [r7, #15]
 80063d2:	2300      	movs	r3, #0
 80063d4:	60bb      	str	r3, [r7, #8]
 80063d6:	4b2f      	ldr	r3, [pc, #188]	; (8006494 <HAL_FLASHEx_Erase+0xd0>)
 80063d8:	7e1b      	ldrb	r3, [r3, #24]
 80063da:	2b01      	cmp	r3, #1
 80063dc:	d101      	bne.n	80063e2 <HAL_FLASHEx_Erase+0x1e>
 80063de:	2302      	movs	r3, #2
 80063e0:	e053      	b.n	800648a <HAL_FLASHEx_Erase+0xc6>
 80063e2:	4b2c      	ldr	r3, [pc, #176]	; (8006494 <HAL_FLASHEx_Erase+0xd0>)
 80063e4:	2201      	movs	r2, #1
 80063e6:	761a      	strb	r2, [r3, #24]
 80063e8:	687b      	ldr	r3, [r7, #4]
 80063ea:	681b      	ldr	r3, [r3, #0]
 80063ec:	2b02      	cmp	r3, #2
 80063ee:	d116      	bne.n	800641e <HAL_FLASHEx_Erase+0x5a>
 80063f0:	f24c 3050 	movw	r0, #50000	; 0xc350
 80063f4:	f7ff ff50 	bl	8006298 <FLASH_WaitForLastOperation>
 80063f8:	4603      	mov	r3, r0
 80063fa:	2b00      	cmp	r3, #0
 80063fc:	d141      	bne.n	8006482 <HAL_FLASHEx_Erase+0xbe>
 80063fe:	2001      	movs	r0, #1
 8006400:	f000 f84c 	bl	800649c <FLASH_MassErase>
 8006404:	f24c 3050 	movw	r0, #50000	; 0xc350
 8006408:	f7ff ff46 	bl	8006298 <FLASH_WaitForLastOperation>
 800640c:	4603      	mov	r3, r0
 800640e:	73fb      	strb	r3, [r7, #15]
 8006410:	4b21      	ldr	r3, [pc, #132]	; (8006498 <HAL_FLASHEx_Erase+0xd4>)
 8006412:	691b      	ldr	r3, [r3, #16]
 8006414:	4a20      	ldr	r2, [pc, #128]	; (8006498 <HAL_FLASHEx_Erase+0xd4>)
 8006416:	f023 0304 	bic.w	r3, r3, #4
 800641a:	6113      	str	r3, [r2, #16]
 800641c:	e031      	b.n	8006482 <HAL_FLASHEx_Erase+0xbe>
 800641e:	f24c 3050 	movw	r0, #50000	; 0xc350
 8006422:	f7ff ff39 	bl	8006298 <FLASH_WaitForLastOperation>
 8006426:	4603      	mov	r3, r0
 8006428:	2b00      	cmp	r3, #0
 800642a:	d12a      	bne.n	8006482 <HAL_FLASHEx_Erase+0xbe>
 800642c:	683b      	ldr	r3, [r7, #0]
 800642e:	f04f 32ff 	mov.w	r2, #4294967295
 8006432:	601a      	str	r2, [r3, #0]
 8006434:	687b      	ldr	r3, [r7, #4]
 8006436:	689b      	ldr	r3, [r3, #8]
 8006438:	60bb      	str	r3, [r7, #8]
 800643a:	e019      	b.n	8006470 <HAL_FLASHEx_Erase+0xac>
 800643c:	68b8      	ldr	r0, [r7, #8]
 800643e:	f000 f849 	bl	80064d4 <FLASH_PageErase>
 8006442:	f24c 3050 	movw	r0, #50000	; 0xc350
 8006446:	f7ff ff27 	bl	8006298 <FLASH_WaitForLastOperation>
 800644a:	4603      	mov	r3, r0
 800644c:	73fb      	strb	r3, [r7, #15]
 800644e:	4b12      	ldr	r3, [pc, #72]	; (8006498 <HAL_FLASHEx_Erase+0xd4>)
 8006450:	691b      	ldr	r3, [r3, #16]
 8006452:	4a11      	ldr	r2, [pc, #68]	; (8006498 <HAL_FLASHEx_Erase+0xd4>)
 8006454:	f023 0302 	bic.w	r3, r3, #2
 8006458:	6113      	str	r3, [r2, #16]
 800645a:	7bfb      	ldrb	r3, [r7, #15]
 800645c:	2b00      	cmp	r3, #0
 800645e:	d003      	beq.n	8006468 <HAL_FLASHEx_Erase+0xa4>
 8006460:	683b      	ldr	r3, [r7, #0]
 8006462:	68ba      	ldr	r2, [r7, #8]
 8006464:	601a      	str	r2, [r3, #0]
 8006466:	e00c      	b.n	8006482 <HAL_FLASHEx_Erase+0xbe>
 8006468:	68bb      	ldr	r3, [r7, #8]
 800646a:	f503 6380 	add.w	r3, r3, #1024	; 0x400
 800646e:	60bb      	str	r3, [r7, #8]
 8006470:	687b      	ldr	r3, [r7, #4]
 8006472:	68db      	ldr	r3, [r3, #12]
 8006474:	029a      	lsls	r2, r3, #10
 8006476:	687b      	ldr	r3, [r7, #4]
 8006478:	689b      	ldr	r3, [r3, #8]
 800647a:	4413      	add	r3, r2
 800647c:	68ba      	ldr	r2, [r7, #8]
 800647e:	429a      	cmp	r2, r3
 8006480:	d3dc      	bcc.n	800643c <HAL_FLASHEx_Erase+0x78>
 8006482:	4b04      	ldr	r3, [pc, #16]	; (8006494 <HAL_FLASHEx_Erase+0xd0>)
 8006484:	2200      	movs	r2, #0
 8006486:	761a      	strb	r2, [r3, #24]
 8006488:	7bfb      	ldrb	r3, [r7, #15]
 800648a:	4618      	mov	r0, r3
 800648c:	3710      	adds	r7, #16
 800648e:	46bd      	mov	sp, r7
 8006490:	bd80      	pop	{r7, pc}
 8006492:	bf00      	nop
 8006494:	20000a10 	.word	0x20000a10
 8006498:	40022000 	.word	0x40022000

0800649c <FLASH_MassErase>:
 800649c:	b480      	push	{r7}
 800649e:	b083      	sub	sp, #12
 80064a0:	af00      	add	r7, sp, #0
 80064a2:	6078      	str	r0, [r7, #4]
 80064a4:	4b09      	ldr	r3, [pc, #36]	; (80064cc <FLASH_MassErase+0x30>)
 80064a6:	2200      	movs	r2, #0
 80064a8:	61da      	str	r2, [r3, #28]
 80064aa:	4b09      	ldr	r3, [pc, #36]	; (80064d0 <FLASH_MassErase+0x34>)
 80064ac:	691b      	ldr	r3, [r3, #16]
 80064ae:	4a08      	ldr	r2, [pc, #32]	; (80064d0 <FLASH_MassErase+0x34>)
 80064b0:	f043 0304 	orr.w	r3, r3, #4
 80064b4:	6113      	str	r3, [r2, #16]
 80064b6:	4b06      	ldr	r3, [pc, #24]	; (80064d0 <FLASH_MassErase+0x34>)
 80064b8:	691b      	ldr	r3, [r3, #16]
 80064ba:	4a05      	ldr	r2, [pc, #20]	; (80064d0 <FLASH_MassErase+0x34>)
 80064bc:	f043 0340 	orr.w	r3, r3, #64	; 0x40
 80064c0:	6113      	str	r3, [r2, #16]
 80064c2:	bf00      	nop
 80064c4:	370c      	adds	r7, #12
 80064c6:	46bd      	mov	sp, r7
 80064c8:	bc80      	pop	{r7}
 80064ca:	4770      	bx	lr
 80064cc:	20000a10 	.word	0x20000a10
 80064d0:	40022000 	.word	0x40022000

080064d4 <FLASH_PageErase>:
 80064d4:	b480      	push	{r7}
 80064d6:	b083      	sub	sp, #12
 80064d8:	af00      	add	r7, sp, #0
 80064da:	6078      	str	r0, [r7, #4]
 80064dc:	4b0b      	ldr	r3, [pc, #44]	; (800650c <FLASH_PageErase+0x38>)
 80064de:	2200      	movs	r2, #0
 80064e0:	61da      	str	r2, [r3, #28]
 80064e2:	4b0b      	ldr	r3, [pc, #44]	; (8006510 <FLASH_PageErase+0x3c>)
 80064e4:	691b      	ldr	r3, [r3, #16]
 80064e6:	4a0a      	ldr	r2, [pc, #40]	; (8006510 <FLASH_PageErase+0x3c>)
 80064e8:	f043 0302 	orr.w	r3, r3, #2
 80064ec:	6113      	str	r3, [r2, #16]
 80064ee:	4a08      	ldr	r2, [pc, #32]	; (8006510 <FLASH_PageErase+0x3c>)
 80064f0:	687b      	ldr	r3, [r7, #4]
 80064f2:	6153      	str	r3, [r2, #20]
 80064f4:	4b06      	ldr	r3, [pc, #24]	; (8006510 <FLASH_PageErase+0x3c>)
 80064f6:	691b      	ldr	r3, [r3, #16]
 80064f8:	4a05      	ldr	r2, [pc, #20]	; (8006510 <FLASH_PageErase+0x3c>)
 80064fa:	f043 0340 	orr.w	r3, r3, #64	; 0x40
 80064fe:	6113      	str	r3, [r2, #16]
 8006500:	bf00      	nop
 8006502:	370c      	adds	r7, #12
 8006504:	46bd      	mov	sp, r7
 8006506:	bc80      	pop	{r7}
 8006508:	4770      	bx	lr
 800650a:	bf00      	nop
 800650c:	20000a10 	.word	0x20000a10
 8006510:	40022000 	.word	0x40022000

08006514 <HAL_GPIO_Init>:
 8006514:	b480      	push	{r7}
 8006516:	b08b      	sub	sp, #44	; 0x2c
 8006518:	af00      	add	r7, sp, #0
 800651a:	6078      	str	r0, [r7, #4]
 800651c:	6039      	str	r1, [r7, #0]
 800651e:	2300      	movs	r3, #0
 8006520:	627b      	str	r3, [r7, #36]	; 0x24
 8006522:	2300      	movs	r3, #0
 8006524:	623b      	str	r3, [r7, #32]
 8006526:	e169      	b.n	80067fc <HAL_GPIO_Init+0x2e8>
 8006528:	2201      	movs	r2, #1
 800652a:	6a7b      	ldr	r3, [r7, #36]	; 0x24
 800652c:	fa02 f303 	lsl.w	r3, r2, r3
 8006530:	61fb      	str	r3, [r7, #28]
 8006532:	683b      	ldr	r3, [r7, #0]
 8006534:	681b      	ldr	r3, [r3, #0]
 8006536:	69fa      	ldr	r2, [r7, #28]
 8006538:	4013      	ands	r3, r2
 800653a:	61bb      	str	r3, [r7, #24]
 800653c:	69ba      	ldr	r2, [r7, #24]
 800653e:	69fb      	ldr	r3, [r7, #28]
 8006540:	429a      	cmp	r2, r3
 8006542:	f040 8158 	bne.w	80067f6 <HAL_GPIO_Init+0x2e2>
 8006546:	683b      	ldr	r3, [r7, #0]
 8006548:	685b      	ldr	r3, [r3, #4]
 800654a:	4a9a      	ldr	r2, [pc, #616]	; (80067b4 <HAL_GPIO_Init+0x2a0>)
 800654c:	4293      	cmp	r3, r2
 800654e:	d05e      	beq.n	800660e <HAL_GPIO_Init+0xfa>
 8006550:	4a98      	ldr	r2, [pc, #608]	; (80067b4 <HAL_GPIO_Init+0x2a0>)
 8006552:	4293      	cmp	r3, r2
 8006554:	d875      	bhi.n	8006642 <HAL_GPIO_Init+0x12e>
 8006556:	4a98      	ldr	r2, [pc, #608]	; (80067b8 <HAL_GPIO_Init+0x2a4>)
 8006558:	4293      	cmp	r3, r2
 800655a:	d058      	beq.n	800660e <HAL_GPIO_Init+0xfa>
 800655c:	4a96      	ldr	r2, [pc, #600]	; (80067b8 <HAL_GPIO_Init+0x2a4>)
 800655e:	4293      	cmp	r3, r2
 8006560:	d86f      	bhi.n	8006642 <HAL_GPIO_Init+0x12e>
 8006562:	4a96      	ldr	r2, [pc, #600]	; (80067bc <HAL_GPIO_Init+0x2a8>)
 8006564:	4293      	cmp	r3, r2
 8006566:	d052      	beq.n	800660e <HAL_GPIO_Init+0xfa>
 8006568:	4a94      	ldr	r2, [pc, #592]	; (80067bc <HAL_GPIO_Init+0x2a8>)
 800656a:	4293      	cmp	r3, r2
 800656c:	d869      	bhi.n	8006642 <HAL_GPIO_Init+0x12e>
 800656e:	4a94      	ldr	r2, [pc, #592]	; (80067c0 <HAL_GPIO_Init+0x2ac>)
 8006570:	4293      	cmp	r3, r2
 8006572:	d04c      	beq.n	800660e <HAL_GPIO_Init+0xfa>
 8006574:	4a92      	ldr	r2, [pc, #584]	; (80067c0 <HAL_GPIO_Init+0x2ac>)
 8006576:	4293      	cmp	r3, r2
 8006578:	d863      	bhi.n	8006642 <HAL_GPIO_Init+0x12e>
 800657a:	4a92      	ldr	r2, [pc, #584]	; (80067c4 <HAL_GPIO_Init+0x2b0>)
 800657c:	4293      	cmp	r3, r2
 800657e:	d046      	beq.n	800660e <HAL_GPIO_Init+0xfa>
 8006580:	4a90      	ldr	r2, [pc, #576]	; (80067c4 <HAL_GPIO_Init+0x2b0>)
 8006582:	4293      	cmp	r3, r2
 8006584:	d85d      	bhi.n	8006642 <HAL_GPIO_Init+0x12e>
 8006586:	2b12      	cmp	r3, #18
 8006588:	d82a      	bhi.n	80065e0 <HAL_GPIO_Init+0xcc>
 800658a:	2b12      	cmp	r3, #18
 800658c:	d859      	bhi.n	8006642 <HAL_GPIO_Init+0x12e>
 800658e:	a201      	add	r2, pc, #4	; (adr r2, 8006594 <HAL_GPIO_Init+0x80>)
 8006590:	f852 f023 	ldr.w	pc, [r2, r3, lsl #2]
 8006594:	0800660f 	.word	0x0800660f
 8006598:	080065e9 	.word	0x080065e9
 800659c:	080065fb 	.word	0x080065fb
 80065a0:	0800663d 	.word	0x0800663d
 80065a4:	08006643 	.word	0x08006643
 80065a8:	08006643 	.word	0x08006643
 80065ac:	08006643 	.word	0x08006643
 80065b0:	08006643 	.word	0x08006643
 80065b4:	08006643 	.word	0x08006643
 80065b8:	08006643 	.word	0x08006643
 80065bc:	08006643 	.word	0x08006643
 80065c0:	08006643 	.word	0x08006643
 80065c4:	08006643 	.word	0x08006643
 80065c8:	08006643 	.word	0x08006643
 80065cc:	08006643 	.word	0x08006643
 80065d0:	08006643 	.word	0x08006643
 80065d4:	08006643 	.word	0x08006643
 80065d8:	080065f1 	.word	0x080065f1
 80065dc:	08006605 	.word	0x08006605
 80065e0:	4a79      	ldr	r2, [pc, #484]	; (80067c8 <HAL_GPIO_Init+0x2b4>)
 80065e2:	4293      	cmp	r3, r2
 80065e4:	d013      	beq.n	800660e <HAL_GPIO_Init+0xfa>
 80065e6:	e02c      	b.n	8006642 <HAL_GPIO_Init+0x12e>
 80065e8:	683b      	ldr	r3, [r7, #0]
 80065ea:	68db      	ldr	r3, [r3, #12]
 80065ec:	623b      	str	r3, [r7, #32]
 80065ee:	e029      	b.n	8006644 <HAL_GPIO_Init+0x130>
 80065f0:	683b      	ldr	r3, [r7, #0]
 80065f2:	68db      	ldr	r3, [r3, #12]
 80065f4:	3304      	adds	r3, #4
 80065f6:	623b      	str	r3, [r7, #32]
 80065f8:	e024      	b.n	8006644 <HAL_GPIO_Init+0x130>
 80065fa:	683b      	ldr	r3, [r7, #0]
 80065fc:	68db      	ldr	r3, [r3, #12]
 80065fe:	3308      	adds	r3, #8
 8006600:	623b      	str	r3, [r7, #32]
 8006602:	e01f      	b.n	8006644 <HAL_GPIO_Init+0x130>
 8006604:	683b      	ldr	r3, [r7, #0]
 8006606:	68db      	ldr	r3, [r3, #12]
 8006608:	330c      	adds	r3, #12
 800660a:	623b      	str	r3, [r7, #32]
 800660c:	e01a      	b.n	8006644 <HAL_GPIO_Init+0x130>
 800660e:	683b      	ldr	r3, [r7, #0]
 8006610:	689b      	ldr	r3, [r3, #8]
 8006612:	2b00      	cmp	r3, #0
 8006614:	d102      	bne.n	800661c <HAL_GPIO_Init+0x108>
 8006616:	2304      	movs	r3, #4
 8006618:	623b      	str	r3, [r7, #32]
 800661a:	e013      	b.n	8006644 <HAL_GPIO_Init+0x130>
 800661c:	683b      	ldr	r3, [r7, #0]
 800661e:	689b      	ldr	r3, [r3, #8]
 8006620:	2b01      	cmp	r3, #1
 8006622:	d105      	bne.n	8006630 <HAL_GPIO_Init+0x11c>
 8006624:	2308      	movs	r3, #8
 8006626:	623b      	str	r3, [r7, #32]
 8006628:	687b      	ldr	r3, [r7, #4]
 800662a:	69fa      	ldr	r2, [r7, #28]
 800662c:	611a      	str	r2, [r3, #16]
 800662e:	e009      	b.n	8006644 <HAL_GPIO_Init+0x130>
 8006630:	2308      	movs	r3, #8
 8006632:	623b      	str	r3, [r7, #32]
 8006634:	687b      	ldr	r3, [r7, #4]
 8006636:	69fa      	ldr	r2, [r7, #28]
 8006638:	615a      	str	r2, [r3, #20]
 800663a:	e003      	b.n	8006644 <HAL_GPIO_Init+0x130>
 800663c:	2300      	movs	r3, #0
 800663e:	623b      	str	r3, [r7, #32]
 8006640:	e000      	b.n	8006644 <HAL_GPIO_Init+0x130>
 8006642:	bf00      	nop
 8006644:	69bb      	ldr	r3, [r7, #24]
 8006646:	2bff      	cmp	r3, #255	; 0xff
 8006648:	d801      	bhi.n	800664e <HAL_GPIO_Init+0x13a>
 800664a:	687b      	ldr	r3, [r7, #4]
 800664c:	e001      	b.n	8006652 <HAL_GPIO_Init+0x13e>
 800664e:	687b      	ldr	r3, [r7, #4]
 8006650:	3304      	adds	r3, #4
 8006652:	617b      	str	r3, [r7, #20]
 8006654:	69bb      	ldr	r3, [r7, #24]
 8006656:	2bff      	cmp	r3, #255	; 0xff
 8006658:	d802      	bhi.n	8006660 <HAL_GPIO_Init+0x14c>
 800665a:	6a7b      	ldr	r3, [r7, #36]	; 0x24
 800665c:	009b      	lsls	r3, r3, #2
 800665e:	e002      	b.n	8006666 <HAL_GPIO_Init+0x152>
 8006660:	6a7b      	ldr	r3, [r7, #36]	; 0x24
 8006662:	3b08      	subs	r3, #8
 8006664:	009b      	lsls	r3, r3, #2
 8006666:	613b      	str	r3, [r7, #16]
 8006668:	697b      	ldr	r3, [r7, #20]
 800666a:	681a      	ldr	r2, [r3, #0]
 800666c:	210f      	movs	r1, #15
 800666e:	693b      	ldr	r3, [r7, #16]
 8006670:	fa01 f303 	lsl.w	r3, r1, r3
 8006674:	43db      	mvns	r3, r3
 8006676:	401a      	ands	r2, r3
 8006678:	6a39      	ldr	r1, [r7, #32]
 800667a:	693b      	ldr	r3, [r7, #16]
 800667c:	fa01 f303 	lsl.w	r3, r1, r3
 8006680:	431a      	orrs	r2, r3
 8006682:	697b      	ldr	r3, [r7, #20]
 8006684:	601a      	str	r2, [r3, #0]
 8006686:	683b      	ldr	r3, [r7, #0]
 8006688:	685b      	ldr	r3, [r3, #4]
 800668a:	f003 5380 	and.w	r3, r3, #268435456	; 0x10000000
 800668e:	2b00      	cmp	r3, #0
 8006690:	f000 80b1 	beq.w	80067f6 <HAL_GPIO_Init+0x2e2>
 8006694:	4b4d      	ldr	r3, [pc, #308]	; (80067cc <HAL_GPIO_Init+0x2b8>)
 8006696:	699b      	ldr	r3, [r3, #24]
 8006698:	4a4c      	ldr	r2, [pc, #304]	; (80067cc <HAL_GPIO_Init+0x2b8>)
 800669a:	f043 0301 	orr.w	r3, r3, #1
 800669e:	6193      	str	r3, [r2, #24]
 80066a0:	4b4a      	ldr	r3, [pc, #296]	; (80067cc <HAL_GPIO_Init+0x2b8>)
 80066a2:	699b      	ldr	r3, [r3, #24]
 80066a4:	f003 0301 	and.w	r3, r3, #1
 80066a8:	60bb      	str	r3, [r7, #8]
 80066aa:	68bb      	ldr	r3, [r7, #8]
 80066ac:	4a48      	ldr	r2, [pc, #288]	; (80067d0 <HAL_GPIO_Init+0x2bc>)
 80066ae:	6a7b      	ldr	r3, [r7, #36]	; 0x24
 80066b0:	089b      	lsrs	r3, r3, #2
 80066b2:	3302      	adds	r3, #2
 80066b4:	f852 3023 	ldr.w	r3, [r2, r3, lsl #2]
 80066b8:	60fb      	str	r3, [r7, #12]
 80066ba:	6a7b      	ldr	r3, [r7, #36]	; 0x24
 80066bc:	f003 0303 	and.w	r3, r3, #3
 80066c0:	009b      	lsls	r3, r3, #2
 80066c2:	220f      	movs	r2, #15
 80066c4:	fa02 f303 	lsl.w	r3, r2, r3
 80066c8:	43db      	mvns	r3, r3
 80066ca:	68fa      	ldr	r2, [r7, #12]
 80066cc:	4013      	ands	r3, r2
 80066ce:	60fb      	str	r3, [r7, #12]
 80066d0:	687b      	ldr	r3, [r7, #4]
 80066d2:	4a40      	ldr	r2, [pc, #256]	; (80067d4 <HAL_GPIO_Init+0x2c0>)
 80066d4:	4293      	cmp	r3, r2
 80066d6:	d013      	beq.n	8006700 <HAL_GPIO_Init+0x1ec>
 80066d8:	687b      	ldr	r3, [r7, #4]
 80066da:	4a3f      	ldr	r2, [pc, #252]	; (80067d8 <HAL_GPIO_Init+0x2c4>)
 80066dc:	4293      	cmp	r3, r2
 80066de:	d00d      	beq.n	80066fc <HAL_GPIO_Init+0x1e8>
 80066e0:	687b      	ldr	r3, [r7, #4]
 80066e2:	4a3e      	ldr	r2, [pc, #248]	; (80067dc <HAL_GPIO_Init+0x2c8>)
 80066e4:	4293      	cmp	r3, r2
 80066e6:	d007      	beq.n	80066f8 <HAL_GPIO_Init+0x1e4>
 80066e8:	687b      	ldr	r3, [r7, #4]
 80066ea:	4a3d      	ldr	r2, [pc, #244]	; (80067e0 <HAL_GPIO_Init+0x2cc>)
 80066ec:	4293      	cmp	r3, r2
 80066ee:	d101      	bne.n	80066f4 <HAL_GPIO_Init+0x1e0>
 80066f0:	2303      	movs	r3, #3
 80066f2:	e006      	b.n	8006702 <HAL_GPIO_Init+0x1ee>
 80066f4:	2304      	movs	r3, #4
 80066f6:	e004      	b.n	8006702 <HAL_GPIO_Init+0x1ee>
 80066f8:	2302      	movs	r3, #2
 80066fa:	e002      	b.n	8006702 <HAL_GPIO_Init+0x1ee>
 80066fc:	2301      	movs	r3, #1
 80066fe:	e000      	b.n	8006702 <HAL_GPIO_Init+0x1ee>
 8006700:	2300      	movs	r3, #0
 8006702:	6a7a      	ldr	r2, [r7, #36]	; 0x24
 8006704:	f002 0203 	and.w	r2, r2, #3
 8006708:	0092      	lsls	r2, r2, #2
 800670a:	4093      	lsls	r3, r2
 800670c:	68fa      	ldr	r2, [r7, #12]
 800670e:	4313      	orrs	r3, r2
 8006710:	60fb      	str	r3, [r7, #12]
 8006712:	492f      	ldr	r1, [pc, #188]	; (80067d0 <HAL_GPIO_Init+0x2bc>)
 8006714:	6a7b      	ldr	r3, [r7, #36]	; 0x24
 8006716:	089b      	lsrs	r3, r3, #2
 8006718:	3302      	adds	r3, #2
 800671a:	68fa      	ldr	r2, [r7, #12]
 800671c:	f841 2023 	str.w	r2, [r1, r3, lsl #2]
 8006720:	683b      	ldr	r3, [r7, #0]
 8006722:	685b      	ldr	r3, [r3, #4]
 8006724:	f403 3380 	and.w	r3, r3, #65536	; 0x10000
 8006728:	2b00      	cmp	r3, #0
 800672a:	d006      	beq.n	800673a <HAL_GPIO_Init+0x226>
 800672c:	4b2d      	ldr	r3, [pc, #180]	; (80067e4 <HAL_GPIO_Init+0x2d0>)
 800672e:	681a      	ldr	r2, [r3, #0]
 8006730:	492c      	ldr	r1, [pc, #176]	; (80067e4 <HAL_GPIO_Init+0x2d0>)
 8006732:	69bb      	ldr	r3, [r7, #24]
 8006734:	4313      	orrs	r3, r2
 8006736:	600b      	str	r3, [r1, #0]
 8006738:	e006      	b.n	8006748 <HAL_GPIO_Init+0x234>
 800673a:	4b2a      	ldr	r3, [pc, #168]	; (80067e4 <HAL_GPIO_Init+0x2d0>)
 800673c:	681a      	ldr	r2, [r3, #0]
 800673e:	69bb      	ldr	r3, [r7, #24]
 8006740:	43db      	mvns	r3, r3
 8006742:	4928      	ldr	r1, [pc, #160]	; (80067e4 <HAL_GPIO_Init+0x2d0>)
 8006744:	4013      	ands	r3, r2
 8006746:	600b      	str	r3, [r1, #0]
 8006748:	683b      	ldr	r3, [r7, #0]
 800674a:	685b      	ldr	r3, [r3, #4]
 800674c:	f403 3300 	and.w	r3, r3, #131072	; 0x20000
 8006750:	2b00      	cmp	r3, #0
 8006752:	d006      	beq.n	8006762 <HAL_GPIO_Init+0x24e>
 8006754:	4b23      	ldr	r3, [pc, #140]	; (80067e4 <HAL_GPIO_Init+0x2d0>)
 8006756:	685a      	ldr	r2, [r3, #4]
 8006758:	4922      	ldr	r1, [pc, #136]	; (80067e4 <HAL_GPIO_Init+0x2d0>)
 800675a:	69bb      	ldr	r3, [r7, #24]
 800675c:	4313      	orrs	r3, r2
 800675e:	604b      	str	r3, [r1, #4]
 8006760:	e006      	b.n	8006770 <HAL_GPIO_Init+0x25c>
 8006762:	4b20      	ldr	r3, [pc, #128]	; (80067e4 <HAL_GPIO_Init+0x2d0>)
 8006764:	685a      	ldr	r2, [r3, #4]
 8006766:	69bb      	ldr	r3, [r7, #24]
 8006768:	43db      	mvns	r3, r3
 800676a:	491e      	ldr	r1, [pc, #120]	; (80067e4 <HAL_GPIO_Init+0x2d0>)
 800676c:	4013      	ands	r3, r2
 800676e:	604b      	str	r3, [r1, #4]
 8006770:	683b      	ldr	r3, [r7, #0]
 8006772:	685b      	ldr	r3, [r3, #4]
 8006774:	f403 1380 	and.w	r3, r3, #1048576	; 0x100000
 8006778:	2b00      	cmp	r3, #0
 800677a:	d006      	beq.n	800678a <HAL_GPIO_Init+0x276>
 800677c:	4b19      	ldr	r3, [pc, #100]	; (80067e4 <HAL_GPIO_Init+0x2d0>)
 800677e:	689a      	ldr	r2, [r3, #8]
 8006780:	4918      	ldr	r1, [pc, #96]	; (80067e4 <HAL_GPIO_Init+0x2d0>)
 8006782:	69bb      	ldr	r3, [r7, #24]
 8006784:	4313      	orrs	r3, r2
 8006786:	608b      	str	r3, [r1, #8]
 8006788:	e006      	b.n	8006798 <HAL_GPIO_Init+0x284>
 800678a:	4b16      	ldr	r3, [pc, #88]	; (80067e4 <HAL_GPIO_Init+0x2d0>)
 800678c:	689a      	ldr	r2, [r3, #8]
 800678e:	69bb      	ldr	r3, [r7, #24]
 8006790:	43db      	mvns	r3, r3
 8006792:	4914      	ldr	r1, [pc, #80]	; (80067e4 <HAL_GPIO_Init+0x2d0>)
 8006794:	4013      	ands	r3, r2
 8006796:	608b      	str	r3, [r1, #8]
 8006798:	683b      	ldr	r3, [r7, #0]
 800679a:	685b      	ldr	r3, [r3, #4]
 800679c:	f403 1300 	and.w	r3, r3, #2097152	; 0x200000
 80067a0:	2b00      	cmp	r3, #0
 80067a2:	d021      	beq.n	80067e8 <HAL_GPIO_Init+0x2d4>
 80067a4:	4b0f      	ldr	r3, [pc, #60]	; (80067e4 <HAL_GPIO_Init+0x2d0>)
 80067a6:	68da      	ldr	r2, [r3, #12]
 80067a8:	490e      	ldr	r1, [pc, #56]	; (80067e4 <HAL_GPIO_Init+0x2d0>)
 80067aa:	69bb      	ldr	r3, [r7, #24]
 80067ac:	4313      	orrs	r3, r2
 80067ae:	60cb      	str	r3, [r1, #12]
 80067b0:	e021      	b.n	80067f6 <HAL_GPIO_Init+0x2e2>
 80067b2:	bf00      	nop
 80067b4:	10320000 	.word	0x10320000
 80067b8:	10310000 	.word	0x10310000
 80067bc:	10220000 	.word	0x10220000
 80067c0:	10210000 	.word	0x10210000
 80067c4:	10120000 	.word	0x10120000
 80067c8:	10110000 	.word	0x10110000
 80067cc:	40021000 	.word	0x40021000
 80067d0:	40010000 	.word	0x40010000
 80067d4:	40010800 	.word	0x40010800
 80067d8:	40010c00 	.word	0x40010c00
 80067dc:	40011000 	.word	0x40011000
 80067e0:	40011400 	.word	0x40011400
 80067e4:	40010400 	.word	0x40010400
 80067e8:	4b0b      	ldr	r3, [pc, #44]	; (8006818 <HAL_GPIO_Init+0x304>)
 80067ea:	68da      	ldr	r2, [r3, #12]
 80067ec:	69bb      	ldr	r3, [r7, #24]
 80067ee:	43db      	mvns	r3, r3
 80067f0:	4909      	ldr	r1, [pc, #36]	; (8006818 <HAL_GPIO_Init+0x304>)
 80067f2:	4013      	ands	r3, r2
 80067f4:	60cb      	str	r3, [r1, #12]
 80067f6:	6a7b      	ldr	r3, [r7, #36]	; 0x24
 80067f8:	3301      	adds	r3, #1
 80067fa:	627b      	str	r3, [r7, #36]	; 0x24
 80067fc:	683b      	ldr	r3, [r7, #0]
 80067fe:	681a      	ldr	r2, [r3, #0]
 8006800:	6a7b      	ldr	r3, [r7, #36]	; 0x24
 8006802:	fa22 f303 	lsr.w	r3, r2, r3
 8006806:	2b00      	cmp	r3, #0
 8006808:	f47f ae8e 	bne.w	8006528 <HAL_GPIO_Init+0x14>
 800680c:	bf00      	nop
 800680e:	bf00      	nop
 8006810:	372c      	adds	r7, #44	; 0x2c
 8006812:	46bd      	mov	sp, r7
 8006814:	bc80      	pop	{r7}
 8006816:	4770      	bx	lr
 8006818:	40010400 	.word	0x40010400

0800681c <HAL_GPIO_ReadPin>:
 800681c:	b480      	push	{r7}
 800681e:	b085      	sub	sp, #20
 8006820:	af00      	add	r7, sp, #0
 8006822:	6078      	str	r0, [r7, #4]
 8006824:	460b      	mov	r3, r1
 8006826:	807b      	strh	r3, [r7, #2]
 8006828:	687b      	ldr	r3, [r7, #4]
 800682a:	689a      	ldr	r2, [r3, #8]
 800682c:	887b      	ldrh	r3, [r7, #2]
 800682e:	4013      	ands	r3, r2
 8006830:	2b00      	cmp	r3, #0
 8006832:	d002      	beq.n	800683a <HAL_GPIO_ReadPin+0x1e>
 8006834:	2301      	movs	r3, #1
 8006836:	73fb      	strb	r3, [r7, #15]
 8006838:	e001      	b.n	800683e <HAL_GPIO_ReadPin+0x22>
 800683a:	2300      	movs	r3, #0
 800683c:	73fb      	strb	r3, [r7, #15]
 800683e:	7bfb      	ldrb	r3, [r7, #15]
 8006840:	4618      	mov	r0, r3
 8006842:	3714      	adds	r7, #20
 8006844:	46bd      	mov	sp, r7
 8006846:	bc80      	pop	{r7}
 8006848:	4770      	bx	lr

0800684a <HAL_GPIO_WritePin>:
 800684a:	b480      	push	{r7}
 800684c:	b083      	sub	sp, #12
 800684e:	af00      	add	r7, sp, #0
 8006850:	6078      	str	r0, [r7, #4]
 8006852:	460b      	mov	r3, r1
 8006854:	807b      	strh	r3, [r7, #2]
 8006856:	4613      	mov	r3, r2
 8006858:	707b      	strb	r3, [r7, #1]
 800685a:	787b      	ldrb	r3, [r7, #1]
 800685c:	2b00      	cmp	r3, #0
 800685e:	d003      	beq.n	8006868 <HAL_GPIO_WritePin+0x1e>
 8006860:	887a      	ldrh	r2, [r7, #2]
 8006862:	687b      	ldr	r3, [r7, #4]
 8006864:	611a      	str	r2, [r3, #16]
 8006866:	e003      	b.n	8006870 <HAL_GPIO_WritePin+0x26>
 8006868:	887b      	ldrh	r3, [r7, #2]
 800686a:	041a      	lsls	r2, r3, #16
 800686c:	687b      	ldr	r3, [r7, #4]
 800686e:	611a      	str	r2, [r3, #16]
 8006870:	bf00      	nop
 8006872:	370c      	adds	r7, #12
 8006874:	46bd      	mov	sp, r7
 8006876:	bc80      	pop	{r7}
 8006878:	4770      	bx	lr
	...

0800687c <HAL_GPIO_EXTI_IRQHandler>:
 800687c:	b580      	push	{r7, lr}
 800687e:	b082      	sub	sp, #8
 8006880:	af00      	add	r7, sp, #0
 8006882:	4603      	mov	r3, r0
 8006884:	80fb      	strh	r3, [r7, #6]
 8006886:	4b08      	ldr	r3, [pc, #32]	; (80068a8 <HAL_GPIO_EXTI_IRQHandler+0x2c>)
 8006888:	695a      	ldr	r2, [r3, #20]
 800688a:	88fb      	ldrh	r3, [r7, #6]
 800688c:	4013      	ands	r3, r2
 800688e:	2b00      	cmp	r3, #0
 8006890:	d006      	beq.n	80068a0 <HAL_GPIO_EXTI_IRQHandler+0x24>
 8006892:	4a05      	ldr	r2, [pc, #20]	; (80068a8 <HAL_GPIO_EXTI_IRQHandler+0x2c>)
 8006894:	88fb      	ldrh	r3, [r7, #6]
 8006896:	6153      	str	r3, [r2, #20]
 8006898:	88fb      	ldrh	r3, [r7, #6]
 800689a:	4618      	mov	r0, r3
 800689c:	f7fc ff88 	bl	80037b0 <HAL_GPIO_EXTI_Callback>
 80068a0:	bf00      	nop
 80068a2:	3708      	adds	r7, #8
 80068a4:	46bd      	mov	sp, r7
 80068a6:	bd80      	pop	{r7, pc}
 80068a8:	40010400 	.word	0x40010400

080068ac <HAL_I2C_Init>:
 80068ac:	b580      	push	{r7, lr}
 80068ae:	b084      	sub	sp, #16
 80068b0:	af00      	add	r7, sp, #0
 80068b2:	6078      	str	r0, [r7, #4]
 80068b4:	687b      	ldr	r3, [r7, #4]
 80068b6:	2b00      	cmp	r3, #0
 80068b8:	d101      	bne.n	80068be <HAL_I2C_Init+0x12>
 80068ba:	2301      	movs	r3, #1
 80068bc:	e12b      	b.n	8006b16 <HAL_I2C_Init+0x26a>
 80068be:	687b      	ldr	r3, [r7, #4]
 80068c0:	f893 303d 	ldrb.w	r3, [r3, #61]	; 0x3d
 80068c4:	b2db      	uxtb	r3, r3
 80068c6:	2b00      	cmp	r3, #0
 80068c8:	d106      	bne.n	80068d8 <HAL_I2C_Init+0x2c>
 80068ca:	687b      	ldr	r3, [r7, #4]
 80068cc:	2200      	movs	r2, #0
 80068ce:	f883 203c 	strb.w	r2, [r3, #60]	; 0x3c
 80068d2:	6878      	ldr	r0, [r7, #4]
 80068d4:	f7fe f930 	bl	8004b38 <HAL_I2C_MspInit>
 80068d8:	687b      	ldr	r3, [r7, #4]
 80068da:	2224      	movs	r2, #36	; 0x24
 80068dc:	f883 203d 	strb.w	r2, [r3, #61]	; 0x3d
 80068e0:	687b      	ldr	r3, [r7, #4]
 80068e2:	681b      	ldr	r3, [r3, #0]
 80068e4:	681a      	ldr	r2, [r3, #0]
 80068e6:	687b      	ldr	r3, [r7, #4]
 80068e8:	681b      	ldr	r3, [r3, #0]
 80068ea:	f022 0201 	bic.w	r2, r2, #1
 80068ee:	601a      	str	r2, [r3, #0]
 80068f0:	687b      	ldr	r3, [r7, #4]
 80068f2:	681b      	ldr	r3, [r3, #0]
 80068f4:	681a      	ldr	r2, [r3, #0]
 80068f6:	687b      	ldr	r3, [r7, #4]
 80068f8:	681b      	ldr	r3, [r3, #0]
 80068fa:	f442 4200 	orr.w	r2, r2, #32768	; 0x8000
 80068fe:	601a      	str	r2, [r3, #0]
 8006900:	687b      	ldr	r3, [r7, #4]
 8006902:	681b      	ldr	r3, [r3, #0]
 8006904:	681a      	ldr	r2, [r3, #0]
 8006906:	687b      	ldr	r3, [r7, #4]
 8006908:	681b      	ldr	r3, [r3, #0]
 800690a:	f422 4200 	bic.w	r2, r2, #32768	; 0x8000
 800690e:	601a      	str	r2, [r3, #0]
 8006910:	f001 f918 	bl	8007b44 <HAL_RCC_GetPCLK1Freq>
 8006914:	60f8      	str	r0, [r7, #12]
 8006916:	687b      	ldr	r3, [r7, #4]
 8006918:	685b      	ldr	r3, [r3, #4]
 800691a:	4a81      	ldr	r2, [pc, #516]	; (8006b20 <HAL_I2C_Init+0x274>)
 800691c:	4293      	cmp	r3, r2
 800691e:	d807      	bhi.n	8006930 <HAL_I2C_Init+0x84>
 8006920:	68fb      	ldr	r3, [r7, #12]
 8006922:	4a80      	ldr	r2, [pc, #512]	; (8006b24 <HAL_I2C_Init+0x278>)
 8006924:	4293      	cmp	r3, r2
 8006926:	bf94      	ite	ls
 8006928:	2301      	movls	r3, #1
 800692a:	2300      	movhi	r3, #0
 800692c:	b2db      	uxtb	r3, r3
 800692e:	e006      	b.n	800693e <HAL_I2C_Init+0x92>
 8006930:	68fb      	ldr	r3, [r7, #12]
 8006932:	4a7d      	ldr	r2, [pc, #500]	; (8006b28 <HAL_I2C_Init+0x27c>)
 8006934:	4293      	cmp	r3, r2
 8006936:	bf94      	ite	ls
 8006938:	2301      	movls	r3, #1
 800693a:	2300      	movhi	r3, #0
 800693c:	b2db      	uxtb	r3, r3
 800693e:	2b00      	cmp	r3, #0
 8006940:	d001      	beq.n	8006946 <HAL_I2C_Init+0x9a>
 8006942:	2301      	movs	r3, #1
 8006944:	e0e7      	b.n	8006b16 <HAL_I2C_Init+0x26a>
 8006946:	68fb      	ldr	r3, [r7, #12]
 8006948:	4a78      	ldr	r2, [pc, #480]	; (8006b2c <HAL_I2C_Init+0x280>)
 800694a:	fba2 2303 	umull	r2, r3, r2, r3
 800694e:	0c9b      	lsrs	r3, r3, #18
 8006950:	60bb      	str	r3, [r7, #8]
 8006952:	687b      	ldr	r3, [r7, #4]
 8006954:	681b      	ldr	r3, [r3, #0]
 8006956:	685b      	ldr	r3, [r3, #4]
 8006958:	f023 013f 	bic.w	r1, r3, #63	; 0x3f
 800695c:	687b      	ldr	r3, [r7, #4]
 800695e:	681b      	ldr	r3, [r3, #0]
 8006960:	68ba      	ldr	r2, [r7, #8]
 8006962:	430a      	orrs	r2, r1
 8006964:	605a      	str	r2, [r3, #4]
 8006966:	687b      	ldr	r3, [r7, #4]
 8006968:	681b      	ldr	r3, [r3, #0]
 800696a:	6a1b      	ldr	r3, [r3, #32]
 800696c:	f023 013f 	bic.w	r1, r3, #63	; 0x3f
 8006970:	687b      	ldr	r3, [r7, #4]
 8006972:	685b      	ldr	r3, [r3, #4]
 8006974:	4a6a      	ldr	r2, [pc, #424]	; (8006b20 <HAL_I2C_Init+0x274>)
 8006976:	4293      	cmp	r3, r2
 8006978:	d802      	bhi.n	8006980 <HAL_I2C_Init+0xd4>
 800697a:	68bb      	ldr	r3, [r7, #8]
 800697c:	3301      	adds	r3, #1
 800697e:	e009      	b.n	8006994 <HAL_I2C_Init+0xe8>
 8006980:	68bb      	ldr	r3, [r7, #8]
 8006982:	f44f 7296 	mov.w	r2, #300	; 0x12c
 8006986:	fb02 f303 	mul.w	r3, r2, r3
 800698a:	4a69      	ldr	r2, [pc, #420]	; (8006b30 <HAL_I2C_Init+0x284>)
 800698c:	fba2 2303 	umull	r2, r3, r2, r3
 8006990:	099b      	lsrs	r3, r3, #6
 8006992:	3301      	adds	r3, #1
 8006994:	687a      	ldr	r2, [r7, #4]
 8006996:	6812      	ldr	r2, [r2, #0]
 8006998:	430b      	orrs	r3, r1
 800699a:	6213      	str	r3, [r2, #32]
 800699c:	687b      	ldr	r3, [r7, #4]
 800699e:	681b      	ldr	r3, [r3, #0]
 80069a0:	69db      	ldr	r3, [r3, #28]
 80069a2:	f423 424f 	bic.w	r2, r3, #52992	; 0xcf00
 80069a6:	f022 02ff 	bic.w	r2, r2, #255	; 0xff
 80069aa:	687b      	ldr	r3, [r7, #4]
 80069ac:	685b      	ldr	r3, [r3, #4]
 80069ae:	495c      	ldr	r1, [pc, #368]	; (8006b20 <HAL_I2C_Init+0x274>)
 80069b0:	428b      	cmp	r3, r1
 80069b2:	d819      	bhi.n	80069e8 <HAL_I2C_Init+0x13c>
 80069b4:	68fb      	ldr	r3, [r7, #12]
 80069b6:	1e59      	subs	r1, r3, #1
 80069b8:	687b      	ldr	r3, [r7, #4]
 80069ba:	685b      	ldr	r3, [r3, #4]
 80069bc:	005b      	lsls	r3, r3, #1
 80069be:	fbb1 f3f3 	udiv	r3, r1, r3
 80069c2:	1c59      	adds	r1, r3, #1
 80069c4:	f640 73fc 	movw	r3, #4092	; 0xffc
 80069c8:	400b      	ands	r3, r1
 80069ca:	2b00      	cmp	r3, #0
 80069cc:	d00a      	beq.n	80069e4 <HAL_I2C_Init+0x138>
 80069ce:	68fb      	ldr	r3, [r7, #12]
 80069d0:	1e59      	subs	r1, r3, #1
 80069d2:	687b      	ldr	r3, [r7, #4]
 80069d4:	685b      	ldr	r3, [r3, #4]
 80069d6:	005b      	lsls	r3, r3, #1
 80069d8:	fbb1 f3f3 	udiv	r3, r1, r3
 80069dc:	3301      	adds	r3, #1
 80069de:	f3c3 030b 	ubfx	r3, r3, #0, #12
 80069e2:	e051      	b.n	8006a88 <HAL_I2C_Init+0x1dc>
 80069e4:	2304      	movs	r3, #4
 80069e6:	e04f      	b.n	8006a88 <HAL_I2C_Init+0x1dc>
 80069e8:	687b      	ldr	r3, [r7, #4]
 80069ea:	689b      	ldr	r3, [r3, #8]
 80069ec:	2b00      	cmp	r3, #0
 80069ee:	d111      	bne.n	8006a14 <HAL_I2C_Init+0x168>
 80069f0:	68fb      	ldr	r3, [r7, #12]
 80069f2:	1e58      	subs	r0, r3, #1
 80069f4:	687b      	ldr	r3, [r7, #4]
 80069f6:	6859      	ldr	r1, [r3, #4]
 80069f8:	460b      	mov	r3, r1
 80069fa:	005b      	lsls	r3, r3, #1
 80069fc:	440b      	add	r3, r1
 80069fe:	fbb0 f3f3 	udiv	r3, r0, r3
 8006a02:	3301      	adds	r3, #1
 8006a04:	f3c3 030b 	ubfx	r3, r3, #0, #12
 8006a08:	2b00      	cmp	r3, #0
 8006a0a:	bf0c      	ite	eq
 8006a0c:	2301      	moveq	r3, #1
 8006a0e:	2300      	movne	r3, #0
 8006a10:	b2db      	uxtb	r3, r3
 8006a12:	e012      	b.n	8006a3a <HAL_I2C_Init+0x18e>
 8006a14:	68fb      	ldr	r3, [r7, #12]
 8006a16:	1e58      	subs	r0, r3, #1
 8006a18:	687b      	ldr	r3, [r7, #4]
 8006a1a:	6859      	ldr	r1, [r3, #4]
 8006a1c:	460b      	mov	r3, r1
 8006a1e:	009b      	lsls	r3, r3, #2
 8006a20:	440b      	add	r3, r1
 8006a22:	0099      	lsls	r1, r3, #2
 8006a24:	440b      	add	r3, r1
 8006a26:	fbb0 f3f3 	udiv	r3, r0, r3
 8006a2a:	3301      	adds	r3, #1
 8006a2c:	f3c3 030b 	ubfx	r3, r3, #0, #12
 8006a30:	2b00      	cmp	r3, #0
 8006a32:	bf0c      	ite	eq
 8006a34:	2301      	moveq	r3, #1
 8006a36:	2300      	movne	r3, #0
 8006a38:	b2db      	uxtb	r3, r3
 8006a3a:	2b00      	cmp	r3, #0
 8006a3c:	d001      	beq.n	8006a42 <HAL_I2C_Init+0x196>
 8006a3e:	2301      	movs	r3, #1
 8006a40:	e022      	b.n	8006a88 <HAL_I2C_Init+0x1dc>
 8006a42:	687b      	ldr	r3, [r7, #4]
 8006a44:	689b      	ldr	r3, [r3, #8]
 8006a46:	2b00      	cmp	r3, #0
 8006a48:	d10e      	bne.n	8006a68 <HAL_I2C_Init+0x1bc>
 8006a4a:	68fb      	ldr	r3, [r7, #12]
 8006a4c:	1e58      	subs	r0, r3, #1
 8006a4e:	687b      	ldr	r3, [r7, #4]
 8006a50:	6859      	ldr	r1, [r3, #4]
 8006a52:	460b      	mov	r3, r1
 8006a54:	005b      	lsls	r3, r3, #1
 8006a56:	440b      	add	r3, r1
 8006a58:	fbb0 f3f3 	udiv	r3, r0, r3
 8006a5c:	3301      	adds	r3, #1
 8006a5e:	f3c3 030b 	ubfx	r3, r3, #0, #12
 8006a62:	f443 4300 	orr.w	r3, r3, #32768	; 0x8000
 8006a66:	e00f      	b.n	8006a88 <HAL_I2C_Init+0x1dc>
 8006a68:	68fb      	ldr	r3, [r7, #12]
 8006a6a:	1e58      	subs	r0, r3, #1
 8006a6c:	687b      	ldr	r3, [r7, #4]
 8006a6e:	6859      	ldr	r1, [r3, #4]
 8006a70:	460b      	mov	r3, r1
 8006a72:	009b      	lsls	r3, r3, #2
 8006a74:	440b      	add	r3, r1
 8006a76:	0099      	lsls	r1, r3, #2
 8006a78:	440b      	add	r3, r1
 8006a7a:	fbb0 f3f3 	udiv	r3, r0, r3
 8006a7e:	3301      	adds	r3, #1
 8006a80:	f3c3 030b 	ubfx	r3, r3, #0, #12
 8006a84:	f443 4340 	orr.w	r3, r3, #49152	; 0xc000
 8006a88:	6879      	ldr	r1, [r7, #4]
 8006a8a:	6809      	ldr	r1, [r1, #0]
 8006a8c:	4313      	orrs	r3, r2
 8006a8e:	61cb      	str	r3, [r1, #28]
 8006a90:	687b      	ldr	r3, [r7, #4]
 8006a92:	681b      	ldr	r3, [r3, #0]
 8006a94:	681b      	ldr	r3, [r3, #0]
 8006a96:	f023 01c0 	bic.w	r1, r3, #192	; 0xc0
 8006a9a:	687b      	ldr	r3, [r7, #4]
 8006a9c:	69da      	ldr	r2, [r3, #28]
 8006a9e:	687b      	ldr	r3, [r7, #4]
 8006aa0:	6a1b      	ldr	r3, [r3, #32]
 8006aa2:	431a      	orrs	r2, r3
 8006aa4:	687b      	ldr	r3, [r7, #4]
 8006aa6:	681b      	ldr	r3, [r3, #0]
 8006aa8:	430a      	orrs	r2, r1
 8006aaa:	601a      	str	r2, [r3, #0]
 8006aac:	687b      	ldr	r3, [r7, #4]
 8006aae:	681b      	ldr	r3, [r3, #0]
 8006ab0:	689b      	ldr	r3, [r3, #8]
 8006ab2:	f423 4303 	bic.w	r3, r3, #33536	; 0x8300
 8006ab6:	f023 03ff 	bic.w	r3, r3, #255	; 0xff
 8006aba:	687a      	ldr	r2, [r7, #4]
 8006abc:	6911      	ldr	r1, [r2, #16]
 8006abe:	687a      	ldr	r2, [r7, #4]
 8006ac0:	68d2      	ldr	r2, [r2, #12]
 8006ac2:	4311      	orrs	r1, r2
 8006ac4:	687a      	ldr	r2, [r7, #4]
 8006ac6:	6812      	ldr	r2, [r2, #0]
 8006ac8:	430b      	orrs	r3, r1
 8006aca:	6093      	str	r3, [r2, #8]
 8006acc:	687b      	ldr	r3, [r7, #4]
 8006ace:	681b      	ldr	r3, [r3, #0]
 8006ad0:	68db      	ldr	r3, [r3, #12]
 8006ad2:	f023 01ff 	bic.w	r1, r3, #255	; 0xff
 8006ad6:	687b      	ldr	r3, [r7, #4]
 8006ad8:	695a      	ldr	r2, [r3, #20]
 8006ada:	687b      	ldr	r3, [r7, #4]
 8006adc:	699b      	ldr	r3, [r3, #24]
 8006ade:	431a      	orrs	r2, r3
 8006ae0:	687b      	ldr	r3, [r7, #4]
 8006ae2:	681b      	ldr	r3, [r3, #0]
 8006ae4:	430a      	orrs	r2, r1
 8006ae6:	60da      	str	r2, [r3, #12]
 8006ae8:	687b      	ldr	r3, [r7, #4]
 8006aea:	681b      	ldr	r3, [r3, #0]
 8006aec:	681a      	ldr	r2, [r3, #0]
 8006aee:	687b      	ldr	r3, [r7, #4]
 8006af0:	681b      	ldr	r3, [r3, #0]
 8006af2:	f042 0201 	orr.w	r2, r2, #1
 8006af6:	601a      	str	r2, [r3, #0]
 8006af8:	687b      	ldr	r3, [r7, #4]
 8006afa:	2200      	movs	r2, #0
 8006afc:	641a      	str	r2, [r3, #64]	; 0x40
 8006afe:	687b      	ldr	r3, [r7, #4]
 8006b00:	2220      	movs	r2, #32
 8006b02:	f883 203d 	strb.w	r2, [r3, #61]	; 0x3d
 8006b06:	687b      	ldr	r3, [r7, #4]
 8006b08:	2200      	movs	r2, #0
 8006b0a:	631a      	str	r2, [r3, #48]	; 0x30
 8006b0c:	687b      	ldr	r3, [r7, #4]
 8006b0e:	2200      	movs	r2, #0
 8006b10:	f883 203e 	strb.w	r2, [r3, #62]	; 0x3e
 8006b14:	2300      	movs	r3, #0
 8006b16:	4618      	mov	r0, r3
 8006b18:	3710      	adds	r7, #16
 8006b1a:	46bd      	mov	sp, r7
 8006b1c:	bd80      	pop	{r7, pc}
 8006b1e:	bf00      	nop
 8006b20:	000186a0 	.word	0x000186a0
 8006b24:	001e847f 	.word	0x001e847f
 8006b28:	003d08ff 	.word	0x003d08ff
 8006b2c:	431bde83 	.word	0x431bde83
 8006b30:	10624dd3 	.word	0x10624dd3

08006b34 <HAL_I2C_Master_Transmit>:
 8006b34:	b580      	push	{r7, lr}
 8006b36:	b088      	sub	sp, #32
 8006b38:	af02      	add	r7, sp, #8
 8006b3a:	60f8      	str	r0, [r7, #12]
 8006b3c:	607a      	str	r2, [r7, #4]
 8006b3e:	461a      	mov	r2, r3
 8006b40:	460b      	mov	r3, r1
 8006b42:	817b      	strh	r3, [r7, #10]
 8006b44:	4613      	mov	r3, r2
 8006b46:	813b      	strh	r3, [r7, #8]
 8006b48:	f7fe fa2e 	bl	8004fa8 <HAL_GetTick>
 8006b4c:	6178      	str	r0, [r7, #20]
 8006b4e:	68fb      	ldr	r3, [r7, #12]
 8006b50:	f893 303d 	ldrb.w	r3, [r3, #61]	; 0x3d
 8006b54:	b2db      	uxtb	r3, r3
 8006b56:	2b20      	cmp	r3, #32
 8006b58:	f040 80e0 	bne.w	8006d1c <HAL_I2C_Master_Transmit+0x1e8>
 8006b5c:	697b      	ldr	r3, [r7, #20]
 8006b5e:	9300      	str	r3, [sp, #0]
 8006b60:	2319      	movs	r3, #25
 8006b62:	2201      	movs	r2, #1
 8006b64:	4970      	ldr	r1, [pc, #448]	; (8006d28 <HAL_I2C_Master_Transmit+0x1f4>)
 8006b66:	68f8      	ldr	r0, [r7, #12]
 8006b68:	f000 fa92 	bl	8007090 <I2C_WaitOnFlagUntilTimeout>
 8006b6c:	4603      	mov	r3, r0
 8006b6e:	2b00      	cmp	r3, #0
 8006b70:	d001      	beq.n	8006b76 <HAL_I2C_Master_Transmit+0x42>
 8006b72:	2302      	movs	r3, #2
 8006b74:	e0d3      	b.n	8006d1e <HAL_I2C_Master_Transmit+0x1ea>
 8006b76:	68fb      	ldr	r3, [r7, #12]
 8006b78:	f893 303c 	ldrb.w	r3, [r3, #60]	; 0x3c
 8006b7c:	2b01      	cmp	r3, #1
 8006b7e:	d101      	bne.n	8006b84 <HAL_I2C_Master_Transmit+0x50>
 8006b80:	2302      	movs	r3, #2
 8006b82:	e0cc      	b.n	8006d1e <HAL_I2C_Master_Transmit+0x1ea>
 8006b84:	68fb      	ldr	r3, [r7, #12]
 8006b86:	2201      	movs	r2, #1
 8006b88:	f883 203c 	strb.w	r2, [r3, #60]	; 0x3c
 8006b8c:	68fb      	ldr	r3, [r7, #12]
 8006b8e:	681b      	ldr	r3, [r3, #0]
 8006b90:	681b      	ldr	r3, [r3, #0]
 8006b92:	f003 0301 	and.w	r3, r3, #1
 8006b96:	2b01      	cmp	r3, #1
 8006b98:	d007      	beq.n	8006baa <HAL_I2C_Master_Transmit+0x76>
 8006b9a:	68fb      	ldr	r3, [r7, #12]
 8006b9c:	681b      	ldr	r3, [r3, #0]
 8006b9e:	681a      	ldr	r2, [r3, #0]
 8006ba0:	68fb      	ldr	r3, [r7, #12]
 8006ba2:	681b      	ldr	r3, [r3, #0]
 8006ba4:	f042 0201 	orr.w	r2, r2, #1
 8006ba8:	601a      	str	r2, [r3, #0]
 8006baa:	68fb      	ldr	r3, [r7, #12]
 8006bac:	681b      	ldr	r3, [r3, #0]
 8006bae:	681a      	ldr	r2, [r3, #0]
 8006bb0:	68fb      	ldr	r3, [r7, #12]
 8006bb2:	681b      	ldr	r3, [r3, #0]
 8006bb4:	f422 6200 	bic.w	r2, r2, #2048	; 0x800
 8006bb8:	601a      	str	r2, [r3, #0]
 8006bba:	68fb      	ldr	r3, [r7, #12]
 8006bbc:	2221      	movs	r2, #33	; 0x21
 8006bbe:	f883 203d 	strb.w	r2, [r3, #61]	; 0x3d
 8006bc2:	68fb      	ldr	r3, [r7, #12]
 8006bc4:	2210      	movs	r2, #16
 8006bc6:	f883 203e 	strb.w	r2, [r3, #62]	; 0x3e
 8006bca:	68fb      	ldr	r3, [r7, #12]
 8006bcc:	2200      	movs	r2, #0
 8006bce:	641a      	str	r2, [r3, #64]	; 0x40
 8006bd0:	68fb      	ldr	r3, [r7, #12]
 8006bd2:	687a      	ldr	r2, [r7, #4]
 8006bd4:	625a      	str	r2, [r3, #36]	; 0x24
 8006bd6:	68fb      	ldr	r3, [r7, #12]
 8006bd8:	893a      	ldrh	r2, [r7, #8]
 8006bda:	855a      	strh	r2, [r3, #42]	; 0x2a
 8006bdc:	68fb      	ldr	r3, [r7, #12]
 8006bde:	8d5b      	ldrh	r3, [r3, #42]	; 0x2a
 8006be0:	b29a      	uxth	r2, r3
 8006be2:	68fb      	ldr	r3, [r7, #12]
 8006be4:	851a      	strh	r2, [r3, #40]	; 0x28
 8006be6:	68fb      	ldr	r3, [r7, #12]
 8006be8:	4a50      	ldr	r2, [pc, #320]	; (8006d2c <HAL_I2C_Master_Transmit+0x1f8>)
 8006bea:	62da      	str	r2, [r3, #44]	; 0x2c
 8006bec:	8979      	ldrh	r1, [r7, #10]
 8006bee:	697b      	ldr	r3, [r7, #20]
 8006bf0:	6a3a      	ldr	r2, [r7, #32]
 8006bf2:	68f8      	ldr	r0, [r7, #12]
 8006bf4:	f000 f9ca 	bl	8006f8c <I2C_MasterRequestWrite>
 8006bf8:	4603      	mov	r3, r0
 8006bfa:	2b00      	cmp	r3, #0
 8006bfc:	d001      	beq.n	8006c02 <HAL_I2C_Master_Transmit+0xce>
 8006bfe:	2301      	movs	r3, #1
 8006c00:	e08d      	b.n	8006d1e <HAL_I2C_Master_Transmit+0x1ea>
 8006c02:	2300      	movs	r3, #0
 8006c04:	613b      	str	r3, [r7, #16]
 8006c06:	68fb      	ldr	r3, [r7, #12]
 8006c08:	681b      	ldr	r3, [r3, #0]
 8006c0a:	695b      	ldr	r3, [r3, #20]
 8006c0c:	613b      	str	r3, [r7, #16]
 8006c0e:	68fb      	ldr	r3, [r7, #12]
 8006c10:	681b      	ldr	r3, [r3, #0]
 8006c12:	699b      	ldr	r3, [r3, #24]
 8006c14:	613b      	str	r3, [r7, #16]
 8006c16:	693b      	ldr	r3, [r7, #16]
 8006c18:	e066      	b.n	8006ce8 <HAL_I2C_Master_Transmit+0x1b4>
 8006c1a:	697a      	ldr	r2, [r7, #20]
 8006c1c:	6a39      	ldr	r1, [r7, #32]
 8006c1e:	68f8      	ldr	r0, [r7, #12]
 8006c20:	f000 fb0c 	bl	800723c <I2C_WaitOnTXEFlagUntilTimeout>
 8006c24:	4603      	mov	r3, r0
 8006c26:	2b00      	cmp	r3, #0
 8006c28:	d00d      	beq.n	8006c46 <HAL_I2C_Master_Transmit+0x112>
 8006c2a:	68fb      	ldr	r3, [r7, #12]
 8006c2c:	6c1b      	ldr	r3, [r3, #64]	; 0x40
 8006c2e:	2b04      	cmp	r3, #4
 8006c30:	d107      	bne.n	8006c42 <HAL_I2C_Master_Transmit+0x10e>
 8006c32:	68fb      	ldr	r3, [r7, #12]
 8006c34:	681b      	ldr	r3, [r3, #0]
 8006c36:	681a      	ldr	r2, [r3, #0]
 8006c38:	68fb      	ldr	r3, [r7, #12]
 8006c3a:	681b      	ldr	r3, [r3, #0]
 8006c3c:	f442 7200 	orr.w	r2, r2, #512	; 0x200
 8006c40:	601a      	str	r2, [r3, #0]
 8006c42:	2301      	movs	r3, #1
 8006c44:	e06b      	b.n	8006d1e <HAL_I2C_Master_Transmit+0x1ea>
 8006c46:	68fb      	ldr	r3, [r7, #12]
 8006c48:	6a5b      	ldr	r3, [r3, #36]	; 0x24
 8006c4a:	781a      	ldrb	r2, [r3, #0]
 8006c4c:	68fb      	ldr	r3, [r7, #12]
 8006c4e:	681b      	ldr	r3, [r3, #0]
 8006c50:	611a      	str	r2, [r3, #16]
 8006c52:	68fb      	ldr	r3, [r7, #12]
 8006c54:	6a5b      	ldr	r3, [r3, #36]	; 0x24
 8006c56:	1c5a      	adds	r2, r3, #1
 8006c58:	68fb      	ldr	r3, [r7, #12]
 8006c5a:	625a      	str	r2, [r3, #36]	; 0x24
 8006c5c:	68fb      	ldr	r3, [r7, #12]
 8006c5e:	8d5b      	ldrh	r3, [r3, #42]	; 0x2a
 8006c60:	b29b      	uxth	r3, r3
 8006c62:	3b01      	subs	r3, #1
 8006c64:	b29a      	uxth	r2, r3
 8006c66:	68fb      	ldr	r3, [r7, #12]
 8006c68:	855a      	strh	r2, [r3, #42]	; 0x2a
 8006c6a:	68fb      	ldr	r3, [r7, #12]
 8006c6c:	8d1b      	ldrh	r3, [r3, #40]	; 0x28
 8006c6e:	3b01      	subs	r3, #1
 8006c70:	b29a      	uxth	r2, r3
 8006c72:	68fb      	ldr	r3, [r7, #12]
 8006c74:	851a      	strh	r2, [r3, #40]	; 0x28
 8006c76:	68fb      	ldr	r3, [r7, #12]
 8006c78:	681b      	ldr	r3, [r3, #0]
 8006c7a:	695b      	ldr	r3, [r3, #20]
 8006c7c:	f003 0304 	and.w	r3, r3, #4
 8006c80:	2b04      	cmp	r3, #4
 8006c82:	d11b      	bne.n	8006cbc <HAL_I2C_Master_Transmit+0x188>
 8006c84:	68fb      	ldr	r3, [r7, #12]
 8006c86:	8d1b      	ldrh	r3, [r3, #40]	; 0x28
 8006c88:	2b00      	cmp	r3, #0
 8006c8a:	d017      	beq.n	8006cbc <HAL_I2C_Master_Transmit+0x188>
 8006c8c:	68fb      	ldr	r3, [r7, #12]
 8006c8e:	6a5b      	ldr	r3, [r3, #36]	; 0x24
 8006c90:	781a      	ldrb	r2, [r3, #0]
 8006c92:	68fb      	ldr	r3, [r7, #12]
 8006c94:	681b      	ldr	r3, [r3, #0]
 8006c96:	611a      	str	r2, [r3, #16]
 8006c98:	68fb      	ldr	r3, [r7, #12]
 8006c9a:	6a5b      	ldr	r3, [r3, #36]	; 0x24
 8006c9c:	1c5a      	adds	r2, r3, #1
 8006c9e:	68fb      	ldr	r3, [r7, #12]
 8006ca0:	625a      	str	r2, [r3, #36]	; 0x24
 8006ca2:	68fb      	ldr	r3, [r7, #12]
 8006ca4:	8d5b      	ldrh	r3, [r3, #42]	; 0x2a
 8006ca6:	b29b      	uxth	r3, r3
 8006ca8:	3b01      	subs	r3, #1
 8006caa:	b29a      	uxth	r2, r3
 8006cac:	68fb      	ldr	r3, [r7, #12]
 8006cae:	855a      	strh	r2, [r3, #42]	; 0x2a
 8006cb0:	68fb      	ldr	r3, [r7, #12]
 8006cb2:	8d1b      	ldrh	r3, [r3, #40]	; 0x28
 8006cb4:	3b01      	subs	r3, #1
 8006cb6:	b29a      	uxth	r2, r3
 8006cb8:	68fb      	ldr	r3, [r7, #12]
 8006cba:	851a      	strh	r2, [r3, #40]	; 0x28
 8006cbc:	697a      	ldr	r2, [r7, #20]
 8006cbe:	6a39      	ldr	r1, [r7, #32]
 8006cc0:	68f8      	ldr	r0, [r7, #12]
 8006cc2:	f000 fafc 	bl	80072be <I2C_WaitOnBTFFlagUntilTimeout>
 8006cc6:	4603      	mov	r3, r0
 8006cc8:	2b00      	cmp	r3, #0
 8006cca:	d00d      	beq.n	8006ce8 <HAL_I2C_Master_Transmit+0x1b4>
 8006ccc:	68fb      	ldr	r3, [r7, #12]
 8006cce:	6c1b      	ldr	r3, [r3, #64]	; 0x40
 8006cd0:	2b04      	cmp	r3, #4
 8006cd2:	d107      	bne.n	8006ce4 <HAL_I2C_Master_Transmit+0x1b0>
 8006cd4:	68fb      	ldr	r3, [r7, #12]
 8006cd6:	681b      	ldr	r3, [r3, #0]
 8006cd8:	681a      	ldr	r2, [r3, #0]
 8006cda:	68fb      	ldr	r3, [r7, #12]
 8006cdc:	681b      	ldr	r3, [r3, #0]
 8006cde:	f442 7200 	orr.w	r2, r2, #512	; 0x200
 8006ce2:	601a      	str	r2, [r3, #0]
 8006ce4:	2301      	movs	r3, #1
 8006ce6:	e01a      	b.n	8006d1e <HAL_I2C_Master_Transmit+0x1ea>
 8006ce8:	68fb      	ldr	r3, [r7, #12]
 8006cea:	8d1b      	ldrh	r3, [r3, #40]	; 0x28
 8006cec:	2b00      	cmp	r3, #0
 8006cee:	d194      	bne.n	8006c1a <HAL_I2C_Master_Transmit+0xe6>
 8006cf0:	68fb      	ldr	r3, [r7, #12]
 8006cf2:	681b      	ldr	r3, [r3, #0]
 8006cf4:	681a      	ldr	r2, [r3, #0]
 8006cf6:	68fb      	ldr	r3, [r7, #12]
 8006cf8:	681b      	ldr	r3, [r3, #0]
 8006cfa:	f442 7200 	orr.w	r2, r2, #512	; 0x200
 8006cfe:	601a      	str	r2, [r3, #0]
 8006d00:	68fb      	ldr	r3, [r7, #12]
 8006d02:	2220      	movs	r2, #32
 8006d04:	f883 203d 	strb.w	r2, [r3, #61]	; 0x3d
 8006d08:	68fb      	ldr	r3, [r7, #12]
 8006d0a:	2200      	movs	r2, #0
 8006d0c:	f883 203e 	strb.w	r2, [r3, #62]	; 0x3e
 8006d10:	68fb      	ldr	r3, [r7, #12]
 8006d12:	2200      	movs	r2, #0
 8006d14:	f883 203c 	strb.w	r2, [r3, #60]	; 0x3c
 8006d18:	2300      	movs	r3, #0
 8006d1a:	e000      	b.n	8006d1e <HAL_I2C_Master_Transmit+0x1ea>
 8006d1c:	2302      	movs	r3, #2
 8006d1e:	4618      	mov	r0, r3
 8006d20:	3718      	adds	r7, #24
 8006d22:	46bd      	mov	sp, r7
 8006d24:	bd80      	pop	{r7, pc}
 8006d26:	bf00      	nop
 8006d28:	00100002 	.word	0x00100002
 8006d2c:	ffff0000 	.word	0xffff0000

08006d30 <HAL_I2C_IsDeviceReady>:
 8006d30:	b580      	push	{r7, lr}
 8006d32:	b08a      	sub	sp, #40	; 0x28
 8006d34:	af02      	add	r7, sp, #8
 8006d36:	60f8      	str	r0, [r7, #12]
 8006d38:	607a      	str	r2, [r7, #4]
 8006d3a:	603b      	str	r3, [r7, #0]
 8006d3c:	460b      	mov	r3, r1
 8006d3e:	817b      	strh	r3, [r7, #10]
 8006d40:	f7fe f932 	bl	8004fa8 <HAL_GetTick>
 8006d44:	61f8      	str	r0, [r7, #28]
 8006d46:	2301      	movs	r3, #1
 8006d48:	61bb      	str	r3, [r7, #24]
 8006d4a:	68fb      	ldr	r3, [r7, #12]
 8006d4c:	f893 303d 	ldrb.w	r3, [r3, #61]	; 0x3d
 8006d50:	b2db      	uxtb	r3, r3
 8006d52:	2b20      	cmp	r3, #32
 8006d54:	f040 8111 	bne.w	8006f7a <HAL_I2C_IsDeviceReady+0x24a>
 8006d58:	69fb      	ldr	r3, [r7, #28]
 8006d5a:	9300      	str	r3, [sp, #0]
 8006d5c:	2319      	movs	r3, #25
 8006d5e:	2201      	movs	r2, #1
 8006d60:	4988      	ldr	r1, [pc, #544]	; (8006f84 <HAL_I2C_IsDeviceReady+0x254>)
 8006d62:	68f8      	ldr	r0, [r7, #12]
 8006d64:	f000 f994 	bl	8007090 <I2C_WaitOnFlagUntilTimeout>
 8006d68:	4603      	mov	r3, r0
 8006d6a:	2b00      	cmp	r3, #0
 8006d6c:	d001      	beq.n	8006d72 <HAL_I2C_IsDeviceReady+0x42>
 8006d6e:	2302      	movs	r3, #2
 8006d70:	e104      	b.n	8006f7c <HAL_I2C_IsDeviceReady+0x24c>
 8006d72:	68fb      	ldr	r3, [r7, #12]
 8006d74:	f893 303c 	ldrb.w	r3, [r3, #60]	; 0x3c
 8006d78:	2b01      	cmp	r3, #1
 8006d7a:	d101      	bne.n	8006d80 <HAL_I2C_IsDeviceReady+0x50>
 8006d7c:	2302      	movs	r3, #2
 8006d7e:	e0fd      	b.n	8006f7c <HAL_I2C_IsDeviceReady+0x24c>
 8006d80:	68fb      	ldr	r3, [r7, #12]
 8006d82:	2201      	movs	r2, #1
 8006d84:	f883 203c 	strb.w	r2, [r3, #60]	; 0x3c
 8006d88:	68fb      	ldr	r3, [r7, #12]
 8006d8a:	681b      	ldr	r3, [r3, #0]
 8006d8c:	681b      	ldr	r3, [r3, #0]
 8006d8e:	f003 0301 	and.w	r3, r3, #1
 8006d92:	2b01      	cmp	r3, #1
 8006d94:	d007      	beq.n	8006da6 <HAL_I2C_IsDeviceReady+0x76>
 8006d96:	68fb      	ldr	r3, [r7, #12]
 8006d98:	681b      	ldr	r3, [r3, #0]
 8006d9a:	681a      	ldr	r2, [r3, #0]
 8006d9c:	68fb      	ldr	r3, [r7, #12]
 8006d9e:	681b      	ldr	r3, [r3, #0]
 8006da0:	f042 0201 	orr.w	r2, r2, #1
 8006da4:	601a      	str	r2, [r3, #0]
 8006da6:	68fb      	ldr	r3, [r7, #12]
 8006da8:	681b      	ldr	r3, [r3, #0]
 8006daa:	681a      	ldr	r2, [r3, #0]
 8006dac:	68fb      	ldr	r3, [r7, #12]
 8006dae:	681b      	ldr	r3, [r3, #0]
 8006db0:	f422 6200 	bic.w	r2, r2, #2048	; 0x800
 8006db4:	601a      	str	r2, [r3, #0]
 8006db6:	68fb      	ldr	r3, [r7, #12]
 8006db8:	2224      	movs	r2, #36	; 0x24
 8006dba:	f883 203d 	strb.w	r2, [r3, #61]	; 0x3d
 8006dbe:	68fb      	ldr	r3, [r7, #12]
 8006dc0:	2200      	movs	r2, #0
 8006dc2:	641a      	str	r2, [r3, #64]	; 0x40
 8006dc4:	68fb      	ldr	r3, [r7, #12]
 8006dc6:	4a70      	ldr	r2, [pc, #448]	; (8006f88 <HAL_I2C_IsDeviceReady+0x258>)
 8006dc8:	62da      	str	r2, [r3, #44]	; 0x2c
 8006dca:	68fb      	ldr	r3, [r7, #12]
 8006dcc:	681b      	ldr	r3, [r3, #0]
 8006dce:	681a      	ldr	r2, [r3, #0]
 8006dd0:	68fb      	ldr	r3, [r7, #12]
 8006dd2:	681b      	ldr	r3, [r3, #0]
 8006dd4:	f442 7280 	orr.w	r2, r2, #256	; 0x100
 8006dd8:	601a      	str	r2, [r3, #0]
 8006dda:	69fb      	ldr	r3, [r7, #28]
 8006ddc:	9300      	str	r3, [sp, #0]
 8006dde:	683b      	ldr	r3, [r7, #0]
 8006de0:	2200      	movs	r2, #0
 8006de2:	f04f 1101 	mov.w	r1, #65537	; 0x10001
 8006de6:	68f8      	ldr	r0, [r7, #12]
 8006de8:	f000 f952 	bl	8007090 <I2C_WaitOnFlagUntilTimeout>
 8006dec:	4603      	mov	r3, r0
 8006dee:	2b00      	cmp	r3, #0
 8006df0:	d00d      	beq.n	8006e0e <HAL_I2C_IsDeviceReady+0xde>
 8006df2:	68fb      	ldr	r3, [r7, #12]
 8006df4:	681b      	ldr	r3, [r3, #0]
 8006df6:	681b      	ldr	r3, [r3, #0]
 8006df8:	f403 7380 	and.w	r3, r3, #256	; 0x100
 8006dfc:	f5b3 7f80 	cmp.w	r3, #256	; 0x100
 8006e00:	d103      	bne.n	8006e0a <HAL_I2C_IsDeviceReady+0xda>
 8006e02:	68fb      	ldr	r3, [r7, #12]
 8006e04:	f44f 7200 	mov.w	r2, #512	; 0x200
 8006e08:	641a      	str	r2, [r3, #64]	; 0x40
 8006e0a:	2303      	movs	r3, #3
 8006e0c:	e0b6      	b.n	8006f7c <HAL_I2C_IsDeviceReady+0x24c>
 8006e0e:	897b      	ldrh	r3, [r7, #10]
 8006e10:	b2db      	uxtb	r3, r3
 8006e12:	461a      	mov	r2, r3
 8006e14:	68fb      	ldr	r3, [r7, #12]
 8006e16:	681b      	ldr	r3, [r3, #0]
 8006e18:	f002 02fe 	and.w	r2, r2, #254	; 0xfe
 8006e1c:	611a      	str	r2, [r3, #16]
 8006e1e:	f7fe f8c3 	bl	8004fa8 <HAL_GetTick>
 8006e22:	61f8      	str	r0, [r7, #28]
 8006e24:	68fb      	ldr	r3, [r7, #12]
 8006e26:	681b      	ldr	r3, [r3, #0]
 8006e28:	695b      	ldr	r3, [r3, #20]
 8006e2a:	f003 0302 	and.w	r3, r3, #2
 8006e2e:	2b02      	cmp	r3, #2
 8006e30:	bf0c      	ite	eq
 8006e32:	2301      	moveq	r3, #1
 8006e34:	2300      	movne	r3, #0
 8006e36:	b2db      	uxtb	r3, r3
 8006e38:	75fb      	strb	r3, [r7, #23]
 8006e3a:	68fb      	ldr	r3, [r7, #12]
 8006e3c:	681b      	ldr	r3, [r3, #0]
 8006e3e:	695b      	ldr	r3, [r3, #20]
 8006e40:	f403 6380 	and.w	r3, r3, #1024	; 0x400
 8006e44:	f5b3 6f80 	cmp.w	r3, #1024	; 0x400
 8006e48:	bf0c      	ite	eq
 8006e4a:	2301      	moveq	r3, #1
 8006e4c:	2300      	movne	r3, #0
 8006e4e:	b2db      	uxtb	r3, r3
 8006e50:	75bb      	strb	r3, [r7, #22]
 8006e52:	e025      	b.n	8006ea0 <HAL_I2C_IsDeviceReady+0x170>
 8006e54:	f7fe f8a8 	bl	8004fa8 <HAL_GetTick>
 8006e58:	4602      	mov	r2, r0
 8006e5a:	69fb      	ldr	r3, [r7, #28]
 8006e5c:	1ad3      	subs	r3, r2, r3
 8006e5e:	683a      	ldr	r2, [r7, #0]
 8006e60:	429a      	cmp	r2, r3
 8006e62:	d302      	bcc.n	8006e6a <HAL_I2C_IsDeviceReady+0x13a>
 8006e64:	683b      	ldr	r3, [r7, #0]
 8006e66:	2b00      	cmp	r3, #0
 8006e68:	d103      	bne.n	8006e72 <HAL_I2C_IsDeviceReady+0x142>
 8006e6a:	68fb      	ldr	r3, [r7, #12]
 8006e6c:	22a0      	movs	r2, #160	; 0xa0
 8006e6e:	f883 203d 	strb.w	r2, [r3, #61]	; 0x3d
 8006e72:	68fb      	ldr	r3, [r7, #12]
 8006e74:	681b      	ldr	r3, [r3, #0]
 8006e76:	695b      	ldr	r3, [r3, #20]
 8006e78:	f003 0302 	and.w	r3, r3, #2
 8006e7c:	2b02      	cmp	r3, #2
 8006e7e:	bf0c      	ite	eq
 8006e80:	2301      	moveq	r3, #1
 8006e82:	2300      	movne	r3, #0
 8006e84:	b2db      	uxtb	r3, r3
 8006e86:	75fb      	strb	r3, [r7, #23]
 8006e88:	68fb      	ldr	r3, [r7, #12]
 8006e8a:	681b      	ldr	r3, [r3, #0]
 8006e8c:	695b      	ldr	r3, [r3, #20]
 8006e8e:	f403 6380 	and.w	r3, r3, #1024	; 0x400
 8006e92:	f5b3 6f80 	cmp.w	r3, #1024	; 0x400
 8006e96:	bf0c      	ite	eq
 8006e98:	2301      	moveq	r3, #1
 8006e9a:	2300      	movne	r3, #0
 8006e9c:	b2db      	uxtb	r3, r3
 8006e9e:	75bb      	strb	r3, [r7, #22]
 8006ea0:	68fb      	ldr	r3, [r7, #12]
 8006ea2:	f893 303d 	ldrb.w	r3, [r3, #61]	; 0x3d
 8006ea6:	b2db      	uxtb	r3, r3
 8006ea8:	2ba0      	cmp	r3, #160	; 0xa0
 8006eaa:	d005      	beq.n	8006eb8 <HAL_I2C_IsDeviceReady+0x188>
 8006eac:	7dfb      	ldrb	r3, [r7, #23]
 8006eae:	2b00      	cmp	r3, #0
 8006eb0:	d102      	bne.n	8006eb8 <HAL_I2C_IsDeviceReady+0x188>
 8006eb2:	7dbb      	ldrb	r3, [r7, #22]
 8006eb4:	2b00      	cmp	r3, #0
 8006eb6:	d0cd      	beq.n	8006e54 <HAL_I2C_IsDeviceReady+0x124>
 8006eb8:	68fb      	ldr	r3, [r7, #12]
 8006eba:	2220      	movs	r2, #32
 8006ebc:	f883 203d 	strb.w	r2, [r3, #61]	; 0x3d
 8006ec0:	68fb      	ldr	r3, [r7, #12]
 8006ec2:	681b      	ldr	r3, [r3, #0]
 8006ec4:	695b      	ldr	r3, [r3, #20]
 8006ec6:	f003 0302 	and.w	r3, r3, #2
 8006eca:	2b02      	cmp	r3, #2
 8006ecc:	d129      	bne.n	8006f22 <HAL_I2C_IsDeviceReady+0x1f2>
 8006ece:	68fb      	ldr	r3, [r7, #12]
 8006ed0:	681b      	ldr	r3, [r3, #0]
 8006ed2:	681a      	ldr	r2, [r3, #0]
 8006ed4:	68fb      	ldr	r3, [r7, #12]
 8006ed6:	681b      	ldr	r3, [r3, #0]
 8006ed8:	f442 7200 	orr.w	r2, r2, #512	; 0x200
 8006edc:	601a      	str	r2, [r3, #0]
 8006ede:	2300      	movs	r3, #0
 8006ee0:	613b      	str	r3, [r7, #16]
 8006ee2:	68fb      	ldr	r3, [r7, #12]
 8006ee4:	681b      	ldr	r3, [r3, #0]
 8006ee6:	695b      	ldr	r3, [r3, #20]
 8006ee8:	613b      	str	r3, [r7, #16]
 8006eea:	68fb      	ldr	r3, [r7, #12]
 8006eec:	681b      	ldr	r3, [r3, #0]
 8006eee:	699b      	ldr	r3, [r3, #24]
 8006ef0:	613b      	str	r3, [r7, #16]
 8006ef2:	693b      	ldr	r3, [r7, #16]
 8006ef4:	69fb      	ldr	r3, [r7, #28]
 8006ef6:	9300      	str	r3, [sp, #0]
 8006ef8:	2319      	movs	r3, #25
 8006efa:	2201      	movs	r2, #1
 8006efc:	4921      	ldr	r1, [pc, #132]	; (8006f84 <HAL_I2C_IsDeviceReady+0x254>)
 8006efe:	68f8      	ldr	r0, [r7, #12]
 8006f00:	f000 f8c6 	bl	8007090 <I2C_WaitOnFlagUntilTimeout>
 8006f04:	4603      	mov	r3, r0
 8006f06:	2b00      	cmp	r3, #0
 8006f08:	d001      	beq.n	8006f0e <HAL_I2C_IsDeviceReady+0x1de>
 8006f0a:	2301      	movs	r3, #1
 8006f0c:	e036      	b.n	8006f7c <HAL_I2C_IsDeviceReady+0x24c>
 8006f0e:	68fb      	ldr	r3, [r7, #12]
 8006f10:	2220      	movs	r2, #32
 8006f12:	f883 203d 	strb.w	r2, [r3, #61]	; 0x3d
 8006f16:	68fb      	ldr	r3, [r7, #12]
 8006f18:	2200      	movs	r2, #0
 8006f1a:	f883 203c 	strb.w	r2, [r3, #60]	; 0x3c
 8006f1e:	2300      	movs	r3, #0
 8006f20:	e02c      	b.n	8006f7c <HAL_I2C_IsDeviceReady+0x24c>
 8006f22:	68fb      	ldr	r3, [r7, #12]
 8006f24:	681b      	ldr	r3, [r3, #0]
 8006f26:	681a      	ldr	r2, [r3, #0]
 8006f28:	68fb      	ldr	r3, [r7, #12]
 8006f2a:	681b      	ldr	r3, [r3, #0]
 8006f2c:	f442 7200 	orr.w	r2, r2, #512	; 0x200
 8006f30:	601a      	str	r2, [r3, #0]
 8006f32:	68fb      	ldr	r3, [r7, #12]
 8006f34:	681b      	ldr	r3, [r3, #0]
 8006f36:	f46f 6280 	mvn.w	r2, #1024	; 0x400
 8006f3a:	615a      	str	r2, [r3, #20]
 8006f3c:	69fb      	ldr	r3, [r7, #28]
 8006f3e:	9300      	str	r3, [sp, #0]
 8006f40:	2319      	movs	r3, #25
 8006f42:	2201      	movs	r2, #1
 8006f44:	490f      	ldr	r1, [pc, #60]	; (8006f84 <HAL_I2C_IsDeviceReady+0x254>)
 8006f46:	68f8      	ldr	r0, [r7, #12]
 8006f48:	f000 f8a2 	bl	8007090 <I2C_WaitOnFlagUntilTimeout>
 8006f4c:	4603      	mov	r3, r0
 8006f4e:	2b00      	cmp	r3, #0
 8006f50:	d001      	beq.n	8006f56 <HAL_I2C_IsDeviceReady+0x226>
 8006f52:	2301      	movs	r3, #1
 8006f54:	e012      	b.n	8006f7c <HAL_I2C_IsDeviceReady+0x24c>
 8006f56:	69bb      	ldr	r3, [r7, #24]
 8006f58:	3301      	adds	r3, #1
 8006f5a:	61bb      	str	r3, [r7, #24]
 8006f5c:	69ba      	ldr	r2, [r7, #24]
 8006f5e:	687b      	ldr	r3, [r7, #4]
 8006f60:	429a      	cmp	r2, r3
 8006f62:	f4ff af32 	bcc.w	8006dca <HAL_I2C_IsDeviceReady+0x9a>
 8006f66:	68fb      	ldr	r3, [r7, #12]
 8006f68:	2220      	movs	r2, #32
 8006f6a:	f883 203d 	strb.w	r2, [r3, #61]	; 0x3d
 8006f6e:	68fb      	ldr	r3, [r7, #12]
 8006f70:	2200      	movs	r2, #0
 8006f72:	f883 203c 	strb.w	r2, [r3, #60]	; 0x3c
 8006f76:	2301      	movs	r3, #1
 8006f78:	e000      	b.n	8006f7c <HAL_I2C_IsDeviceReady+0x24c>
 8006f7a:	2302      	movs	r3, #2
 8006f7c:	4618      	mov	r0, r3
 8006f7e:	3720      	adds	r7, #32
 8006f80:	46bd      	mov	sp, r7
 8006f82:	bd80      	pop	{r7, pc}
 8006f84:	00100002 	.word	0x00100002
 8006f88:	ffff0000 	.word	0xffff0000

08006f8c <I2C_MasterRequestWrite>:
 8006f8c:	b580      	push	{r7, lr}
 8006f8e:	b088      	sub	sp, #32
 8006f90:	af02      	add	r7, sp, #8
 8006f92:	60f8      	str	r0, [r7, #12]
 8006f94:	607a      	str	r2, [r7, #4]
 8006f96:	603b      	str	r3, [r7, #0]
 8006f98:	460b      	mov	r3, r1
 8006f9a:	817b      	strh	r3, [r7, #10]
 8006f9c:	68fb      	ldr	r3, [r7, #12]
 8006f9e:	6adb      	ldr	r3, [r3, #44]	; 0x2c
 8006fa0:	617b      	str	r3, [r7, #20]
 8006fa2:	697b      	ldr	r3, [r7, #20]
 8006fa4:	2b08      	cmp	r3, #8
 8006fa6:	d006      	beq.n	8006fb6 <I2C_MasterRequestWrite+0x2a>
 8006fa8:	697b      	ldr	r3, [r7, #20]
 8006faa:	2b01      	cmp	r3, #1
 8006fac:	d003      	beq.n	8006fb6 <I2C_MasterRequestWrite+0x2a>
 8006fae:	697b      	ldr	r3, [r7, #20]
 8006fb0:	f513 3f80 	cmn.w	r3, #65536	; 0x10000
 8006fb4:	d108      	bne.n	8006fc8 <I2C_MasterRequestWrite+0x3c>
 8006fb6:	68fb      	ldr	r3, [r7, #12]
 8006fb8:	681b      	ldr	r3, [r3, #0]
 8006fba:	681a      	ldr	r2, [r3, #0]
 8006fbc:	68fb      	ldr	r3, [r7, #12]
 8006fbe:	681b      	ldr	r3, [r3, #0]
 8006fc0:	f442 7280 	orr.w	r2, r2, #256	; 0x100
 8006fc4:	601a      	str	r2, [r3, #0]
 8006fc6:	e00b      	b.n	8006fe0 <I2C_MasterRequestWrite+0x54>
 8006fc8:	68fb      	ldr	r3, [r7, #12]
 8006fca:	6b1b      	ldr	r3, [r3, #48]	; 0x30
 8006fcc:	2b12      	cmp	r3, #18
 8006fce:	d107      	bne.n	8006fe0 <I2C_MasterRequestWrite+0x54>
 8006fd0:	68fb      	ldr	r3, [r7, #12]
 8006fd2:	681b      	ldr	r3, [r3, #0]
 8006fd4:	681a      	ldr	r2, [r3, #0]
 8006fd6:	68fb      	ldr	r3, [r7, #12]
 8006fd8:	681b      	ldr	r3, [r3, #0]
 8006fda:	f442 7280 	orr.w	r2, r2, #256	; 0x100
 8006fde:	601a      	str	r2, [r3, #0]
 8006fe0:	683b      	ldr	r3, [r7, #0]
 8006fe2:	9300      	str	r3, [sp, #0]
 8006fe4:	687b      	ldr	r3, [r7, #4]
 8006fe6:	2200      	movs	r2, #0
 8006fe8:	f04f 1101 	mov.w	r1, #65537	; 0x10001
 8006fec:	68f8      	ldr	r0, [r7, #12]
 8006fee:	f000 f84f 	bl	8007090 <I2C_WaitOnFlagUntilTimeout>
 8006ff2:	4603      	mov	r3, r0
 8006ff4:	2b00      	cmp	r3, #0
 8006ff6:	d00d      	beq.n	8007014 <I2C_MasterRequestWrite+0x88>
 8006ff8:	68fb      	ldr	r3, [r7, #12]
 8006ffa:	681b      	ldr	r3, [r3, #0]
 8006ffc:	681b      	ldr	r3, [r3, #0]
 8006ffe:	f403 7380 	and.w	r3, r3, #256	; 0x100
 8007002:	f5b3 7f80 	cmp.w	r3, #256	; 0x100
 8007006:	d103      	bne.n	8007010 <I2C_MasterRequestWrite+0x84>
 8007008:	68fb      	ldr	r3, [r7, #12]
 800700a:	f44f 7200 	mov.w	r2, #512	; 0x200
 800700e:	641a      	str	r2, [r3, #64]	; 0x40
 8007010:	2303      	movs	r3, #3
 8007012:	e035      	b.n	8007080 <I2C_MasterRequestWrite+0xf4>
 8007014:	68fb      	ldr	r3, [r7, #12]
 8007016:	691b      	ldr	r3, [r3, #16]
 8007018:	f5b3 4f80 	cmp.w	r3, #16384	; 0x4000
 800701c:	d108      	bne.n	8007030 <I2C_MasterRequestWrite+0xa4>
 800701e:	897b      	ldrh	r3, [r7, #10]
 8007020:	b2db      	uxtb	r3, r3
 8007022:	461a      	mov	r2, r3
 8007024:	68fb      	ldr	r3, [r7, #12]
 8007026:	681b      	ldr	r3, [r3, #0]
 8007028:	f002 02fe 	and.w	r2, r2, #254	; 0xfe
 800702c:	611a      	str	r2, [r3, #16]
 800702e:	e01b      	b.n	8007068 <I2C_MasterRequestWrite+0xdc>
 8007030:	897b      	ldrh	r3, [r7, #10]
 8007032:	11db      	asrs	r3, r3, #7
 8007034:	b2db      	uxtb	r3, r3
 8007036:	f003 0306 	and.w	r3, r3, #6
 800703a:	b2db      	uxtb	r3, r3
 800703c:	f063 030f 	orn	r3, r3, #15
 8007040:	b2da      	uxtb	r2, r3
 8007042:	68fb      	ldr	r3, [r7, #12]
 8007044:	681b      	ldr	r3, [r3, #0]
 8007046:	611a      	str	r2, [r3, #16]
 8007048:	683b      	ldr	r3, [r7, #0]
 800704a:	687a      	ldr	r2, [r7, #4]
 800704c:	490e      	ldr	r1, [pc, #56]	; (8007088 <I2C_MasterRequestWrite+0xfc>)
 800704e:	68f8      	ldr	r0, [r7, #12]
 8007050:	f000 f875 	bl	800713e <I2C_WaitOnMasterAddressFlagUntilTimeout>
 8007054:	4603      	mov	r3, r0
 8007056:	2b00      	cmp	r3, #0
 8007058:	d001      	beq.n	800705e <I2C_MasterRequestWrite+0xd2>
 800705a:	2301      	movs	r3, #1
 800705c:	e010      	b.n	8007080 <I2C_MasterRequestWrite+0xf4>
 800705e:	897b      	ldrh	r3, [r7, #10]
 8007060:	b2da      	uxtb	r2, r3
 8007062:	68fb      	ldr	r3, [r7, #12]
 8007064:	681b      	ldr	r3, [r3, #0]
 8007066:	611a      	str	r2, [r3, #16]
 8007068:	683b      	ldr	r3, [r7, #0]
 800706a:	687a      	ldr	r2, [r7, #4]
 800706c:	4907      	ldr	r1, [pc, #28]	; (800708c <I2C_MasterRequestWrite+0x100>)
 800706e:	68f8      	ldr	r0, [r7, #12]
 8007070:	f000 f865 	bl	800713e <I2C_WaitOnMasterAddressFlagUntilTimeout>
 8007074:	4603      	mov	r3, r0
 8007076:	2b00      	cmp	r3, #0
 8007078:	d001      	beq.n	800707e <I2C_MasterRequestWrite+0xf2>
 800707a:	2301      	movs	r3, #1
 800707c:	e000      	b.n	8007080 <I2C_MasterRequestWrite+0xf4>
 800707e:	2300      	movs	r3, #0
 8007080:	4618      	mov	r0, r3
 8007082:	3718      	adds	r7, #24
 8007084:	46bd      	mov	sp, r7
 8007086:	bd80      	pop	{r7, pc}
 8007088:	00010008 	.word	0x00010008
 800708c:	00010002 	.word	0x00010002

08007090 <I2C_WaitOnFlagUntilTimeout>:
 8007090:	b580      	push	{r7, lr}
 8007092:	b084      	sub	sp, #16
 8007094:	af00      	add	r7, sp, #0
 8007096:	60f8      	str	r0, [r7, #12]
 8007098:	60b9      	str	r1, [r7, #8]
 800709a:	603b      	str	r3, [r7, #0]
 800709c:	4613      	mov	r3, r2
 800709e:	71fb      	strb	r3, [r7, #7]
 80070a0:	e025      	b.n	80070ee <I2C_WaitOnFlagUntilTimeout+0x5e>
 80070a2:	683b      	ldr	r3, [r7, #0]
 80070a4:	f1b3 3fff 	cmp.w	r3, #4294967295
 80070a8:	d021      	beq.n	80070ee <I2C_WaitOnFlagUntilTimeout+0x5e>
 80070aa:	f7fd ff7d 	bl	8004fa8 <HAL_GetTick>
 80070ae:	4602      	mov	r2, r0
 80070b0:	69bb      	ldr	r3, [r7, #24]
 80070b2:	1ad3      	subs	r3, r2, r3
 80070b4:	683a      	ldr	r2, [r7, #0]
 80070b6:	429a      	cmp	r2, r3
 80070b8:	d302      	bcc.n	80070c0 <I2C_WaitOnFlagUntilTimeout+0x30>
 80070ba:	683b      	ldr	r3, [r7, #0]
 80070bc:	2b00      	cmp	r3, #0
 80070be:	d116      	bne.n	80070ee <I2C_WaitOnFlagUntilTimeout+0x5e>
 80070c0:	68fb      	ldr	r3, [r7, #12]
 80070c2:	2200      	movs	r2, #0
 80070c4:	631a      	str	r2, [r3, #48]	; 0x30
 80070c6:	68fb      	ldr	r3, [r7, #12]
 80070c8:	2220      	movs	r2, #32
 80070ca:	f883 203d 	strb.w	r2, [r3, #61]	; 0x3d
 80070ce:	68fb      	ldr	r3, [r7, #12]
 80070d0:	2200      	movs	r2, #0
 80070d2:	f883 203e 	strb.w	r2, [r3, #62]	; 0x3e
 80070d6:	68fb      	ldr	r3, [r7, #12]
 80070d8:	6c1b      	ldr	r3, [r3, #64]	; 0x40
 80070da:	f043 0220 	orr.w	r2, r3, #32
 80070de:	68fb      	ldr	r3, [r7, #12]
 80070e0:	641a      	str	r2, [r3, #64]	; 0x40
 80070e2:	68fb      	ldr	r3, [r7, #12]
 80070e4:	2200      	movs	r2, #0
 80070e6:	f883 203c 	strb.w	r2, [r3, #60]	; 0x3c
 80070ea:	2301      	movs	r3, #1
 80070ec:	e023      	b.n	8007136 <I2C_WaitOnFlagUntilTimeout+0xa6>
 80070ee:	68bb      	ldr	r3, [r7, #8]
 80070f0:	0c1b      	lsrs	r3, r3, #16
 80070f2:	b2db      	uxtb	r3, r3
 80070f4:	2b01      	cmp	r3, #1
 80070f6:	d10d      	bne.n	8007114 <I2C_WaitOnFlagUntilTimeout+0x84>
 80070f8:	68fb      	ldr	r3, [r7, #12]
 80070fa:	681b      	ldr	r3, [r3, #0]
 80070fc:	695b      	ldr	r3, [r3, #20]
 80070fe:	43da      	mvns	r2, r3
 8007100:	68bb      	ldr	r3, [r7, #8]
 8007102:	4013      	ands	r3, r2
 8007104:	b29b      	uxth	r3, r3
 8007106:	2b00      	cmp	r3, #0
 8007108:	bf0c      	ite	eq
 800710a:	2301      	moveq	r3, #1
 800710c:	2300      	movne	r3, #0
 800710e:	b2db      	uxtb	r3, r3
 8007110:	461a      	mov	r2, r3
 8007112:	e00c      	b.n	800712e <I2C_WaitOnFlagUntilTimeout+0x9e>
 8007114:	68fb      	ldr	r3, [r7, #12]
 8007116:	681b      	ldr	r3, [r3, #0]
 8007118:	699b      	ldr	r3, [r3, #24]
 800711a:	43da      	mvns	r2, r3
 800711c:	68bb      	ldr	r3, [r7, #8]
 800711e:	4013      	ands	r3, r2
 8007120:	b29b      	uxth	r3, r3
 8007122:	2b00      	cmp	r3, #0
 8007124:	bf0c      	ite	eq
 8007126:	2301      	moveq	r3, #1
 8007128:	2300      	movne	r3, #0
 800712a:	b2db      	uxtb	r3, r3
 800712c:	461a      	mov	r2, r3
 800712e:	79fb      	ldrb	r3, [r7, #7]
 8007130:	429a      	cmp	r2, r3
 8007132:	d0b6      	beq.n	80070a2 <I2C_WaitOnFlagUntilTimeout+0x12>
 8007134:	2300      	movs	r3, #0
 8007136:	4618      	mov	r0, r3
 8007138:	3710      	adds	r7, #16
 800713a:	46bd      	mov	sp, r7
 800713c:	bd80      	pop	{r7, pc}

0800713e <I2C_WaitOnMasterAddressFlagUntilTimeout>:
 800713e:	b580      	push	{r7, lr}
 8007140:	b084      	sub	sp, #16
 8007142:	af00      	add	r7, sp, #0
 8007144:	60f8      	str	r0, [r7, #12]
 8007146:	60b9      	str	r1, [r7, #8]
 8007148:	607a      	str	r2, [r7, #4]
 800714a:	603b      	str	r3, [r7, #0]
 800714c:	e051      	b.n	80071f2 <I2C_WaitOnMasterAddressFlagUntilTimeout+0xb4>
 800714e:	68fb      	ldr	r3, [r7, #12]
 8007150:	681b      	ldr	r3, [r3, #0]
 8007152:	695b      	ldr	r3, [r3, #20]
 8007154:	f403 6380 	and.w	r3, r3, #1024	; 0x400
 8007158:	f5b3 6f80 	cmp.w	r3, #1024	; 0x400
 800715c:	d123      	bne.n	80071a6 <I2C_WaitOnMasterAddressFlagUntilTimeout+0x68>
 800715e:	68fb      	ldr	r3, [r7, #12]
 8007160:	681b      	ldr	r3, [r3, #0]
 8007162:	681a      	ldr	r2, [r3, #0]
 8007164:	68fb      	ldr	r3, [r7, #12]
 8007166:	681b      	ldr	r3, [r3, #0]
 8007168:	f442 7200 	orr.w	r2, r2, #512	; 0x200
 800716c:	601a      	str	r2, [r3, #0]
 800716e:	68fb      	ldr	r3, [r7, #12]
 8007170:	681b      	ldr	r3, [r3, #0]
 8007172:	f46f 6280 	mvn.w	r2, #1024	; 0x400
 8007176:	615a      	str	r2, [r3, #20]
 8007178:	68fb      	ldr	r3, [r7, #12]
 800717a:	2200      	movs	r2, #0
 800717c:	631a      	str	r2, [r3, #48]	; 0x30
 800717e:	68fb      	ldr	r3, [r7, #12]
 8007180:	2220      	movs	r2, #32
 8007182:	f883 203d 	strb.w	r2, [r3, #61]	; 0x3d
 8007186:	68fb      	ldr	r3, [r7, #12]
 8007188:	2200      	movs	r2, #0
 800718a:	f883 203e 	strb.w	r2, [r3, #62]	; 0x3e
 800718e:	68fb      	ldr	r3, [r7, #12]
 8007190:	6c1b      	ldr	r3, [r3, #64]	; 0x40
 8007192:	f043 0204 	orr.w	r2, r3, #4
 8007196:	68fb      	ldr	r3, [r7, #12]
 8007198:	641a      	str	r2, [r3, #64]	; 0x40
 800719a:	68fb      	ldr	r3, [r7, #12]
 800719c:	2200      	movs	r2, #0
 800719e:	f883 203c 	strb.w	r2, [r3, #60]	; 0x3c
 80071a2:	2301      	movs	r3, #1
 80071a4:	e046      	b.n	8007234 <I2C_WaitOnMasterAddressFlagUntilTimeout+0xf6>
 80071a6:	687b      	ldr	r3, [r7, #4]
 80071a8:	f1b3 3fff 	cmp.w	r3, #4294967295
 80071ac:	d021      	beq.n	80071f2 <I2C_WaitOnMasterAddressFlagUntilTimeout+0xb4>
 80071ae:	f7fd fefb 	bl	8004fa8 <HAL_GetTick>
 80071b2:	4602      	mov	r2, r0
 80071b4:	683b      	ldr	r3, [r7, #0]
 80071b6:	1ad3      	subs	r3, r2, r3
 80071b8:	687a      	ldr	r2, [r7, #4]
 80071ba:	429a      	cmp	r2, r3
 80071bc:	d302      	bcc.n	80071c4 <I2C_WaitOnMasterAddressFlagUntilTimeout+0x86>
 80071be:	687b      	ldr	r3, [r7, #4]
 80071c0:	2b00      	cmp	r3, #0
 80071c2:	d116      	bne.n	80071f2 <I2C_WaitOnMasterAddressFlagUntilTimeout+0xb4>
 80071c4:	68fb      	ldr	r3, [r7, #12]
 80071c6:	2200      	movs	r2, #0
 80071c8:	631a      	str	r2, [r3, #48]	; 0x30
 80071ca:	68fb      	ldr	r3, [r7, #12]
 80071cc:	2220      	movs	r2, #32
 80071ce:	f883 203d 	strb.w	r2, [r3, #61]	; 0x3d
 80071d2:	68fb      	ldr	r3, [r7, #12]
 80071d4:	2200      	movs	r2, #0
 80071d6:	f883 203e 	strb.w	r2, [r3, #62]	; 0x3e
 80071da:	68fb      	ldr	r3, [r7, #12]
 80071dc:	6c1b      	ldr	r3, [r3, #64]	; 0x40
 80071de:	f043 0220 	orr.w	r2, r3, #32
 80071e2:	68fb      	ldr	r3, [r7, #12]
 80071e4:	641a      	str	r2, [r3, #64]	; 0x40
 80071e6:	68fb      	ldr	r3, [r7, #12]
 80071e8:	2200      	movs	r2, #0
 80071ea:	f883 203c 	strb.w	r2, [r3, #60]	; 0x3c
 80071ee:	2301      	movs	r3, #1
 80071f0:	e020      	b.n	8007234 <I2C_WaitOnMasterAddressFlagUntilTimeout+0xf6>
 80071f2:	68bb      	ldr	r3, [r7, #8]
 80071f4:	0c1b      	lsrs	r3, r3, #16
 80071f6:	b2db      	uxtb	r3, r3
 80071f8:	2b01      	cmp	r3, #1
 80071fa:	d10c      	bne.n	8007216 <I2C_WaitOnMasterAddressFlagUntilTimeout+0xd8>
 80071fc:	68fb      	ldr	r3, [r7, #12]
 80071fe:	681b      	ldr	r3, [r3, #0]
 8007200:	695b      	ldr	r3, [r3, #20]
 8007202:	43da      	mvns	r2, r3
 8007204:	68bb      	ldr	r3, [r7, #8]
 8007206:	4013      	ands	r3, r2
 8007208:	b29b      	uxth	r3, r3
 800720a:	2b00      	cmp	r3, #0
 800720c:	bf14      	ite	ne
 800720e:	2301      	movne	r3, #1
 8007210:	2300      	moveq	r3, #0
 8007212:	b2db      	uxtb	r3, r3
 8007214:	e00b      	b.n	800722e <I2C_WaitOnMasterAddressFlagUntilTimeout+0xf0>
 8007216:	68fb      	ldr	r3, [r7, #12]
 8007218:	681b      	ldr	r3, [r3, #0]
 800721a:	699b      	ldr	r3, [r3, #24]
 800721c:	43da      	mvns	r2, r3
 800721e:	68bb      	ldr	r3, [r7, #8]
 8007220:	4013      	ands	r3, r2
 8007222:	b29b      	uxth	r3, r3
 8007224:	2b00      	cmp	r3, #0
 8007226:	bf14      	ite	ne
 8007228:	2301      	movne	r3, #1
 800722a:	2300      	moveq	r3, #0
 800722c:	b2db      	uxtb	r3, r3
 800722e:	2b00      	cmp	r3, #0
 8007230:	d18d      	bne.n	800714e <I2C_WaitOnMasterAddressFlagUntilTimeout+0x10>
 8007232:	2300      	movs	r3, #0
 8007234:	4618      	mov	r0, r3
 8007236:	3710      	adds	r7, #16
 8007238:	46bd      	mov	sp, r7
 800723a:	bd80      	pop	{r7, pc}

0800723c <I2C_WaitOnTXEFlagUntilTimeout>:
 800723c:	b580      	push	{r7, lr}
 800723e:	b084      	sub	sp, #16
 8007240:	af00      	add	r7, sp, #0
 8007242:	60f8      	str	r0, [r7, #12]
 8007244:	60b9      	str	r1, [r7, #8]
 8007246:	607a      	str	r2, [r7, #4]
 8007248:	e02d      	b.n	80072a6 <I2C_WaitOnTXEFlagUntilTimeout+0x6a>
 800724a:	68f8      	ldr	r0, [r7, #12]
 800724c:	f000 f878 	bl	8007340 <I2C_IsAcknowledgeFailed>
 8007250:	4603      	mov	r3, r0
 8007252:	2b00      	cmp	r3, #0
 8007254:	d001      	beq.n	800725a <I2C_WaitOnTXEFlagUntilTimeout+0x1e>
 8007256:	2301      	movs	r3, #1
 8007258:	e02d      	b.n	80072b6 <I2C_WaitOnTXEFlagUntilTimeout+0x7a>
 800725a:	68bb      	ldr	r3, [r7, #8]
 800725c:	f1b3 3fff 	cmp.w	r3, #4294967295
 8007260:	d021      	beq.n	80072a6 <I2C_WaitOnTXEFlagUntilTimeout+0x6a>
 8007262:	f7fd fea1 	bl	8004fa8 <HAL_GetTick>
 8007266:	4602      	mov	r2, r0
 8007268:	687b      	ldr	r3, [r7, #4]
 800726a:	1ad3      	subs	r3, r2, r3
 800726c:	68ba      	ldr	r2, [r7, #8]
 800726e:	429a      	cmp	r2, r3
 8007270:	d302      	bcc.n	8007278 <I2C_WaitOnTXEFlagUntilTimeout+0x3c>
 8007272:	68bb      	ldr	r3, [r7, #8]
 8007274:	2b00      	cmp	r3, #0
 8007276:	d116      	bne.n	80072a6 <I2C_WaitOnTXEFlagUntilTimeout+0x6a>
 8007278:	68fb      	ldr	r3, [r7, #12]
 800727a:	2200      	movs	r2, #0
 800727c:	631a      	str	r2, [r3, #48]	; 0x30
 800727e:	68fb      	ldr	r3, [r7, #12]
 8007280:	2220      	movs	r2, #32
 8007282:	f883 203d 	strb.w	r2, [r3, #61]	; 0x3d
 8007286:	68fb      	ldr	r3, [r7, #12]
 8007288:	2200      	movs	r2, #0
 800728a:	f883 203e 	strb.w	r2, [r3, #62]	; 0x3e
 800728e:	68fb      	ldr	r3, [r7, #12]
 8007290:	6c1b      	ldr	r3, [r3, #64]	; 0x40
 8007292:	f043 0220 	orr.w	r2, r3, #32
 8007296:	68fb      	ldr	r3, [r7, #12]
 8007298:	641a      	str	r2, [r3, #64]	; 0x40
 800729a:	68fb      	ldr	r3, [r7, #12]
 800729c:	2200      	movs	r2, #0
 800729e:	f883 203c 	strb.w	r2, [r3, #60]	; 0x3c
 80072a2:	2301      	movs	r3, #1
 80072a4:	e007      	b.n	80072b6 <I2C_WaitOnTXEFlagUntilTimeout+0x7a>
 80072a6:	68fb      	ldr	r3, [r7, #12]
 80072a8:	681b      	ldr	r3, [r3, #0]
 80072aa:	695b      	ldr	r3, [r3, #20]
 80072ac:	f003 0380 	and.w	r3, r3, #128	; 0x80
 80072b0:	2b80      	cmp	r3, #128	; 0x80
 80072b2:	d1ca      	bne.n	800724a <I2C_WaitOnTXEFlagUntilTimeout+0xe>
 80072b4:	2300      	movs	r3, #0
 80072b6:	4618      	mov	r0, r3
 80072b8:	3710      	adds	r7, #16
 80072ba:	46bd      	mov	sp, r7
 80072bc:	bd80      	pop	{r7, pc}

080072be <I2C_WaitOnBTFFlagUntilTimeout>:
 80072be:	b580      	push	{r7, lr}
 80072c0:	b084      	sub	sp, #16
 80072c2:	af00      	add	r7, sp, #0
 80072c4:	60f8      	str	r0, [r7, #12]
 80072c6:	60b9      	str	r1, [r7, #8]
 80072c8:	607a      	str	r2, [r7, #4]
 80072ca:	e02d      	b.n	8007328 <I2C_WaitOnBTFFlagUntilTimeout+0x6a>
 80072cc:	68f8      	ldr	r0, [r7, #12]
 80072ce:	f000 f837 	bl	8007340 <I2C_IsAcknowledgeFailed>
 80072d2:	4603      	mov	r3, r0
 80072d4:	2b00      	cmp	r3, #0
 80072d6:	d001      	beq.n	80072dc <I2C_WaitOnBTFFlagUntilTimeout+0x1e>
 80072d8:	2301      	movs	r3, #1
 80072da:	e02d      	b.n	8007338 <I2C_WaitOnBTFFlagUntilTimeout+0x7a>
 80072dc:	68bb      	ldr	r3, [r7, #8]
 80072de:	f1b3 3fff 	cmp.w	r3, #4294967295
 80072e2:	d021      	beq.n	8007328 <I2C_WaitOnBTFFlagUntilTimeout+0x6a>
 80072e4:	f7fd fe60 	bl	8004fa8 <HAL_GetTick>
 80072e8:	4602      	mov	r2, r0
 80072ea:	687b      	ldr	r3, [r7, #4]
 80072ec:	1ad3      	subs	r3, r2, r3
 80072ee:	68ba      	ldr	r2, [r7, #8]
 80072f0:	429a      	cmp	r2, r3
 80072f2:	d302      	bcc.n	80072fa <I2C_WaitOnBTFFlagUntilTimeout+0x3c>
 80072f4:	68bb      	ldr	r3, [r7, #8]
 80072f6:	2b00      	cmp	r3, #0
 80072f8:	d116      	bne.n	8007328 <I2C_WaitOnBTFFlagUntilTimeout+0x6a>
 80072fa:	68fb      	ldr	r3, [r7, #12]
 80072fc:	2200      	movs	r2, #0
 80072fe:	631a      	str	r2, [r3, #48]	; 0x30
 8007300:	68fb      	ldr	r3, [r7, #12]
 8007302:	2220      	movs	r2, #32
 8007304:	f883 203d 	strb.w	r2, [r3, #61]	; 0x3d
 8007308:	68fb      	ldr	r3, [r7, #12]
 800730a:	2200      	movs	r2, #0
 800730c:	f883 203e 	strb.w	r2, [r3, #62]	; 0x3e
 8007310:	68fb      	ldr	r3, [r7, #12]
 8007312:	6c1b      	ldr	r3, [r3, #64]	; 0x40
 8007314:	f043 0220 	orr.w	r2, r3, #32
 8007318:	68fb      	ldr	r3, [r7, #12]
 800731a:	641a      	str	r2, [r3, #64]	; 0x40
 800731c:	68fb      	ldr	r3, [r7, #12]
 800731e:	2200      	movs	r2, #0
 8007320:	f883 203c 	strb.w	r2, [r3, #60]	; 0x3c
 8007324:	2301      	movs	r3, #1
 8007326:	e007      	b.n	8007338 <I2C_WaitOnBTFFlagUntilTimeout+0x7a>
 8007328:	68fb      	ldr	r3, [r7, #12]
 800732a:	681b      	ldr	r3, [r3, #0]
 800732c:	695b      	ldr	r3, [r3, #20]
 800732e:	f003 0304 	and.w	r3, r3, #4
 8007332:	2b04      	cmp	r3, #4
 8007334:	d1ca      	bne.n	80072cc <I2C_WaitOnBTFFlagUntilTimeout+0xe>
 8007336:	2300      	movs	r3, #0
 8007338:	4618      	mov	r0, r3
 800733a:	3710      	adds	r7, #16
 800733c:	46bd      	mov	sp, r7
 800733e:	bd80      	pop	{r7, pc}

08007340 <I2C_IsAcknowledgeFailed>:
 8007340:	b480      	push	{r7}
 8007342:	b083      	sub	sp, #12
 8007344:	af00      	add	r7, sp, #0
 8007346:	6078      	str	r0, [r7, #4]
 8007348:	687b      	ldr	r3, [r7, #4]
 800734a:	681b      	ldr	r3, [r3, #0]
 800734c:	695b      	ldr	r3, [r3, #20]
 800734e:	f403 6380 	and.w	r3, r3, #1024	; 0x400
 8007352:	f5b3 6f80 	cmp.w	r3, #1024	; 0x400
 8007356:	d11b      	bne.n	8007390 <I2C_IsAcknowledgeFailed+0x50>
 8007358:	687b      	ldr	r3, [r7, #4]
 800735a:	681b      	ldr	r3, [r3, #0]
 800735c:	f46f 6280 	mvn.w	r2, #1024	; 0x400
 8007360:	615a      	str	r2, [r3, #20]
 8007362:	687b      	ldr	r3, [r7, #4]
 8007364:	2200      	movs	r2, #0
 8007366:	631a      	str	r2, [r3, #48]	; 0x30
 8007368:	687b      	ldr	r3, [r7, #4]
 800736a:	2220      	movs	r2, #32
 800736c:	f883 203d 	strb.w	r2, [r3, #61]	; 0x3d
 8007370:	687b      	ldr	r3, [r7, #4]
 8007372:	2200      	movs	r2, #0
 8007374:	f883 203e 	strb.w	r2, [r3, #62]	; 0x3e
 8007378:	687b      	ldr	r3, [r7, #4]
 800737a:	6c1b      	ldr	r3, [r3, #64]	; 0x40
 800737c:	f043 0204 	orr.w	r2, r3, #4
 8007380:	687b      	ldr	r3, [r7, #4]
 8007382:	641a      	str	r2, [r3, #64]	; 0x40
 8007384:	687b      	ldr	r3, [r7, #4]
 8007386:	2200      	movs	r2, #0
 8007388:	f883 203c 	strb.w	r2, [r3, #60]	; 0x3c
 800738c:	2301      	movs	r3, #1
 800738e:	e000      	b.n	8007392 <I2C_IsAcknowledgeFailed+0x52>
 8007390:	2300      	movs	r3, #0
 8007392:	4618      	mov	r0, r3
 8007394:	370c      	adds	r7, #12
 8007396:	46bd      	mov	sp, r7
 8007398:	bc80      	pop	{r7}
 800739a:	4770      	bx	lr

0800739c <HAL_RCC_OscConfig>:
 800739c:	b580      	push	{r7, lr}
 800739e:	b086      	sub	sp, #24
 80073a0:	af00      	add	r7, sp, #0
 80073a2:	6078      	str	r0, [r7, #4]
 80073a4:	687b      	ldr	r3, [r7, #4]
 80073a6:	2b00      	cmp	r3, #0
 80073a8:	d101      	bne.n	80073ae <HAL_RCC_OscConfig+0x12>
 80073aa:	2301      	movs	r3, #1
 80073ac:	e272      	b.n	8007894 <HAL_RCC_OscConfig+0x4f8>
 80073ae:	687b      	ldr	r3, [r7, #4]
 80073b0:	681b      	ldr	r3, [r3, #0]
 80073b2:	f003 0301 	and.w	r3, r3, #1
 80073b6:	2b00      	cmp	r3, #0
 80073b8:	f000 8087 	beq.w	80074ca <HAL_RCC_OscConfig+0x12e>
 80073bc:	4b92      	ldr	r3, [pc, #584]	; (8007608 <HAL_RCC_OscConfig+0x26c>)
 80073be:	685b      	ldr	r3, [r3, #4]
 80073c0:	f003 030c 	and.w	r3, r3, #12
 80073c4:	2b04      	cmp	r3, #4
 80073c6:	d00c      	beq.n	80073e2 <HAL_RCC_OscConfig+0x46>
 80073c8:	4b8f      	ldr	r3, [pc, #572]	; (8007608 <HAL_RCC_OscConfig+0x26c>)
 80073ca:	685b      	ldr	r3, [r3, #4]
 80073cc:	f003 030c 	and.w	r3, r3, #12
 80073d0:	2b08      	cmp	r3, #8
 80073d2:	d112      	bne.n	80073fa <HAL_RCC_OscConfig+0x5e>
 80073d4:	4b8c      	ldr	r3, [pc, #560]	; (8007608 <HAL_RCC_OscConfig+0x26c>)
 80073d6:	685b      	ldr	r3, [r3, #4]
 80073d8:	f403 3380 	and.w	r3, r3, #65536	; 0x10000
 80073dc:	f5b3 3f80 	cmp.w	r3, #65536	; 0x10000
 80073e0:	d10b      	bne.n	80073fa <HAL_RCC_OscConfig+0x5e>
 80073e2:	4b89      	ldr	r3, [pc, #548]	; (8007608 <HAL_RCC_OscConfig+0x26c>)
 80073e4:	681b      	ldr	r3, [r3, #0]
 80073e6:	f403 3300 	and.w	r3, r3, #131072	; 0x20000
 80073ea:	2b00      	cmp	r3, #0
 80073ec:	d06c      	beq.n	80074c8 <HAL_RCC_OscConfig+0x12c>
 80073ee:	687b      	ldr	r3, [r7, #4]
 80073f0:	685b      	ldr	r3, [r3, #4]
 80073f2:	2b00      	cmp	r3, #0
 80073f4:	d168      	bne.n	80074c8 <HAL_RCC_OscConfig+0x12c>
 80073f6:	2301      	movs	r3, #1
 80073f8:	e24c      	b.n	8007894 <HAL_RCC_OscConfig+0x4f8>
 80073fa:	687b      	ldr	r3, [r7, #4]
 80073fc:	685b      	ldr	r3, [r3, #4]
 80073fe:	f5b3 3f80 	cmp.w	r3, #65536	; 0x10000
 8007402:	d106      	bne.n	8007412 <HAL_RCC_OscConfig+0x76>
 8007404:	4b80      	ldr	r3, [pc, #512]	; (8007608 <HAL_RCC_OscConfig+0x26c>)
 8007406:	681b      	ldr	r3, [r3, #0]
 8007408:	4a7f      	ldr	r2, [pc, #508]	; (8007608 <HAL_RCC_OscConfig+0x26c>)
 800740a:	f443 3380 	orr.w	r3, r3, #65536	; 0x10000
 800740e:	6013      	str	r3, [r2, #0]
 8007410:	e02e      	b.n	8007470 <HAL_RCC_OscConfig+0xd4>
 8007412:	687b      	ldr	r3, [r7, #4]
 8007414:	685b      	ldr	r3, [r3, #4]
 8007416:	2b00      	cmp	r3, #0
 8007418:	d10c      	bne.n	8007434 <HAL_RCC_OscConfig+0x98>
 800741a:	4b7b      	ldr	r3, [pc, #492]	; (8007608 <HAL_RCC_OscConfig+0x26c>)
 800741c:	681b      	ldr	r3, [r3, #0]
 800741e:	4a7a      	ldr	r2, [pc, #488]	; (8007608 <HAL_RCC_OscConfig+0x26c>)
 8007420:	f423 3380 	bic.w	r3, r3, #65536	; 0x10000
 8007424:	6013      	str	r3, [r2, #0]
 8007426:	4b78      	ldr	r3, [pc, #480]	; (8007608 <HAL_RCC_OscConfig+0x26c>)
 8007428:	681b      	ldr	r3, [r3, #0]
 800742a:	4a77      	ldr	r2, [pc, #476]	; (8007608 <HAL_RCC_OscConfig+0x26c>)
 800742c:	f423 2380 	bic.w	r3, r3, #262144	; 0x40000
 8007430:	6013      	str	r3, [r2, #0]
 8007432:	e01d      	b.n	8007470 <HAL_RCC_OscConfig+0xd4>
 8007434:	687b      	ldr	r3, [r7, #4]
 8007436:	685b      	ldr	r3, [r3, #4]
 8007438:	f5b3 2fa0 	cmp.w	r3, #327680	; 0x50000
 800743c:	d10c      	bne.n	8007458 <HAL_RCC_OscConfig+0xbc>
 800743e:	4b72      	ldr	r3, [pc, #456]	; (8007608 <HAL_RCC_OscConfig+0x26c>)
 8007440:	681b      	ldr	r3, [r3, #0]
 8007442:	4a71      	ldr	r2, [pc, #452]	; (8007608 <HAL_RCC_OscConfig+0x26c>)
 8007444:	f443 2380 	orr.w	r3, r3, #262144	; 0x40000
 8007448:	6013      	str	r3, [r2, #0]
 800744a:	4b6f      	ldr	r3, [pc, #444]	; (8007608 <HAL_RCC_OscConfig+0x26c>)
 800744c:	681b      	ldr	r3, [r3, #0]
 800744e:	4a6e      	ldr	r2, [pc, #440]	; (8007608 <HAL_RCC_OscConfig+0x26c>)
 8007450:	f443 3380 	orr.w	r3, r3, #65536	; 0x10000
 8007454:	6013      	str	r3, [r2, #0]
 8007456:	e00b      	b.n	8007470 <HAL_RCC_OscConfig+0xd4>
 8007458:	4b6b      	ldr	r3, [pc, #428]	; (8007608 <HAL_RCC_OscConfig+0x26c>)
 800745a:	681b      	ldr	r3, [r3, #0]
 800745c:	4a6a      	ldr	r2, [pc, #424]	; (8007608 <HAL_RCC_OscConfig+0x26c>)
 800745e:	f423 3380 	bic.w	r3, r3, #65536	; 0x10000
 8007462:	6013      	str	r3, [r2, #0]
 8007464:	4b68      	ldr	r3, [pc, #416]	; (8007608 <HAL_RCC_OscConfig+0x26c>)
 8007466:	681b      	ldr	r3, [r3, #0]
 8007468:	4a67      	ldr	r2, [pc, #412]	; (8007608 <HAL_RCC_OscConfig+0x26c>)
 800746a:	f423 2380 	bic.w	r3, r3, #262144	; 0x40000
 800746e:	6013      	str	r3, [r2, #0]
 8007470:	687b      	ldr	r3, [r7, #4]
 8007472:	685b      	ldr	r3, [r3, #4]
 8007474:	2b00      	cmp	r3, #0
 8007476:	d013      	beq.n	80074a0 <HAL_RCC_OscConfig+0x104>
 8007478:	f7fd fd96 	bl	8004fa8 <HAL_GetTick>
 800747c:	6138      	str	r0, [r7, #16]
 800747e:	e008      	b.n	8007492 <HAL_RCC_OscConfig+0xf6>
 8007480:	f7fd fd92 	bl	8004fa8 <HAL_GetTick>
 8007484:	4602      	mov	r2, r0
 8007486:	693b      	ldr	r3, [r7, #16]
 8007488:	1ad3      	subs	r3, r2, r3
 800748a:	2b64      	cmp	r3, #100	; 0x64
 800748c:	d901      	bls.n	8007492 <HAL_RCC_OscConfig+0xf6>
 800748e:	2303      	movs	r3, #3
 8007490:	e200      	b.n	8007894 <HAL_RCC_OscConfig+0x4f8>
 8007492:	4b5d      	ldr	r3, [pc, #372]	; (8007608 <HAL_RCC_OscConfig+0x26c>)
 8007494:	681b      	ldr	r3, [r3, #0]
 8007496:	f403 3300 	and.w	r3, r3, #131072	; 0x20000
 800749a:	2b00      	cmp	r3, #0
 800749c:	d0f0      	beq.n	8007480 <HAL_RCC_OscConfig+0xe4>
 800749e:	e014      	b.n	80074ca <HAL_RCC_OscConfig+0x12e>
 80074a0:	f7fd fd82 	bl	8004fa8 <HAL_GetTick>
 80074a4:	6138      	str	r0, [r7, #16]
 80074a6:	e008      	b.n	80074ba <HAL_RCC_OscConfig+0x11e>
 80074a8:	f7fd fd7e 	bl	8004fa8 <HAL_GetTick>
 80074ac:	4602      	mov	r2, r0
 80074ae:	693b      	ldr	r3, [r7, #16]
 80074b0:	1ad3      	subs	r3, r2, r3
 80074b2:	2b64      	cmp	r3, #100	; 0x64
 80074b4:	d901      	bls.n	80074ba <HAL_RCC_OscConfig+0x11e>
 80074b6:	2303      	movs	r3, #3
 80074b8:	e1ec      	b.n	8007894 <HAL_RCC_OscConfig+0x4f8>
 80074ba:	4b53      	ldr	r3, [pc, #332]	; (8007608 <HAL_RCC_OscConfig+0x26c>)
 80074bc:	681b      	ldr	r3, [r3, #0]
 80074be:	f403 3300 	and.w	r3, r3, #131072	; 0x20000
 80074c2:	2b00      	cmp	r3, #0
 80074c4:	d1f0      	bne.n	80074a8 <HAL_RCC_OscConfig+0x10c>
 80074c6:	e000      	b.n	80074ca <HAL_RCC_OscConfig+0x12e>
 80074c8:	bf00      	nop
 80074ca:	687b      	ldr	r3, [r7, #4]
 80074cc:	681b      	ldr	r3, [r3, #0]
 80074ce:	f003 0302 	and.w	r3, r3, #2
 80074d2:	2b00      	cmp	r3, #0
 80074d4:	d063      	beq.n	800759e <HAL_RCC_OscConfig+0x202>
 80074d6:	4b4c      	ldr	r3, [pc, #304]	; (8007608 <HAL_RCC_OscConfig+0x26c>)
 80074d8:	685b      	ldr	r3, [r3, #4]
 80074da:	f003 030c 	and.w	r3, r3, #12
 80074de:	2b00      	cmp	r3, #0
 80074e0:	d00b      	beq.n	80074fa <HAL_RCC_OscConfig+0x15e>
 80074e2:	4b49      	ldr	r3, [pc, #292]	; (8007608 <HAL_RCC_OscConfig+0x26c>)
 80074e4:	685b      	ldr	r3, [r3, #4]
 80074e6:	f003 030c 	and.w	r3, r3, #12
 80074ea:	2b08      	cmp	r3, #8
 80074ec:	d11c      	bne.n	8007528 <HAL_RCC_OscConfig+0x18c>
 80074ee:	4b46      	ldr	r3, [pc, #280]	; (8007608 <HAL_RCC_OscConfig+0x26c>)
 80074f0:	685b      	ldr	r3, [r3, #4]
 80074f2:	f403 3380 	and.w	r3, r3, #65536	; 0x10000
 80074f6:	2b00      	cmp	r3, #0
 80074f8:	d116      	bne.n	8007528 <HAL_RCC_OscConfig+0x18c>
 80074fa:	4b43      	ldr	r3, [pc, #268]	; (8007608 <HAL_RCC_OscConfig+0x26c>)
 80074fc:	681b      	ldr	r3, [r3, #0]
 80074fe:	f003 0302 	and.w	r3, r3, #2
 8007502:	2b00      	cmp	r3, #0
 8007504:	d005      	beq.n	8007512 <HAL_RCC_OscConfig+0x176>
 8007506:	687b      	ldr	r3, [r7, #4]
 8007508:	691b      	ldr	r3, [r3, #16]
 800750a:	2b01      	cmp	r3, #1
 800750c:	d001      	beq.n	8007512 <HAL_RCC_OscConfig+0x176>
 800750e:	2301      	movs	r3, #1
 8007510:	e1c0      	b.n	8007894 <HAL_RCC_OscConfig+0x4f8>
 8007512:	4b3d      	ldr	r3, [pc, #244]	; (8007608 <HAL_RCC_OscConfig+0x26c>)
 8007514:	681b      	ldr	r3, [r3, #0]
 8007516:	f023 02f8 	bic.w	r2, r3, #248	; 0xf8
 800751a:	687b      	ldr	r3, [r7, #4]
 800751c:	695b      	ldr	r3, [r3, #20]
 800751e:	00db      	lsls	r3, r3, #3
 8007520:	4939      	ldr	r1, [pc, #228]	; (8007608 <HAL_RCC_OscConfig+0x26c>)
 8007522:	4313      	orrs	r3, r2
 8007524:	600b      	str	r3, [r1, #0]
 8007526:	e03a      	b.n	800759e <HAL_RCC_OscConfig+0x202>
 8007528:	687b      	ldr	r3, [r7, #4]
 800752a:	691b      	ldr	r3, [r3, #16]
 800752c:	2b00      	cmp	r3, #0
 800752e:	d020      	beq.n	8007572 <HAL_RCC_OscConfig+0x1d6>
 8007530:	4b36      	ldr	r3, [pc, #216]	; (800760c <HAL_RCC_OscConfig+0x270>)
 8007532:	2201      	movs	r2, #1
 8007534:	601a      	str	r2, [r3, #0]
 8007536:	f7fd fd37 	bl	8004fa8 <HAL_GetTick>
 800753a:	6138      	str	r0, [r7, #16]
 800753c:	e008      	b.n	8007550 <HAL_RCC_OscConfig+0x1b4>
 800753e:	f7fd fd33 	bl	8004fa8 <HAL_GetTick>
 8007542:	4602      	mov	r2, r0
 8007544:	693b      	ldr	r3, [r7, #16]
 8007546:	1ad3      	subs	r3, r2, r3
 8007548:	2b02      	cmp	r3, #2
 800754a:	d901      	bls.n	8007550 <HAL_RCC_OscConfig+0x1b4>
 800754c:	2303      	movs	r3, #3
 800754e:	e1a1      	b.n	8007894 <HAL_RCC_OscConfig+0x4f8>
 8007550:	4b2d      	ldr	r3, [pc, #180]	; (8007608 <HAL_RCC_OscConfig+0x26c>)
 8007552:	681b      	ldr	r3, [r3, #0]
 8007554:	f003 0302 	and.w	r3, r3, #2
 8007558:	2b00      	cmp	r3, #0
 800755a:	d0f0      	beq.n	800753e <HAL_RCC_OscConfig+0x1a2>
 800755c:	4b2a      	ldr	r3, [pc, #168]	; (8007608 <HAL_RCC_OscConfig+0x26c>)
 800755e:	681b      	ldr	r3, [r3, #0]
 8007560:	f023 02f8 	bic.w	r2, r3, #248	; 0xf8
 8007564:	687b      	ldr	r3, [r7, #4]
 8007566:	695b      	ldr	r3, [r3, #20]
 8007568:	00db      	lsls	r3, r3, #3
 800756a:	4927      	ldr	r1, [pc, #156]	; (8007608 <HAL_RCC_OscConfig+0x26c>)
 800756c:	4313      	orrs	r3, r2
 800756e:	600b      	str	r3, [r1, #0]
 8007570:	e015      	b.n	800759e <HAL_RCC_OscConfig+0x202>
 8007572:	4b26      	ldr	r3, [pc, #152]	; (800760c <HAL_RCC_OscConfig+0x270>)
 8007574:	2200      	movs	r2, #0
 8007576:	601a      	str	r2, [r3, #0]
 8007578:	f7fd fd16 	bl	8004fa8 <HAL_GetTick>
 800757c:	6138      	str	r0, [r7, #16]
 800757e:	e008      	b.n	8007592 <HAL_RCC_OscConfig+0x1f6>
 8007580:	f7fd fd12 	bl	8004fa8 <HAL_GetTick>
 8007584:	4602      	mov	r2, r0
 8007586:	693b      	ldr	r3, [r7, #16]
 8007588:	1ad3      	subs	r3, r2, r3
 800758a:	2b02      	cmp	r3, #2
 800758c:	d901      	bls.n	8007592 <HAL_RCC_OscConfig+0x1f6>
 800758e:	2303      	movs	r3, #3
 8007590:	e180      	b.n	8007894 <HAL_RCC_OscConfig+0x4f8>
 8007592:	4b1d      	ldr	r3, [pc, #116]	; (8007608 <HAL_RCC_OscConfig+0x26c>)
 8007594:	681b      	ldr	r3, [r3, #0]
 8007596:	f003 0302 	and.w	r3, r3, #2
 800759a:	2b00      	cmp	r3, #0
 800759c:	d1f0      	bne.n	8007580 <HAL_RCC_OscConfig+0x1e4>
 800759e:	687b      	ldr	r3, [r7, #4]
 80075a0:	681b      	ldr	r3, [r3, #0]
 80075a2:	f003 0308 	and.w	r3, r3, #8
 80075a6:	2b00      	cmp	r3, #0
 80075a8:	d03a      	beq.n	8007620 <HAL_RCC_OscConfig+0x284>
 80075aa:	687b      	ldr	r3, [r7, #4]
 80075ac:	699b      	ldr	r3, [r3, #24]
 80075ae:	2b00      	cmp	r3, #0
 80075b0:	d019      	beq.n	80075e6 <HAL_RCC_OscConfig+0x24a>
 80075b2:	4b17      	ldr	r3, [pc, #92]	; (8007610 <HAL_RCC_OscConfig+0x274>)
 80075b4:	2201      	movs	r2, #1
 80075b6:	601a      	str	r2, [r3, #0]
 80075b8:	f7fd fcf6 	bl	8004fa8 <HAL_GetTick>
 80075bc:	6138      	str	r0, [r7, #16]
 80075be:	e008      	b.n	80075d2 <HAL_RCC_OscConfig+0x236>
 80075c0:	f7fd fcf2 	bl	8004fa8 <HAL_GetTick>
 80075c4:	4602      	mov	r2, r0
 80075c6:	693b      	ldr	r3, [r7, #16]
 80075c8:	1ad3      	subs	r3, r2, r3
 80075ca:	2b02      	cmp	r3, #2
 80075cc:	d901      	bls.n	80075d2 <HAL_RCC_OscConfig+0x236>
 80075ce:	2303      	movs	r3, #3
 80075d0:	e160      	b.n	8007894 <HAL_RCC_OscConfig+0x4f8>
 80075d2:	4b0d      	ldr	r3, [pc, #52]	; (8007608 <HAL_RCC_OscConfig+0x26c>)
 80075d4:	6a5b      	ldr	r3, [r3, #36]	; 0x24
 80075d6:	f003 0302 	and.w	r3, r3, #2
 80075da:	2b00      	cmp	r3, #0
 80075dc:	d0f0      	beq.n	80075c0 <HAL_RCC_OscConfig+0x224>
 80075de:	2001      	movs	r0, #1
 80075e0:	f000 fac4 	bl	8007b6c <RCC_Delay>
 80075e4:	e01c      	b.n	8007620 <HAL_RCC_OscConfig+0x284>
 80075e6:	4b0a      	ldr	r3, [pc, #40]	; (8007610 <HAL_RCC_OscConfig+0x274>)
 80075e8:	2200      	movs	r2, #0
 80075ea:	601a      	str	r2, [r3, #0]
 80075ec:	f7fd fcdc 	bl	8004fa8 <HAL_GetTick>
 80075f0:	6138      	str	r0, [r7, #16]
 80075f2:	e00f      	b.n	8007614 <HAL_RCC_OscConfig+0x278>
 80075f4:	f7fd fcd8 	bl	8004fa8 <HAL_GetTick>
 80075f8:	4602      	mov	r2, r0
 80075fa:	693b      	ldr	r3, [r7, #16]
 80075fc:	1ad3      	subs	r3, r2, r3
 80075fe:	2b02      	cmp	r3, #2
 8007600:	d908      	bls.n	8007614 <HAL_RCC_OscConfig+0x278>
 8007602:	2303      	movs	r3, #3
 8007604:	e146      	b.n	8007894 <HAL_RCC_OscConfig+0x4f8>
 8007606:	bf00      	nop
 8007608:	40021000 	.word	0x40021000
 800760c:	42420000 	.word	0x42420000
 8007610:	42420480 	.word	0x42420480
 8007614:	4b92      	ldr	r3, [pc, #584]	; (8007860 <HAL_RCC_OscConfig+0x4c4>)
 8007616:	6a5b      	ldr	r3, [r3, #36]	; 0x24
 8007618:	f003 0302 	and.w	r3, r3, #2
 800761c:	2b00      	cmp	r3, #0
 800761e:	d1e9      	bne.n	80075f4 <HAL_RCC_OscConfig+0x258>
 8007620:	687b      	ldr	r3, [r7, #4]
 8007622:	681b      	ldr	r3, [r3, #0]
 8007624:	f003 0304 	and.w	r3, r3, #4
 8007628:	2b00      	cmp	r3, #0
 800762a:	f000 80a6 	beq.w	800777a <HAL_RCC_OscConfig+0x3de>
 800762e:	2300      	movs	r3, #0
 8007630:	75fb      	strb	r3, [r7, #23]
 8007632:	4b8b      	ldr	r3, [pc, #556]	; (8007860 <HAL_RCC_OscConfig+0x4c4>)
 8007634:	69db      	ldr	r3, [r3, #28]
 8007636:	f003 5380 	and.w	r3, r3, #268435456	; 0x10000000
 800763a:	2b00      	cmp	r3, #0
 800763c:	d10d      	bne.n	800765a <HAL_RCC_OscConfig+0x2be>
 800763e:	4b88      	ldr	r3, [pc, #544]	; (8007860 <HAL_RCC_OscConfig+0x4c4>)
 8007640:	69db      	ldr	r3, [r3, #28]
 8007642:	4a87      	ldr	r2, [pc, #540]	; (8007860 <HAL_RCC_OscConfig+0x4c4>)
 8007644:	f043 5380 	orr.w	r3, r3, #268435456	; 0x10000000
 8007648:	61d3      	str	r3, [r2, #28]
 800764a:	4b85      	ldr	r3, [pc, #532]	; (8007860 <HAL_RCC_OscConfig+0x4c4>)
 800764c:	69db      	ldr	r3, [r3, #28]
 800764e:	f003 5380 	and.w	r3, r3, #268435456	; 0x10000000
 8007652:	60bb      	str	r3, [r7, #8]
 8007654:	68bb      	ldr	r3, [r7, #8]
 8007656:	2301      	movs	r3, #1
 8007658:	75fb      	strb	r3, [r7, #23]
 800765a:	4b82      	ldr	r3, [pc, #520]	; (8007864 <HAL_RCC_OscConfig+0x4c8>)
 800765c:	681b      	ldr	r3, [r3, #0]
 800765e:	f403 7380 	and.w	r3, r3, #256	; 0x100
 8007662:	2b00      	cmp	r3, #0
 8007664:	d118      	bne.n	8007698 <HAL_RCC_OscConfig+0x2fc>
 8007666:	4b7f      	ldr	r3, [pc, #508]	; (8007864 <HAL_RCC_OscConfig+0x4c8>)
 8007668:	681b      	ldr	r3, [r3, #0]
 800766a:	4a7e      	ldr	r2, [pc, #504]	; (8007864 <HAL_RCC_OscConfig+0x4c8>)
 800766c:	f443 7380 	orr.w	r3, r3, #256	; 0x100
 8007670:	6013      	str	r3, [r2, #0]
 8007672:	f7fd fc99 	bl	8004fa8 <HAL_GetTick>
 8007676:	6138      	str	r0, [r7, #16]
 8007678:	e008      	b.n	800768c <HAL_RCC_OscConfig+0x2f0>
 800767a:	f7fd fc95 	bl	8004fa8 <HAL_GetTick>
 800767e:	4602      	mov	r2, r0
 8007680:	693b      	ldr	r3, [r7, #16]
 8007682:	1ad3      	subs	r3, r2, r3
 8007684:	2b64      	cmp	r3, #100	; 0x64
 8007686:	d901      	bls.n	800768c <HAL_RCC_OscConfig+0x2f0>
 8007688:	2303      	movs	r3, #3
 800768a:	e103      	b.n	8007894 <HAL_RCC_OscConfig+0x4f8>
 800768c:	4b75      	ldr	r3, [pc, #468]	; (8007864 <HAL_RCC_OscConfig+0x4c8>)
 800768e:	681b      	ldr	r3, [r3, #0]
 8007690:	f403 7380 	and.w	r3, r3, #256	; 0x100
 8007694:	2b00      	cmp	r3, #0
 8007696:	d0f0      	beq.n	800767a <HAL_RCC_OscConfig+0x2de>
 8007698:	687b      	ldr	r3, [r7, #4]
 800769a:	68db      	ldr	r3, [r3, #12]
 800769c:	2b01      	cmp	r3, #1
 800769e:	d106      	bne.n	80076ae <HAL_RCC_OscConfig+0x312>
 80076a0:	4b6f      	ldr	r3, [pc, #444]	; (8007860 <HAL_RCC_OscConfig+0x4c4>)
 80076a2:	6a1b      	ldr	r3, [r3, #32]
 80076a4:	4a6e      	ldr	r2, [pc, #440]	; (8007860 <HAL_RCC_OscConfig+0x4c4>)
 80076a6:	f043 0301 	orr.w	r3, r3, #1
 80076aa:	6213      	str	r3, [r2, #32]
 80076ac:	e02d      	b.n	800770a <HAL_RCC_OscConfig+0x36e>
 80076ae:	687b      	ldr	r3, [r7, #4]
 80076b0:	68db      	ldr	r3, [r3, #12]
 80076b2:	2b00      	cmp	r3, #0
 80076b4:	d10c      	bne.n	80076d0 <HAL_RCC_OscConfig+0x334>
 80076b6:	4b6a      	ldr	r3, [pc, #424]	; (8007860 <HAL_RCC_OscConfig+0x4c4>)
 80076b8:	6a1b      	ldr	r3, [r3, #32]
 80076ba:	4a69      	ldr	r2, [pc, #420]	; (8007860 <HAL_RCC_OscConfig+0x4c4>)
 80076bc:	f023 0301 	bic.w	r3, r3, #1
 80076c0:	6213      	str	r3, [r2, #32]
 80076c2:	4b67      	ldr	r3, [pc, #412]	; (8007860 <HAL_RCC_OscConfig+0x4c4>)
 80076c4:	6a1b      	ldr	r3, [r3, #32]
 80076c6:	4a66      	ldr	r2, [pc, #408]	; (8007860 <HAL_RCC_OscConfig+0x4c4>)
 80076c8:	f023 0304 	bic.w	r3, r3, #4
 80076cc:	6213      	str	r3, [r2, #32]
 80076ce:	e01c      	b.n	800770a <HAL_RCC_OscConfig+0x36e>
 80076d0:	687b      	ldr	r3, [r7, #4]
 80076d2:	68db      	ldr	r3, [r3, #12]
 80076d4:	2b05      	cmp	r3, #5
 80076d6:	d10c      	bne.n	80076f2 <HAL_RCC_OscConfig+0x356>
 80076d8:	4b61      	ldr	r3, [pc, #388]	; (8007860 <HAL_RCC_OscConfig+0x4c4>)
 80076da:	6a1b      	ldr	r3, [r3, #32]
 80076dc:	4a60      	ldr	r2, [pc, #384]	; (8007860 <HAL_RCC_OscConfig+0x4c4>)
 80076de:	f043 0304 	orr.w	r3, r3, #4
 80076e2:	6213      	str	r3, [r2, #32]
 80076e4:	4b5e      	ldr	r3, [pc, #376]	; (8007860 <HAL_RCC_OscConfig+0x4c4>)
 80076e6:	6a1b      	ldr	r3, [r3, #32]
 80076e8:	4a5d      	ldr	r2, [pc, #372]	; (8007860 <HAL_RCC_OscConfig+0x4c4>)
 80076ea:	f043 0301 	orr.w	r3, r3, #1
 80076ee:	6213      	str	r3, [r2, #32]
 80076f0:	e00b      	b.n	800770a <HAL_RCC_OscConfig+0x36e>
 80076f2:	4b5b      	ldr	r3, [pc, #364]	; (8007860 <HAL_RCC_OscConfig+0x4c4>)
 80076f4:	6a1b      	ldr	r3, [r3, #32]
 80076f6:	4a5a      	ldr	r2, [pc, #360]	; (8007860 <HAL_RCC_OscConfig+0x4c4>)
 80076f8:	f023 0301 	bic.w	r3, r3, #1
 80076fc:	6213      	str	r3, [r2, #32]
 80076fe:	4b58      	ldr	r3, [pc, #352]	; (8007860 <HAL_RCC_OscConfig+0x4c4>)
 8007700:	6a1b      	ldr	r3, [r3, #32]
 8007702:	4a57      	ldr	r2, [pc, #348]	; (8007860 <HAL_RCC_OscConfig+0x4c4>)
 8007704:	f023 0304 	bic.w	r3, r3, #4
 8007708:	6213      	str	r3, [r2, #32]
 800770a:	687b      	ldr	r3, [r7, #4]
 800770c:	68db      	ldr	r3, [r3, #12]
 800770e:	2b00      	cmp	r3, #0
 8007710:	d015      	beq.n	800773e <HAL_RCC_OscConfig+0x3a2>
 8007712:	f7fd fc49 	bl	8004fa8 <HAL_GetTick>
 8007716:	6138      	str	r0, [r7, #16]
 8007718:	e00a      	b.n	8007730 <HAL_RCC_OscConfig+0x394>
 800771a:	f7fd fc45 	bl	8004fa8 <HAL_GetTick>
 800771e:	4602      	mov	r2, r0
 8007720:	693b      	ldr	r3, [r7, #16]
 8007722:	1ad3      	subs	r3, r2, r3
 8007724:	f241 3288 	movw	r2, #5000	; 0x1388
 8007728:	4293      	cmp	r3, r2
 800772a:	d901      	bls.n	8007730 <HAL_RCC_OscConfig+0x394>
 800772c:	2303      	movs	r3, #3
 800772e:	e0b1      	b.n	8007894 <HAL_RCC_OscConfig+0x4f8>
 8007730:	4b4b      	ldr	r3, [pc, #300]	; (8007860 <HAL_RCC_OscConfig+0x4c4>)
 8007732:	6a1b      	ldr	r3, [r3, #32]
 8007734:	f003 0302 	and.w	r3, r3, #2
 8007738:	2b00      	cmp	r3, #0
 800773a:	d0ee      	beq.n	800771a <HAL_RCC_OscConfig+0x37e>
 800773c:	e014      	b.n	8007768 <HAL_RCC_OscConfig+0x3cc>
 800773e:	f7fd fc33 	bl	8004fa8 <HAL_GetTick>
 8007742:	6138      	str	r0, [r7, #16]
 8007744:	e00a      	b.n	800775c <HAL_RCC_OscConfig+0x3c0>
 8007746:	f7fd fc2f 	bl	8004fa8 <HAL_GetTick>
 800774a:	4602      	mov	r2, r0
 800774c:	693b      	ldr	r3, [r7, #16]
 800774e:	1ad3      	subs	r3, r2, r3
 8007750:	f241 3288 	movw	r2, #5000	; 0x1388
 8007754:	4293      	cmp	r3, r2
 8007756:	d901      	bls.n	800775c <HAL_RCC_OscConfig+0x3c0>
 8007758:	2303      	movs	r3, #3
 800775a:	e09b      	b.n	8007894 <HAL_RCC_OscConfig+0x4f8>
 800775c:	4b40      	ldr	r3, [pc, #256]	; (8007860 <HAL_RCC_OscConfig+0x4c4>)
 800775e:	6a1b      	ldr	r3, [r3, #32]
 8007760:	f003 0302 	and.w	r3, r3, #2
 8007764:	2b00      	cmp	r3, #0
 8007766:	d1ee      	bne.n	8007746 <HAL_RCC_OscConfig+0x3aa>
 8007768:	7dfb      	ldrb	r3, [r7, #23]
 800776a:	2b01      	cmp	r3, #1
 800776c:	d105      	bne.n	800777a <HAL_RCC_OscConfig+0x3de>
 800776e:	4b3c      	ldr	r3, [pc, #240]	; (8007860 <HAL_RCC_OscConfig+0x4c4>)
 8007770:	69db      	ldr	r3, [r3, #28]
 8007772:	4a3b      	ldr	r2, [pc, #236]	; (8007860 <HAL_RCC_OscConfig+0x4c4>)
 8007774:	f023 5380 	bic.w	r3, r3, #268435456	; 0x10000000
 8007778:	61d3      	str	r3, [r2, #28]
 800777a:	687b      	ldr	r3, [r7, #4]
 800777c:	69db      	ldr	r3, [r3, #28]
 800777e:	2b00      	cmp	r3, #0
 8007780:	f000 8087 	beq.w	8007892 <HAL_RCC_OscConfig+0x4f6>
 8007784:	4b36      	ldr	r3, [pc, #216]	; (8007860 <HAL_RCC_OscConfig+0x4c4>)
 8007786:	685b      	ldr	r3, [r3, #4]
 8007788:	f003 030c 	and.w	r3, r3, #12
 800778c:	2b08      	cmp	r3, #8
 800778e:	d061      	beq.n	8007854 <HAL_RCC_OscConfig+0x4b8>
 8007790:	687b      	ldr	r3, [r7, #4]
 8007792:	69db      	ldr	r3, [r3, #28]
 8007794:	2b02      	cmp	r3, #2
 8007796:	d146      	bne.n	8007826 <HAL_RCC_OscConfig+0x48a>
 8007798:	4b33      	ldr	r3, [pc, #204]	; (8007868 <HAL_RCC_OscConfig+0x4cc>)
 800779a:	2200      	movs	r2, #0
 800779c:	601a      	str	r2, [r3, #0]
 800779e:	f7fd fc03 	bl	8004fa8 <HAL_GetTick>
 80077a2:	6138      	str	r0, [r7, #16]
 80077a4:	e008      	b.n	80077b8 <HAL_RCC_OscConfig+0x41c>
 80077a6:	f7fd fbff 	bl	8004fa8 <HAL_GetTick>
 80077aa:	4602      	mov	r2, r0
 80077ac:	693b      	ldr	r3, [r7, #16]
 80077ae:	1ad3      	subs	r3, r2, r3
 80077b0:	2b02      	cmp	r3, #2
 80077b2:	d901      	bls.n	80077b8 <HAL_RCC_OscConfig+0x41c>
 80077b4:	2303      	movs	r3, #3
 80077b6:	e06d      	b.n	8007894 <HAL_RCC_OscConfig+0x4f8>
 80077b8:	4b29      	ldr	r3, [pc, #164]	; (8007860 <HAL_RCC_OscConfig+0x4c4>)
 80077ba:	681b      	ldr	r3, [r3, #0]
 80077bc:	f003 7300 	and.w	r3, r3, #33554432	; 0x2000000
 80077c0:	2b00      	cmp	r3, #0
 80077c2:	d1f0      	bne.n	80077a6 <HAL_RCC_OscConfig+0x40a>
 80077c4:	687b      	ldr	r3, [r7, #4]
 80077c6:	6a1b      	ldr	r3, [r3, #32]
 80077c8:	f5b3 3f80 	cmp.w	r3, #65536	; 0x10000
 80077cc:	d108      	bne.n	80077e0 <HAL_RCC_OscConfig+0x444>
 80077ce:	4b24      	ldr	r3, [pc, #144]	; (8007860 <HAL_RCC_OscConfig+0x4c4>)
 80077d0:	685b      	ldr	r3, [r3, #4]
 80077d2:	f423 3200 	bic.w	r2, r3, #131072	; 0x20000
 80077d6:	687b      	ldr	r3, [r7, #4]
 80077d8:	689b      	ldr	r3, [r3, #8]
 80077da:	4921      	ldr	r1, [pc, #132]	; (8007860 <HAL_RCC_OscConfig+0x4c4>)
 80077dc:	4313      	orrs	r3, r2
 80077de:	604b      	str	r3, [r1, #4]
 80077e0:	4b1f      	ldr	r3, [pc, #124]	; (8007860 <HAL_RCC_OscConfig+0x4c4>)
 80077e2:	685b      	ldr	r3, [r3, #4]
 80077e4:	f423 1274 	bic.w	r2, r3, #3997696	; 0x3d0000
 80077e8:	687b      	ldr	r3, [r7, #4]
 80077ea:	6a19      	ldr	r1, [r3, #32]
 80077ec:	687b      	ldr	r3, [r7, #4]
 80077ee:	6a5b      	ldr	r3, [r3, #36]	; 0x24
 80077f0:	430b      	orrs	r3, r1
 80077f2:	491b      	ldr	r1, [pc, #108]	; (8007860 <HAL_RCC_OscConfig+0x4c4>)
 80077f4:	4313      	orrs	r3, r2
 80077f6:	604b      	str	r3, [r1, #4]
 80077f8:	4b1b      	ldr	r3, [pc, #108]	; (8007868 <HAL_RCC_OscConfig+0x4cc>)
 80077fa:	2201      	movs	r2, #1
 80077fc:	601a      	str	r2, [r3, #0]
 80077fe:	f7fd fbd3 	bl	8004fa8 <HAL_GetTick>
 8007802:	6138      	str	r0, [r7, #16]
 8007804:	e008      	b.n	8007818 <HAL_RCC_OscConfig+0x47c>
 8007806:	f7fd fbcf 	bl	8004fa8 <HAL_GetTick>
 800780a:	4602      	mov	r2, r0
 800780c:	693b      	ldr	r3, [r7, #16]
 800780e:	1ad3      	subs	r3, r2, r3
 8007810:	2b02      	cmp	r3, #2
 8007812:	d901      	bls.n	8007818 <HAL_RCC_OscConfig+0x47c>
 8007814:	2303      	movs	r3, #3
 8007816:	e03d      	b.n	8007894 <HAL_RCC_OscConfig+0x4f8>
 8007818:	4b11      	ldr	r3, [pc, #68]	; (8007860 <HAL_RCC_OscConfig+0x4c4>)
 800781a:	681b      	ldr	r3, [r3, #0]
 800781c:	f003 7300 	and.w	r3, r3, #33554432	; 0x2000000
 8007820:	2b00      	cmp	r3, #0
 8007822:	d0f0      	beq.n	8007806 <HAL_RCC_OscConfig+0x46a>
 8007824:	e035      	b.n	8007892 <HAL_RCC_OscConfig+0x4f6>
 8007826:	4b10      	ldr	r3, [pc, #64]	; (8007868 <HAL_RCC_OscConfig+0x4cc>)
 8007828:	2200      	movs	r2, #0
 800782a:	601a      	str	r2, [r3, #0]
 800782c:	f7fd fbbc 	bl	8004fa8 <HAL_GetTick>
 8007830:	6138      	str	r0, [r7, #16]
 8007832:	e008      	b.n	8007846 <HAL_RCC_OscConfig+0x4aa>
 8007834:	f7fd fbb8 	bl	8004fa8 <HAL_GetTick>
 8007838:	4602      	mov	r2, r0
 800783a:	693b      	ldr	r3, [r7, #16]
 800783c:	1ad3      	subs	r3, r2, r3
 800783e:	2b02      	cmp	r3, #2
 8007840:	d901      	bls.n	8007846 <HAL_RCC_OscConfig+0x4aa>
 8007842:	2303      	movs	r3, #3
 8007844:	e026      	b.n	8007894 <HAL_RCC_OscConfig+0x4f8>
 8007846:	4b06      	ldr	r3, [pc, #24]	; (8007860 <HAL_RCC_OscConfig+0x4c4>)
 8007848:	681b      	ldr	r3, [r3, #0]
 800784a:	f003 7300 	and.w	r3, r3, #33554432	; 0x2000000
 800784e:	2b00      	cmp	r3, #0
 8007850:	d1f0      	bne.n	8007834 <HAL_RCC_OscConfig+0x498>
 8007852:	e01e      	b.n	8007892 <HAL_RCC_OscConfig+0x4f6>
 8007854:	687b      	ldr	r3, [r7, #4]
 8007856:	69db      	ldr	r3, [r3, #28]
 8007858:	2b01      	cmp	r3, #1
 800785a:	d107      	bne.n	800786c <HAL_RCC_OscConfig+0x4d0>
 800785c:	2301      	movs	r3, #1
 800785e:	e019      	b.n	8007894 <HAL_RCC_OscConfig+0x4f8>
 8007860:	40021000 	.word	0x40021000
 8007864:	40007000 	.word	0x40007000
 8007868:	42420060 	.word	0x42420060
 800786c:	4b0b      	ldr	r3, [pc, #44]	; (800789c <HAL_RCC_OscConfig+0x500>)
 800786e:	685b      	ldr	r3, [r3, #4]
 8007870:	60fb      	str	r3, [r7, #12]
 8007872:	68fb      	ldr	r3, [r7, #12]
 8007874:	f403 3280 	and.w	r2, r3, #65536	; 0x10000
 8007878:	687b      	ldr	r3, [r7, #4]
 800787a:	6a1b      	ldr	r3, [r3, #32]
 800787c:	429a      	cmp	r2, r3
 800787e:	d106      	bne.n	800788e <HAL_RCC_OscConfig+0x4f2>
 8007880:	68fb      	ldr	r3, [r7, #12]
 8007882:	f403 1270 	and.w	r2, r3, #3932160	; 0x3c0000
 8007886:	687b      	ldr	r3, [r7, #4]
 8007888:	6a5b      	ldr	r3, [r3, #36]	; 0x24
 800788a:	429a      	cmp	r2, r3
 800788c:	d001      	beq.n	8007892 <HAL_RCC_OscConfig+0x4f6>
 800788e:	2301      	movs	r3, #1
 8007890:	e000      	b.n	8007894 <HAL_RCC_OscConfig+0x4f8>
 8007892:	2300      	movs	r3, #0
 8007894:	4618      	mov	r0, r3
 8007896:	3718      	adds	r7, #24
 8007898:	46bd      	mov	sp, r7
 800789a:	bd80      	pop	{r7, pc}
 800789c:	40021000 	.word	0x40021000

080078a0 <HAL_RCC_ClockConfig>:
 80078a0:	b580      	push	{r7, lr}
 80078a2:	b084      	sub	sp, #16
 80078a4:	af00      	add	r7, sp, #0
 80078a6:	6078      	str	r0, [r7, #4]
 80078a8:	6039      	str	r1, [r7, #0]
 80078aa:	687b      	ldr	r3, [r7, #4]
 80078ac:	2b00      	cmp	r3, #0
 80078ae:	d101      	bne.n	80078b4 <HAL_RCC_ClockConfig+0x14>
 80078b0:	2301      	movs	r3, #1
 80078b2:	e0d0      	b.n	8007a56 <HAL_RCC_ClockConfig+0x1b6>
 80078b4:	4b6a      	ldr	r3, [pc, #424]	; (8007a60 <HAL_RCC_ClockConfig+0x1c0>)
 80078b6:	681b      	ldr	r3, [r3, #0]
 80078b8:	f003 0307 	and.w	r3, r3, #7
 80078bc:	683a      	ldr	r2, [r7, #0]
 80078be:	429a      	cmp	r2, r3
 80078c0:	d910      	bls.n	80078e4 <HAL_RCC_ClockConfig+0x44>
 80078c2:	4b67      	ldr	r3, [pc, #412]	; (8007a60 <HAL_RCC_ClockConfig+0x1c0>)
 80078c4:	681b      	ldr	r3, [r3, #0]
 80078c6:	f023 0207 	bic.w	r2, r3, #7
 80078ca:	4965      	ldr	r1, [pc, #404]	; (8007a60 <HAL_RCC_ClockConfig+0x1c0>)
 80078cc:	683b      	ldr	r3, [r7, #0]
 80078ce:	4313      	orrs	r3, r2
 80078d0:	600b      	str	r3, [r1, #0]
 80078d2:	4b63      	ldr	r3, [pc, #396]	; (8007a60 <HAL_RCC_ClockConfig+0x1c0>)
 80078d4:	681b      	ldr	r3, [r3, #0]
 80078d6:	f003 0307 	and.w	r3, r3, #7
 80078da:	683a      	ldr	r2, [r7, #0]
 80078dc:	429a      	cmp	r2, r3
 80078de:	d001      	beq.n	80078e4 <HAL_RCC_ClockConfig+0x44>
 80078e0:	2301      	movs	r3, #1
 80078e2:	e0b8      	b.n	8007a56 <HAL_RCC_ClockConfig+0x1b6>
 80078e4:	687b      	ldr	r3, [r7, #4]
 80078e6:	681b      	ldr	r3, [r3, #0]
 80078e8:	f003 0302 	and.w	r3, r3, #2
 80078ec:	2b00      	cmp	r3, #0
 80078ee:	d020      	beq.n	8007932 <HAL_RCC_ClockConfig+0x92>
 80078f0:	687b      	ldr	r3, [r7, #4]
 80078f2:	681b      	ldr	r3, [r3, #0]
 80078f4:	f003 0304 	and.w	r3, r3, #4
 80078f8:	2b00      	cmp	r3, #0
 80078fa:	d005      	beq.n	8007908 <HAL_RCC_ClockConfig+0x68>
 80078fc:	4b59      	ldr	r3, [pc, #356]	; (8007a64 <HAL_RCC_ClockConfig+0x1c4>)
 80078fe:	685b      	ldr	r3, [r3, #4]
 8007900:	4a58      	ldr	r2, [pc, #352]	; (8007a64 <HAL_RCC_ClockConfig+0x1c4>)
 8007902:	f443 63e0 	orr.w	r3, r3, #1792	; 0x700
 8007906:	6053      	str	r3, [r2, #4]
 8007908:	687b      	ldr	r3, [r7, #4]
 800790a:	681b      	ldr	r3, [r3, #0]
 800790c:	f003 0308 	and.w	r3, r3, #8
 8007910:	2b00      	cmp	r3, #0
 8007912:	d005      	beq.n	8007920 <HAL_RCC_ClockConfig+0x80>
 8007914:	4b53      	ldr	r3, [pc, #332]	; (8007a64 <HAL_RCC_ClockConfig+0x1c4>)
 8007916:	685b      	ldr	r3, [r3, #4]
 8007918:	4a52      	ldr	r2, [pc, #328]	; (8007a64 <HAL_RCC_ClockConfig+0x1c4>)
 800791a:	f443 5360 	orr.w	r3, r3, #14336	; 0x3800
 800791e:	6053      	str	r3, [r2, #4]
 8007920:	4b50      	ldr	r3, [pc, #320]	; (8007a64 <HAL_RCC_ClockConfig+0x1c4>)
 8007922:	685b      	ldr	r3, [r3, #4]
 8007924:	f023 02f0 	bic.w	r2, r3, #240	; 0xf0
 8007928:	687b      	ldr	r3, [r7, #4]
 800792a:	689b      	ldr	r3, [r3, #8]
 800792c:	494d      	ldr	r1, [pc, #308]	; (8007a64 <HAL_RCC_ClockConfig+0x1c4>)
 800792e:	4313      	orrs	r3, r2
 8007930:	604b      	str	r3, [r1, #4]
 8007932:	687b      	ldr	r3, [r7, #4]
 8007934:	681b      	ldr	r3, [r3, #0]
 8007936:	f003 0301 	and.w	r3, r3, #1
 800793a:	2b00      	cmp	r3, #0
 800793c:	d040      	beq.n	80079c0 <HAL_RCC_ClockConfig+0x120>
 800793e:	687b      	ldr	r3, [r7, #4]
 8007940:	685b      	ldr	r3, [r3, #4]
 8007942:	2b01      	cmp	r3, #1
 8007944:	d107      	bne.n	8007956 <HAL_RCC_ClockConfig+0xb6>
 8007946:	4b47      	ldr	r3, [pc, #284]	; (8007a64 <HAL_RCC_ClockConfig+0x1c4>)
 8007948:	681b      	ldr	r3, [r3, #0]
 800794a:	f403 3300 	and.w	r3, r3, #131072	; 0x20000
 800794e:	2b00      	cmp	r3, #0
 8007950:	d115      	bne.n	800797e <HAL_RCC_ClockConfig+0xde>
 8007952:	2301      	movs	r3, #1
 8007954:	e07f      	b.n	8007a56 <HAL_RCC_ClockConfig+0x1b6>
 8007956:	687b      	ldr	r3, [r7, #4]
 8007958:	685b      	ldr	r3, [r3, #4]
 800795a:	2b02      	cmp	r3, #2
 800795c:	d107      	bne.n	800796e <HAL_RCC_ClockConfig+0xce>
 800795e:	4b41      	ldr	r3, [pc, #260]	; (8007a64 <HAL_RCC_ClockConfig+0x1c4>)
 8007960:	681b      	ldr	r3, [r3, #0]
 8007962:	f003 7300 	and.w	r3, r3, #33554432	; 0x2000000
 8007966:	2b00      	cmp	r3, #0
 8007968:	d109      	bne.n	800797e <HAL_RCC_ClockConfig+0xde>
 800796a:	2301      	movs	r3, #1
 800796c:	e073      	b.n	8007a56 <HAL_RCC_ClockConfig+0x1b6>
 800796e:	4b3d      	ldr	r3, [pc, #244]	; (8007a64 <HAL_RCC_ClockConfig+0x1c4>)
 8007970:	681b      	ldr	r3, [r3, #0]
 8007972:	f003 0302 	and.w	r3, r3, #2
 8007976:	2b00      	cmp	r3, #0
 8007978:	d101      	bne.n	800797e <HAL_RCC_ClockConfig+0xde>
 800797a:	2301      	movs	r3, #1
 800797c:	e06b      	b.n	8007a56 <HAL_RCC_ClockConfig+0x1b6>
 800797e:	4b39      	ldr	r3, [pc, #228]	; (8007a64 <HAL_RCC_ClockConfig+0x1c4>)
 8007980:	685b      	ldr	r3, [r3, #4]
 8007982:	f023 0203 	bic.w	r2, r3, #3
 8007986:	687b      	ldr	r3, [r7, #4]
 8007988:	685b      	ldr	r3, [r3, #4]
 800798a:	4936      	ldr	r1, [pc, #216]	; (8007a64 <HAL_RCC_ClockConfig+0x1c4>)
 800798c:	4313      	orrs	r3, r2
 800798e:	604b      	str	r3, [r1, #4]
 8007990:	f7fd fb0a 	bl	8004fa8 <HAL_GetTick>
 8007994:	60f8      	str	r0, [r7, #12]
 8007996:	e00a      	b.n	80079ae <HAL_RCC_ClockConfig+0x10e>
 8007998:	f7fd fb06 	bl	8004fa8 <HAL_GetTick>
 800799c:	4602      	mov	r2, r0
 800799e:	68fb      	ldr	r3, [r7, #12]
 80079a0:	1ad3      	subs	r3, r2, r3
 80079a2:	f241 3288 	movw	r2, #5000	; 0x1388
 80079a6:	4293      	cmp	r3, r2
 80079a8:	d901      	bls.n	80079ae <HAL_RCC_ClockConfig+0x10e>
 80079aa:	2303      	movs	r3, #3
 80079ac:	e053      	b.n	8007a56 <HAL_RCC_ClockConfig+0x1b6>
 80079ae:	4b2d      	ldr	r3, [pc, #180]	; (8007a64 <HAL_RCC_ClockConfig+0x1c4>)
 80079b0:	685b      	ldr	r3, [r3, #4]
 80079b2:	f003 020c 	and.w	r2, r3, #12
 80079b6:	687b      	ldr	r3, [r7, #4]
 80079b8:	685b      	ldr	r3, [r3, #4]
 80079ba:	009b      	lsls	r3, r3, #2
 80079bc:	429a      	cmp	r2, r3
 80079be:	d1eb      	bne.n	8007998 <HAL_RCC_ClockConfig+0xf8>
 80079c0:	4b27      	ldr	r3, [pc, #156]	; (8007a60 <HAL_RCC_ClockConfig+0x1c0>)
 80079c2:	681b      	ldr	r3, [r3, #0]
 80079c4:	f003 0307 	and.w	r3, r3, #7
 80079c8:	683a      	ldr	r2, [r7, #0]
 80079ca:	429a      	cmp	r2, r3
 80079cc:	d210      	bcs.n	80079f0 <HAL_RCC_ClockConfig+0x150>
 80079ce:	4b24      	ldr	r3, [pc, #144]	; (8007a60 <HAL_RCC_ClockConfig+0x1c0>)
 80079d0:	681b      	ldr	r3, [r3, #0]
 80079d2:	f023 0207 	bic.w	r2, r3, #7
 80079d6:	4922      	ldr	r1, [pc, #136]	; (8007a60 <HAL_RCC_ClockConfig+0x1c0>)
 80079d8:	683b      	ldr	r3, [r7, #0]
 80079da:	4313      	orrs	r3, r2
 80079dc:	600b      	str	r3, [r1, #0]
 80079de:	4b20      	ldr	r3, [pc, #128]	; (8007a60 <HAL_RCC_ClockConfig+0x1c0>)
 80079e0:	681b      	ldr	r3, [r3, #0]
 80079e2:	f003 0307 	and.w	r3, r3, #7
 80079e6:	683a      	ldr	r2, [r7, #0]
 80079e8:	429a      	cmp	r2, r3
 80079ea:	d001      	beq.n	80079f0 <HAL_RCC_ClockConfig+0x150>
 80079ec:	2301      	movs	r3, #1
 80079ee:	e032      	b.n	8007a56 <HAL_RCC_ClockConfig+0x1b6>
 80079f0:	687b      	ldr	r3, [r7, #4]
 80079f2:	681b      	ldr	r3, [r3, #0]
 80079f4:	f003 0304 	and.w	r3, r3, #4
 80079f8:	2b00      	cmp	r3, #0
 80079fa:	d008      	beq.n	8007a0e <HAL_RCC_ClockConfig+0x16e>
 80079fc:	4b19      	ldr	r3, [pc, #100]	; (8007a64 <HAL_RCC_ClockConfig+0x1c4>)
 80079fe:	685b      	ldr	r3, [r3, #4]
 8007a00:	f423 62e0 	bic.w	r2, r3, #1792	; 0x700
 8007a04:	687b      	ldr	r3, [r7, #4]
 8007a06:	68db      	ldr	r3, [r3, #12]
 8007a08:	4916      	ldr	r1, [pc, #88]	; (8007a64 <HAL_RCC_ClockConfig+0x1c4>)
 8007a0a:	4313      	orrs	r3, r2
 8007a0c:	604b      	str	r3, [r1, #4]
 8007a0e:	687b      	ldr	r3, [r7, #4]
 8007a10:	681b      	ldr	r3, [r3, #0]
 8007a12:	f003 0308 	and.w	r3, r3, #8
 8007a16:	2b00      	cmp	r3, #0
 8007a18:	d009      	beq.n	8007a2e <HAL_RCC_ClockConfig+0x18e>
 8007a1a:	4b12      	ldr	r3, [pc, #72]	; (8007a64 <HAL_RCC_ClockConfig+0x1c4>)
 8007a1c:	685b      	ldr	r3, [r3, #4]
 8007a1e:	f423 5260 	bic.w	r2, r3, #14336	; 0x3800
 8007a22:	687b      	ldr	r3, [r7, #4]
 8007a24:	691b      	ldr	r3, [r3, #16]
 8007a26:	00db      	lsls	r3, r3, #3
 8007a28:	490e      	ldr	r1, [pc, #56]	; (8007a64 <HAL_RCC_ClockConfig+0x1c4>)
 8007a2a:	4313      	orrs	r3, r2
 8007a2c:	604b      	str	r3, [r1, #4]
 8007a2e:	f000 f821 	bl	8007a74 <HAL_RCC_GetSysClockFreq>
 8007a32:	4602      	mov	r2, r0
 8007a34:	4b0b      	ldr	r3, [pc, #44]	; (8007a64 <HAL_RCC_ClockConfig+0x1c4>)
 8007a36:	685b      	ldr	r3, [r3, #4]
 8007a38:	091b      	lsrs	r3, r3, #4
 8007a3a:	f003 030f 	and.w	r3, r3, #15
 8007a3e:	490a      	ldr	r1, [pc, #40]	; (8007a68 <HAL_RCC_ClockConfig+0x1c8>)
 8007a40:	5ccb      	ldrb	r3, [r1, r3]
 8007a42:	fa22 f303 	lsr.w	r3, r2, r3
 8007a46:	4a09      	ldr	r2, [pc, #36]	; (8007a6c <HAL_RCC_ClockConfig+0x1cc>)
 8007a48:	6013      	str	r3, [r2, #0]
 8007a4a:	4b09      	ldr	r3, [pc, #36]	; (8007a70 <HAL_RCC_ClockConfig+0x1d0>)
 8007a4c:	681b      	ldr	r3, [r3, #0]
 8007a4e:	4618      	mov	r0, r3
 8007a50:	f7fd fa68 	bl	8004f24 <HAL_InitTick>
 8007a54:	2300      	movs	r3, #0
 8007a56:	4618      	mov	r0, r3
 8007a58:	3710      	adds	r7, #16
 8007a5a:	46bd      	mov	sp, r7
 8007a5c:	bd80      	pop	{r7, pc}
 8007a5e:	bf00      	nop
 8007a60:	40022000 	.word	0x40022000
 8007a64:	40021000 	.word	0x40021000
 8007a68:	08008fe8 	.word	0x08008fe8
 8007a6c:	2000047c 	.word	0x2000047c
 8007a70:	20000480 	.word	0x20000480

08007a74 <HAL_RCC_GetSysClockFreq>:
 8007a74:	b490      	push	{r4, r7}
 8007a76:	b08a      	sub	sp, #40	; 0x28
 8007a78:	af00      	add	r7, sp, #0
 8007a7a:	4b29      	ldr	r3, [pc, #164]	; (8007b20 <HAL_RCC_GetSysClockFreq+0xac>)
 8007a7c:	1d3c      	adds	r4, r7, #4
 8007a7e:	cb0f      	ldmia	r3, {r0, r1, r2, r3}
 8007a80:	e884 000f 	stmia.w	r4, {r0, r1, r2, r3}
 8007a84:	f240 2301 	movw	r3, #513	; 0x201
 8007a88:	803b      	strh	r3, [r7, #0]
 8007a8a:	2300      	movs	r3, #0
 8007a8c:	61fb      	str	r3, [r7, #28]
 8007a8e:	2300      	movs	r3, #0
 8007a90:	61bb      	str	r3, [r7, #24]
 8007a92:	2300      	movs	r3, #0
 8007a94:	627b      	str	r3, [r7, #36]	; 0x24
 8007a96:	2300      	movs	r3, #0
 8007a98:	617b      	str	r3, [r7, #20]
 8007a9a:	2300      	movs	r3, #0
 8007a9c:	623b      	str	r3, [r7, #32]
 8007a9e:	4b21      	ldr	r3, [pc, #132]	; (8007b24 <HAL_RCC_GetSysClockFreq+0xb0>)
 8007aa0:	685b      	ldr	r3, [r3, #4]
 8007aa2:	61fb      	str	r3, [r7, #28]
 8007aa4:	69fb      	ldr	r3, [r7, #28]
 8007aa6:	f003 030c 	and.w	r3, r3, #12
 8007aaa:	2b04      	cmp	r3, #4
 8007aac:	d002      	beq.n	8007ab4 <HAL_RCC_GetSysClockFreq+0x40>
 8007aae:	2b08      	cmp	r3, #8
 8007ab0:	d003      	beq.n	8007aba <HAL_RCC_GetSysClockFreq+0x46>
 8007ab2:	e02b      	b.n	8007b0c <HAL_RCC_GetSysClockFreq+0x98>
 8007ab4:	4b1c      	ldr	r3, [pc, #112]	; (8007b28 <HAL_RCC_GetSysClockFreq+0xb4>)
 8007ab6:	623b      	str	r3, [r7, #32]
 8007ab8:	e02b      	b.n	8007b12 <HAL_RCC_GetSysClockFreq+0x9e>
 8007aba:	69fb      	ldr	r3, [r7, #28]
 8007abc:	0c9b      	lsrs	r3, r3, #18
 8007abe:	f003 030f 	and.w	r3, r3, #15
 8007ac2:	3328      	adds	r3, #40	; 0x28
 8007ac4:	443b      	add	r3, r7
 8007ac6:	f813 3c24 	ldrb.w	r3, [r3, #-36]
 8007aca:	617b      	str	r3, [r7, #20]
 8007acc:	69fb      	ldr	r3, [r7, #28]
 8007ace:	f403 3380 	and.w	r3, r3, #65536	; 0x10000
 8007ad2:	2b00      	cmp	r3, #0
 8007ad4:	d012      	beq.n	8007afc <HAL_RCC_GetSysClockFreq+0x88>
 8007ad6:	4b13      	ldr	r3, [pc, #76]	; (8007b24 <HAL_RCC_GetSysClockFreq+0xb0>)
 8007ad8:	685b      	ldr	r3, [r3, #4]
 8007ada:	0c5b      	lsrs	r3, r3, #17
 8007adc:	f003 0301 	and.w	r3, r3, #1
 8007ae0:	3328      	adds	r3, #40	; 0x28
 8007ae2:	443b      	add	r3, r7
 8007ae4:	f813 3c28 	ldrb.w	r3, [r3, #-40]
 8007ae8:	61bb      	str	r3, [r7, #24]
 8007aea:	697b      	ldr	r3, [r7, #20]
 8007aec:	4a0e      	ldr	r2, [pc, #56]	; (8007b28 <HAL_RCC_GetSysClockFreq+0xb4>)
 8007aee:	fb03 f202 	mul.w	r2, r3, r2
 8007af2:	69bb      	ldr	r3, [r7, #24]
 8007af4:	fbb2 f3f3 	udiv	r3, r2, r3
 8007af8:	627b      	str	r3, [r7, #36]	; 0x24
 8007afa:	e004      	b.n	8007b06 <HAL_RCC_GetSysClockFreq+0x92>
 8007afc:	697b      	ldr	r3, [r7, #20]
 8007afe:	4a0b      	ldr	r2, [pc, #44]	; (8007b2c <HAL_RCC_GetSysClockFreq+0xb8>)
 8007b00:	fb02 f303 	mul.w	r3, r2, r3
 8007b04:	627b      	str	r3, [r7, #36]	; 0x24
 8007b06:	6a7b      	ldr	r3, [r7, #36]	; 0x24
 8007b08:	623b      	str	r3, [r7, #32]
 8007b0a:	e002      	b.n	8007b12 <HAL_RCC_GetSysClockFreq+0x9e>
 8007b0c:	4b06      	ldr	r3, [pc, #24]	; (8007b28 <HAL_RCC_GetSysClockFreq+0xb4>)
 8007b0e:	623b      	str	r3, [r7, #32]
 8007b10:	bf00      	nop
 8007b12:	6a3b      	ldr	r3, [r7, #32]
 8007b14:	4618      	mov	r0, r3
 8007b16:	3728      	adds	r7, #40	; 0x28
 8007b18:	46bd      	mov	sp, r7
 8007b1a:	bc90      	pop	{r4, r7}
 8007b1c:	4770      	bx	lr
 8007b1e:	bf00      	nop
 8007b20:	08008fd8 	.word	0x08008fd8
 8007b24:	40021000 	.word	0x40021000
 8007b28:	007a1200 	.word	0x007a1200
 8007b2c:	003d0900 	.word	0x003d0900

08007b30 <HAL_RCC_GetHCLKFreq>:
 8007b30:	b480      	push	{r7}
 8007b32:	af00      	add	r7, sp, #0
 8007b34:	4b02      	ldr	r3, [pc, #8]	; (8007b40 <HAL_RCC_GetHCLKFreq+0x10>)
 8007b36:	681b      	ldr	r3, [r3, #0]
 8007b38:	4618      	mov	r0, r3
 8007b3a:	46bd      	mov	sp, r7
 8007b3c:	bc80      	pop	{r7}
 8007b3e:	4770      	bx	lr
 8007b40:	2000047c 	.word	0x2000047c

08007b44 <HAL_RCC_GetPCLK1Freq>:
 8007b44:	b580      	push	{r7, lr}
 8007b46:	af00      	add	r7, sp, #0
 8007b48:	f7ff fff2 	bl	8007b30 <HAL_RCC_GetHCLKFreq>
 8007b4c:	4602      	mov	r2, r0
 8007b4e:	4b05      	ldr	r3, [pc, #20]	; (8007b64 <HAL_RCC_GetPCLK1Freq+0x20>)
 8007b50:	685b      	ldr	r3, [r3, #4]
 8007b52:	0a1b      	lsrs	r3, r3, #8
 8007b54:	f003 0307 	and.w	r3, r3, #7
 8007b58:	4903      	ldr	r1, [pc, #12]	; (8007b68 <HAL_RCC_GetPCLK1Freq+0x24>)
 8007b5a:	5ccb      	ldrb	r3, [r1, r3]
 8007b5c:	fa22 f303 	lsr.w	r3, r2, r3
 8007b60:	4618      	mov	r0, r3
 8007b62:	bd80      	pop	{r7, pc}
 8007b64:	40021000 	.word	0x40021000
 8007b68:	08008ff8 	.word	0x08008ff8

08007b6c <RCC_Delay>:
 8007b6c:	b480      	push	{r7}
 8007b6e:	b085      	sub	sp, #20
 8007b70:	af00      	add	r7, sp, #0
 8007b72:	6078      	str	r0, [r7, #4]
 8007b74:	4b0a      	ldr	r3, [pc, #40]	; (8007ba0 <RCC_Delay+0x34>)
 8007b76:	681b      	ldr	r3, [r3, #0]
 8007b78:	4a0a      	ldr	r2, [pc, #40]	; (8007ba4 <RCC_Delay+0x38>)
 8007b7a:	fba2 2303 	umull	r2, r3, r2, r3
 8007b7e:	0a5b      	lsrs	r3, r3, #9
 8007b80:	687a      	ldr	r2, [r7, #4]
 8007b82:	fb02 f303 	mul.w	r3, r2, r3
 8007b86:	60fb      	str	r3, [r7, #12]
 8007b88:	bf00      	nop
 8007b8a:	68fb      	ldr	r3, [r7, #12]
 8007b8c:	1e5a      	subs	r2, r3, #1
 8007b8e:	60fa      	str	r2, [r7, #12]
 8007b90:	2b00      	cmp	r3, #0
 8007b92:	d1f9      	bne.n	8007b88 <RCC_Delay+0x1c>
 8007b94:	bf00      	nop
 8007b96:	bf00      	nop
 8007b98:	3714      	adds	r7, #20
 8007b9a:	46bd      	mov	sp, r7
 8007b9c:	bc80      	pop	{r7}
 8007b9e:	4770      	bx	lr
 8007ba0:	2000047c 	.word	0x2000047c
 8007ba4:	10624dd3 	.word	0x10624dd3

08007ba8 <HAL_RCCEx_PeriphCLKConfig>:
 8007ba8:	b580      	push	{r7, lr}
 8007baa:	b086      	sub	sp, #24
 8007bac:	af00      	add	r7, sp, #0
 8007bae:	6078      	str	r0, [r7, #4]
 8007bb0:	2300      	movs	r3, #0
 8007bb2:	613b      	str	r3, [r7, #16]
 8007bb4:	2300      	movs	r3, #0
 8007bb6:	60fb      	str	r3, [r7, #12]
 8007bb8:	687b      	ldr	r3, [r7, #4]
 8007bba:	681b      	ldr	r3, [r3, #0]
 8007bbc:	f003 0301 	and.w	r3, r3, #1
 8007bc0:	2b00      	cmp	r3, #0
 8007bc2:	d07d      	beq.n	8007cc0 <HAL_RCCEx_PeriphCLKConfig+0x118>
 8007bc4:	2300      	movs	r3, #0
 8007bc6:	75fb      	strb	r3, [r7, #23]
 8007bc8:	4b4f      	ldr	r3, [pc, #316]	; (8007d08 <HAL_RCCEx_PeriphCLKConfig+0x160>)
 8007bca:	69db      	ldr	r3, [r3, #28]
 8007bcc:	f003 5380 	and.w	r3, r3, #268435456	; 0x10000000
 8007bd0:	2b00      	cmp	r3, #0
 8007bd2:	d10d      	bne.n	8007bf0 <HAL_RCCEx_PeriphCLKConfig+0x48>
 8007bd4:	4b4c      	ldr	r3, [pc, #304]	; (8007d08 <HAL_RCCEx_PeriphCLKConfig+0x160>)
 8007bd6:	69db      	ldr	r3, [r3, #28]
 8007bd8:	4a4b      	ldr	r2, [pc, #300]	; (8007d08 <HAL_RCCEx_PeriphCLKConfig+0x160>)
 8007bda:	f043 5380 	orr.w	r3, r3, #268435456	; 0x10000000
 8007bde:	61d3      	str	r3, [r2, #28]
 8007be0:	4b49      	ldr	r3, [pc, #292]	; (8007d08 <HAL_RCCEx_PeriphCLKConfig+0x160>)
 8007be2:	69db      	ldr	r3, [r3, #28]
 8007be4:	f003 5380 	and.w	r3, r3, #268435456	; 0x10000000
 8007be8:	60bb      	str	r3, [r7, #8]
 8007bea:	68bb      	ldr	r3, [r7, #8]
 8007bec:	2301      	movs	r3, #1
 8007bee:	75fb      	strb	r3, [r7, #23]
 8007bf0:	4b46      	ldr	r3, [pc, #280]	; (8007d0c <HAL_RCCEx_PeriphCLKConfig+0x164>)
 8007bf2:	681b      	ldr	r3, [r3, #0]
 8007bf4:	f403 7380 	and.w	r3, r3, #256	; 0x100
 8007bf8:	2b00      	cmp	r3, #0
 8007bfa:	d118      	bne.n	8007c2e <HAL_RCCEx_PeriphCLKConfig+0x86>
 8007bfc:	4b43      	ldr	r3, [pc, #268]	; (8007d0c <HAL_RCCEx_PeriphCLKConfig+0x164>)
 8007bfe:	681b      	ldr	r3, [r3, #0]
 8007c00:	4a42      	ldr	r2, [pc, #264]	; (8007d0c <HAL_RCCEx_PeriphCLKConfig+0x164>)
 8007c02:	f443 7380 	orr.w	r3, r3, #256	; 0x100
 8007c06:	6013      	str	r3, [r2, #0]
 8007c08:	f7fd f9ce 	bl	8004fa8 <HAL_GetTick>
 8007c0c:	6138      	str	r0, [r7, #16]
 8007c0e:	e008      	b.n	8007c22 <HAL_RCCEx_PeriphCLKConfig+0x7a>
 8007c10:	f7fd f9ca 	bl	8004fa8 <HAL_GetTick>
 8007c14:	4602      	mov	r2, r0
 8007c16:	693b      	ldr	r3, [r7, #16]
 8007c18:	1ad3      	subs	r3, r2, r3
 8007c1a:	2b64      	cmp	r3, #100	; 0x64
 8007c1c:	d901      	bls.n	8007c22 <HAL_RCCEx_PeriphCLKConfig+0x7a>
 8007c1e:	2303      	movs	r3, #3
 8007c20:	e06d      	b.n	8007cfe <HAL_RCCEx_PeriphCLKConfig+0x156>
 8007c22:	4b3a      	ldr	r3, [pc, #232]	; (8007d0c <HAL_RCCEx_PeriphCLKConfig+0x164>)
 8007c24:	681b      	ldr	r3, [r3, #0]
 8007c26:	f403 7380 	and.w	r3, r3, #256	; 0x100
 8007c2a:	2b00      	cmp	r3, #0
 8007c2c:	d0f0      	beq.n	8007c10 <HAL_RCCEx_PeriphCLKConfig+0x68>
 8007c2e:	4b36      	ldr	r3, [pc, #216]	; (8007d08 <HAL_RCCEx_PeriphCLKConfig+0x160>)
 8007c30:	6a1b      	ldr	r3, [r3, #32]
 8007c32:	f403 7340 	and.w	r3, r3, #768	; 0x300
 8007c36:	60fb      	str	r3, [r7, #12]
 8007c38:	68fb      	ldr	r3, [r7, #12]
 8007c3a:	2b00      	cmp	r3, #0
 8007c3c:	d02e      	beq.n	8007c9c <HAL_RCCEx_PeriphCLKConfig+0xf4>
 8007c3e:	687b      	ldr	r3, [r7, #4]
 8007c40:	685b      	ldr	r3, [r3, #4]
 8007c42:	f403 7340 	and.w	r3, r3, #768	; 0x300
 8007c46:	68fa      	ldr	r2, [r7, #12]
 8007c48:	429a      	cmp	r2, r3
 8007c4a:	d027      	beq.n	8007c9c <HAL_RCCEx_PeriphCLKConfig+0xf4>
 8007c4c:	4b2e      	ldr	r3, [pc, #184]	; (8007d08 <HAL_RCCEx_PeriphCLKConfig+0x160>)
 8007c4e:	6a1b      	ldr	r3, [r3, #32]
 8007c50:	f423 7340 	bic.w	r3, r3, #768	; 0x300
 8007c54:	60fb      	str	r3, [r7, #12]
 8007c56:	4b2e      	ldr	r3, [pc, #184]	; (8007d10 <HAL_RCCEx_PeriphCLKConfig+0x168>)
 8007c58:	2201      	movs	r2, #1
 8007c5a:	601a      	str	r2, [r3, #0]
 8007c5c:	4b2c      	ldr	r3, [pc, #176]	; (8007d10 <HAL_RCCEx_PeriphCLKConfig+0x168>)
 8007c5e:	2200      	movs	r2, #0
 8007c60:	601a      	str	r2, [r3, #0]
 8007c62:	4a29      	ldr	r2, [pc, #164]	; (8007d08 <HAL_RCCEx_PeriphCLKConfig+0x160>)
 8007c64:	68fb      	ldr	r3, [r7, #12]
 8007c66:	6213      	str	r3, [r2, #32]
 8007c68:	68fb      	ldr	r3, [r7, #12]
 8007c6a:	f003 0301 	and.w	r3, r3, #1
 8007c6e:	2b00      	cmp	r3, #0
 8007c70:	d014      	beq.n	8007c9c <HAL_RCCEx_PeriphCLKConfig+0xf4>
 8007c72:	f7fd f999 	bl	8004fa8 <HAL_GetTick>
 8007c76:	6138      	str	r0, [r7, #16]
 8007c78:	e00a      	b.n	8007c90 <HAL_RCCEx_PeriphCLKConfig+0xe8>
 8007c7a:	f7fd f995 	bl	8004fa8 <HAL_GetTick>
 8007c7e:	4602      	mov	r2, r0
 8007c80:	693b      	ldr	r3, [r7, #16]
 8007c82:	1ad3      	subs	r3, r2, r3
 8007c84:	f241 3288 	movw	r2, #5000	; 0x1388
 8007c88:	4293      	cmp	r3, r2
 8007c8a:	d901      	bls.n	8007c90 <HAL_RCCEx_PeriphCLKConfig+0xe8>
 8007c8c:	2303      	movs	r3, #3
 8007c8e:	e036      	b.n	8007cfe <HAL_RCCEx_PeriphCLKConfig+0x156>
 8007c90:	4b1d      	ldr	r3, [pc, #116]	; (8007d08 <HAL_RCCEx_PeriphCLKConfig+0x160>)
 8007c92:	6a1b      	ldr	r3, [r3, #32]
 8007c94:	f003 0302 	and.w	r3, r3, #2
 8007c98:	2b00      	cmp	r3, #0
 8007c9a:	d0ee      	beq.n	8007c7a <HAL_RCCEx_PeriphCLKConfig+0xd2>
 8007c9c:	4b1a      	ldr	r3, [pc, #104]	; (8007d08 <HAL_RCCEx_PeriphCLKConfig+0x160>)
 8007c9e:	6a1b      	ldr	r3, [r3, #32]
 8007ca0:	f423 7240 	bic.w	r2, r3, #768	; 0x300
 8007ca4:	687b      	ldr	r3, [r7, #4]
 8007ca6:	685b      	ldr	r3, [r3, #4]
 8007ca8:	4917      	ldr	r1, [pc, #92]	; (8007d08 <HAL_RCCEx_PeriphCLKConfig+0x160>)
 8007caa:	4313      	orrs	r3, r2
 8007cac:	620b      	str	r3, [r1, #32]
 8007cae:	7dfb      	ldrb	r3, [r7, #23]
 8007cb0:	2b01      	cmp	r3, #1
 8007cb2:	d105      	bne.n	8007cc0 <HAL_RCCEx_PeriphCLKConfig+0x118>
 8007cb4:	4b14      	ldr	r3, [pc, #80]	; (8007d08 <HAL_RCCEx_PeriphCLKConfig+0x160>)
 8007cb6:	69db      	ldr	r3, [r3, #28]
 8007cb8:	4a13      	ldr	r2, [pc, #76]	; (8007d08 <HAL_RCCEx_PeriphCLKConfig+0x160>)
 8007cba:	f023 5380 	bic.w	r3, r3, #268435456	; 0x10000000
 8007cbe:	61d3      	str	r3, [r2, #28]
 8007cc0:	687b      	ldr	r3, [r7, #4]
 8007cc2:	681b      	ldr	r3, [r3, #0]
 8007cc4:	f003 0302 	and.w	r3, r3, #2
 8007cc8:	2b00      	cmp	r3, #0
 8007cca:	d008      	beq.n	8007cde <HAL_RCCEx_PeriphCLKConfig+0x136>
 8007ccc:	4b0e      	ldr	r3, [pc, #56]	; (8007d08 <HAL_RCCEx_PeriphCLKConfig+0x160>)
 8007cce:	685b      	ldr	r3, [r3, #4]
 8007cd0:	f423 4240 	bic.w	r2, r3, #49152	; 0xc000
 8007cd4:	687b      	ldr	r3, [r7, #4]
 8007cd6:	689b      	ldr	r3, [r3, #8]
 8007cd8:	490b      	ldr	r1, [pc, #44]	; (8007d08 <HAL_RCCEx_PeriphCLKConfig+0x160>)
 8007cda:	4313      	orrs	r3, r2
 8007cdc:	604b      	str	r3, [r1, #4]
 8007cde:	687b      	ldr	r3, [r7, #4]
 8007ce0:	681b      	ldr	r3, [r3, #0]
 8007ce2:	f003 0310 	and.w	r3, r3, #16
 8007ce6:	2b00      	cmp	r3, #0
 8007ce8:	d008      	beq.n	8007cfc <HAL_RCCEx_PeriphCLKConfig+0x154>
 8007cea:	4b07      	ldr	r3, [pc, #28]	; (8007d08 <HAL_RCCEx_PeriphCLKConfig+0x160>)
 8007cec:	685b      	ldr	r3, [r3, #4]
 8007cee:	f423 0280 	bic.w	r2, r3, #4194304	; 0x400000
 8007cf2:	687b      	ldr	r3, [r7, #4]
 8007cf4:	68db      	ldr	r3, [r3, #12]
 8007cf6:	4904      	ldr	r1, [pc, #16]	; (8007d08 <HAL_RCCEx_PeriphCLKConfig+0x160>)
 8007cf8:	4313      	orrs	r3, r2
 8007cfa:	604b      	str	r3, [r1, #4]
 8007cfc:	2300      	movs	r3, #0
 8007cfe:	4618      	mov	r0, r3
 8007d00:	3718      	adds	r7, #24
 8007d02:	46bd      	mov	sp, r7
 8007d04:	bd80      	pop	{r7, pc}
 8007d06:	bf00      	nop
 8007d08:	40021000 	.word	0x40021000
 8007d0c:	40007000 	.word	0x40007000
 8007d10:	42420440 	.word	0x42420440

08007d14 <HAL_TIM_Base_Init>:
 8007d14:	b580      	push	{r7, lr}
 8007d16:	b082      	sub	sp, #8
 8007d18:	af00      	add	r7, sp, #0
 8007d1a:	6078      	str	r0, [r7, #4]
 8007d1c:	687b      	ldr	r3, [r7, #4]
 8007d1e:	2b00      	cmp	r3, #0
 8007d20:	d101      	bne.n	8007d26 <HAL_TIM_Base_Init+0x12>
 8007d22:	2301      	movs	r3, #1
 8007d24:	e041      	b.n	8007daa <HAL_TIM_Base_Init+0x96>
 8007d26:	687b      	ldr	r3, [r7, #4]
 8007d28:	f893 303d 	ldrb.w	r3, [r3, #61]	; 0x3d
 8007d2c:	b2db      	uxtb	r3, r3
 8007d2e:	2b00      	cmp	r3, #0
 8007d30:	d106      	bne.n	8007d40 <HAL_TIM_Base_Init+0x2c>
 8007d32:	687b      	ldr	r3, [r7, #4]
 8007d34:	2200      	movs	r2, #0
 8007d36:	f883 203c 	strb.w	r2, [r3, #60]	; 0x3c
 8007d3a:	6878      	ldr	r0, [r7, #4]
 8007d3c:	f7fc ff3a 	bl	8004bb4 <HAL_TIM_Base_MspInit>
 8007d40:	687b      	ldr	r3, [r7, #4]
 8007d42:	2202      	movs	r2, #2
 8007d44:	f883 203d 	strb.w	r2, [r3, #61]	; 0x3d
 8007d48:	687b      	ldr	r3, [r7, #4]
 8007d4a:	681a      	ldr	r2, [r3, #0]
 8007d4c:	687b      	ldr	r3, [r7, #4]
 8007d4e:	3304      	adds	r3, #4
 8007d50:	4619      	mov	r1, r3
 8007d52:	4610      	mov	r0, r2
 8007d54:	f000 fc8c 	bl	8008670 <TIM_Base_SetConfig>
 8007d58:	687b      	ldr	r3, [r7, #4]
 8007d5a:	2201      	movs	r2, #1
 8007d5c:	f883 2046 	strb.w	r2, [r3, #70]	; 0x46
 8007d60:	687b      	ldr	r3, [r7, #4]
 8007d62:	2201      	movs	r2, #1
 8007d64:	f883 203e 	strb.w	r2, [r3, #62]	; 0x3e
 8007d68:	687b      	ldr	r3, [r7, #4]
 8007d6a:	2201      	movs	r2, #1
 8007d6c:	f883 203f 	strb.w	r2, [r3, #63]	; 0x3f
 8007d70:	687b      	ldr	r3, [r7, #4]
 8007d72:	2201      	movs	r2, #1
 8007d74:	f883 2040 	strb.w	r2, [r3, #64]	; 0x40
 8007d78:	687b      	ldr	r3, [r7, #4]
 8007d7a:	2201      	movs	r2, #1
 8007d7c:	f883 2041 	strb.w	r2, [r3, #65]	; 0x41
 8007d80:	687b      	ldr	r3, [r7, #4]
 8007d82:	2201      	movs	r2, #1
 8007d84:	f883 2042 	strb.w	r2, [r3, #66]	; 0x42
 8007d88:	687b      	ldr	r3, [r7, #4]
 8007d8a:	2201      	movs	r2, #1
 8007d8c:	f883 2043 	strb.w	r2, [r3, #67]	; 0x43
 8007d90:	687b      	ldr	r3, [r7, #4]
 8007d92:	2201      	movs	r2, #1
 8007d94:	f883 2044 	strb.w	r2, [r3, #68]	; 0x44
 8007d98:	687b      	ldr	r3, [r7, #4]
 8007d9a:	2201      	movs	r2, #1
 8007d9c:	f883 2045 	strb.w	r2, [r3, #69]	; 0x45
 8007da0:	687b      	ldr	r3, [r7, #4]
 8007da2:	2201      	movs	r2, #1
 8007da4:	f883 203d 	strb.w	r2, [r3, #61]	; 0x3d
 8007da8:	2300      	movs	r3, #0
 8007daa:	4618      	mov	r0, r3
 8007dac:	3708      	adds	r7, #8
 8007dae:	46bd      	mov	sp, r7
 8007db0:	bd80      	pop	{r7, pc}
	...

08007db4 <HAL_TIM_Base_Start_IT>:
 8007db4:	b480      	push	{r7}
 8007db6:	b085      	sub	sp, #20
 8007db8:	af00      	add	r7, sp, #0
 8007dba:	6078      	str	r0, [r7, #4]
 8007dbc:	687b      	ldr	r3, [r7, #4]
 8007dbe:	f893 303d 	ldrb.w	r3, [r3, #61]	; 0x3d
 8007dc2:	b2db      	uxtb	r3, r3
 8007dc4:	2b01      	cmp	r3, #1
 8007dc6:	d001      	beq.n	8007dcc <HAL_TIM_Base_Start_IT+0x18>
 8007dc8:	2301      	movs	r3, #1
 8007dca:	e03a      	b.n	8007e42 <HAL_TIM_Base_Start_IT+0x8e>
 8007dcc:	687b      	ldr	r3, [r7, #4]
 8007dce:	2202      	movs	r2, #2
 8007dd0:	f883 203d 	strb.w	r2, [r3, #61]	; 0x3d
 8007dd4:	687b      	ldr	r3, [r7, #4]
 8007dd6:	681b      	ldr	r3, [r3, #0]
 8007dd8:	68da      	ldr	r2, [r3, #12]
 8007dda:	687b      	ldr	r3, [r7, #4]
 8007ddc:	681b      	ldr	r3, [r3, #0]
 8007dde:	f042 0201 	orr.w	r2, r2, #1
 8007de2:	60da      	str	r2, [r3, #12]
 8007de4:	687b      	ldr	r3, [r7, #4]
 8007de6:	681b      	ldr	r3, [r3, #0]
 8007de8:	4a18      	ldr	r2, [pc, #96]	; (8007e4c <HAL_TIM_Base_Start_IT+0x98>)
 8007dea:	4293      	cmp	r3, r2
 8007dec:	d00e      	beq.n	8007e0c <HAL_TIM_Base_Start_IT+0x58>
 8007dee:	687b      	ldr	r3, [r7, #4]
 8007df0:	681b      	ldr	r3, [r3, #0]
 8007df2:	f1b3 4f80 	cmp.w	r3, #1073741824	; 0x40000000
 8007df6:	d009      	beq.n	8007e0c <HAL_TIM_Base_Start_IT+0x58>
 8007df8:	687b      	ldr	r3, [r7, #4]
 8007dfa:	681b      	ldr	r3, [r3, #0]
 8007dfc:	4a14      	ldr	r2, [pc, #80]	; (8007e50 <HAL_TIM_Base_Start_IT+0x9c>)
 8007dfe:	4293      	cmp	r3, r2
 8007e00:	d004      	beq.n	8007e0c <HAL_TIM_Base_Start_IT+0x58>
 8007e02:	687b      	ldr	r3, [r7, #4]
 8007e04:	681b      	ldr	r3, [r3, #0]
 8007e06:	4a13      	ldr	r2, [pc, #76]	; (8007e54 <HAL_TIM_Base_Start_IT+0xa0>)
 8007e08:	4293      	cmp	r3, r2
 8007e0a:	d111      	bne.n	8007e30 <HAL_TIM_Base_Start_IT+0x7c>
 8007e0c:	687b      	ldr	r3, [r7, #4]
 8007e0e:	681b      	ldr	r3, [r3, #0]
 8007e10:	689b      	ldr	r3, [r3, #8]
 8007e12:	f003 0307 	and.w	r3, r3, #7
 8007e16:	60fb      	str	r3, [r7, #12]
 8007e18:	68fb      	ldr	r3, [r7, #12]
 8007e1a:	2b06      	cmp	r3, #6
 8007e1c:	d010      	beq.n	8007e40 <HAL_TIM_Base_Start_IT+0x8c>
 8007e1e:	687b      	ldr	r3, [r7, #4]
 8007e20:	681b      	ldr	r3, [r3, #0]
 8007e22:	681a      	ldr	r2, [r3, #0]
 8007e24:	687b      	ldr	r3, [r7, #4]
 8007e26:	681b      	ldr	r3, [r3, #0]
 8007e28:	f042 0201 	orr.w	r2, r2, #1
 8007e2c:	601a      	str	r2, [r3, #0]
 8007e2e:	e007      	b.n	8007e40 <HAL_TIM_Base_Start_IT+0x8c>
 8007e30:	687b      	ldr	r3, [r7, #4]
 8007e32:	681b      	ldr	r3, [r3, #0]
 8007e34:	681a      	ldr	r2, [r3, #0]
 8007e36:	687b      	ldr	r3, [r7, #4]
 8007e38:	681b      	ldr	r3, [r3, #0]
 8007e3a:	f042 0201 	orr.w	r2, r2, #1
 8007e3e:	601a      	str	r2, [r3, #0]
 8007e40:	2300      	movs	r3, #0
 8007e42:	4618      	mov	r0, r3
 8007e44:	3714      	adds	r7, #20
 8007e46:	46bd      	mov	sp, r7
 8007e48:	bc80      	pop	{r7}
 8007e4a:	4770      	bx	lr
 8007e4c:	40012c00 	.word	0x40012c00
 8007e50:	40000400 	.word	0x40000400
 8007e54:	40000800 	.word	0x40000800

08007e58 <HAL_TIM_PWM_Init>:
 8007e58:	b580      	push	{r7, lr}
 8007e5a:	b082      	sub	sp, #8
 8007e5c:	af00      	add	r7, sp, #0
 8007e5e:	6078      	str	r0, [r7, #4]
 8007e60:	687b      	ldr	r3, [r7, #4]
 8007e62:	2b00      	cmp	r3, #0
 8007e64:	d101      	bne.n	8007e6a <HAL_TIM_PWM_Init+0x12>
 8007e66:	2301      	movs	r3, #1
 8007e68:	e041      	b.n	8007eee <HAL_TIM_PWM_Init+0x96>
 8007e6a:	687b      	ldr	r3, [r7, #4]
 8007e6c:	f893 303d 	ldrb.w	r3, [r3, #61]	; 0x3d
 8007e70:	b2db      	uxtb	r3, r3
 8007e72:	2b00      	cmp	r3, #0
 8007e74:	d106      	bne.n	8007e84 <HAL_TIM_PWM_Init+0x2c>
 8007e76:	687b      	ldr	r3, [r7, #4]
 8007e78:	2200      	movs	r2, #0
 8007e7a:	f883 203c 	strb.w	r2, [r3, #60]	; 0x3c
 8007e7e:	6878      	ldr	r0, [r7, #4]
 8007e80:	f000 f839 	bl	8007ef6 <HAL_TIM_PWM_MspInit>
 8007e84:	687b      	ldr	r3, [r7, #4]
 8007e86:	2202      	movs	r2, #2
 8007e88:	f883 203d 	strb.w	r2, [r3, #61]	; 0x3d
 8007e8c:	687b      	ldr	r3, [r7, #4]
 8007e8e:	681a      	ldr	r2, [r3, #0]
 8007e90:	687b      	ldr	r3, [r7, #4]
 8007e92:	3304      	adds	r3, #4
 8007e94:	4619      	mov	r1, r3
 8007e96:	4610      	mov	r0, r2
 8007e98:	f000 fbea 	bl	8008670 <TIM_Base_SetConfig>
 8007e9c:	687b      	ldr	r3, [r7, #4]
 8007e9e:	2201      	movs	r2, #1
 8007ea0:	f883 2046 	strb.w	r2, [r3, #70]	; 0x46
 8007ea4:	687b      	ldr	r3, [r7, #4]
 8007ea6:	2201      	movs	r2, #1
 8007ea8:	f883 203e 	strb.w	r2, [r3, #62]	; 0x3e
 8007eac:	687b      	ldr	r3, [r7, #4]
 8007eae:	2201      	movs	r2, #1
 8007eb0:	f883 203f 	strb.w	r2, [r3, #63]	; 0x3f
 8007eb4:	687b      	ldr	r3, [r7, #4]
 8007eb6:	2201      	movs	r2, #1
 8007eb8:	f883 2040 	strb.w	r2, [r3, #64]	; 0x40
 8007ebc:	687b      	ldr	r3, [r7, #4]
 8007ebe:	2201      	movs	r2, #1
 8007ec0:	f883 2041 	strb.w	r2, [r3, #65]	; 0x41
 8007ec4:	687b      	ldr	r3, [r7, #4]
 8007ec6:	2201      	movs	r2, #1
 8007ec8:	f883 2042 	strb.w	r2, [r3, #66]	; 0x42
 8007ecc:	687b      	ldr	r3, [r7, #4]
 8007ece:	2201      	movs	r2, #1
 8007ed0:	f883 2043 	strb.w	r2, [r3, #67]	; 0x43
 8007ed4:	687b      	ldr	r3, [r7, #4]
 8007ed6:	2201      	movs	r2, #1
 8007ed8:	f883 2044 	strb.w	r2, [r3, #68]	; 0x44
 8007edc:	687b      	ldr	r3, [r7, #4]
 8007ede:	2201      	movs	r2, #1
 8007ee0:	f883 2045 	strb.w	r2, [r3, #69]	; 0x45
 8007ee4:	687b      	ldr	r3, [r7, #4]
 8007ee6:	2201      	movs	r2, #1
 8007ee8:	f883 203d 	strb.w	r2, [r3, #61]	; 0x3d
 8007eec:	2300      	movs	r3, #0
 8007eee:	4618      	mov	r0, r3
 8007ef0:	3708      	adds	r7, #8
 8007ef2:	46bd      	mov	sp, r7
 8007ef4:	bd80      	pop	{r7, pc}

08007ef6 <HAL_TIM_PWM_MspInit>:
 8007ef6:	b480      	push	{r7}
 8007ef8:	b083      	sub	sp, #12
 8007efa:	af00      	add	r7, sp, #0
 8007efc:	6078      	str	r0, [r7, #4]
 8007efe:	bf00      	nop
 8007f00:	370c      	adds	r7, #12
 8007f02:	46bd      	mov	sp, r7
 8007f04:	bc80      	pop	{r7}
 8007f06:	4770      	bx	lr

08007f08 <HAL_TIM_PWM_Start>:
 8007f08:	b580      	push	{r7, lr}
 8007f0a:	b084      	sub	sp, #16
 8007f0c:	af00      	add	r7, sp, #0
 8007f0e:	6078      	str	r0, [r7, #4]
 8007f10:	6039      	str	r1, [r7, #0]
 8007f12:	683b      	ldr	r3, [r7, #0]
 8007f14:	2b00      	cmp	r3, #0
 8007f16:	d109      	bne.n	8007f2c <HAL_TIM_PWM_Start+0x24>
 8007f18:	687b      	ldr	r3, [r7, #4]
 8007f1a:	f893 303e 	ldrb.w	r3, [r3, #62]	; 0x3e
 8007f1e:	b2db      	uxtb	r3, r3
 8007f20:	2b01      	cmp	r3, #1
 8007f22:	bf14      	ite	ne
 8007f24:	2301      	movne	r3, #1
 8007f26:	2300      	moveq	r3, #0
 8007f28:	b2db      	uxtb	r3, r3
 8007f2a:	e022      	b.n	8007f72 <HAL_TIM_PWM_Start+0x6a>
 8007f2c:	683b      	ldr	r3, [r7, #0]
 8007f2e:	2b04      	cmp	r3, #4
 8007f30:	d109      	bne.n	8007f46 <HAL_TIM_PWM_Start+0x3e>
 8007f32:	687b      	ldr	r3, [r7, #4]
 8007f34:	f893 303f 	ldrb.w	r3, [r3, #63]	; 0x3f
 8007f38:	b2db      	uxtb	r3, r3
 8007f3a:	2b01      	cmp	r3, #1
 8007f3c:	bf14      	ite	ne
 8007f3e:	2301      	movne	r3, #1
 8007f40:	2300      	moveq	r3, #0
 8007f42:	b2db      	uxtb	r3, r3
 8007f44:	e015      	b.n	8007f72 <HAL_TIM_PWM_Start+0x6a>
 8007f46:	683b      	ldr	r3, [r7, #0]
 8007f48:	2b08      	cmp	r3, #8
 8007f4a:	d109      	bne.n	8007f60 <HAL_TIM_PWM_Start+0x58>
 8007f4c:	687b      	ldr	r3, [r7, #4]
 8007f4e:	f893 3040 	ldrb.w	r3, [r3, #64]	; 0x40
 8007f52:	b2db      	uxtb	r3, r3
 8007f54:	2b01      	cmp	r3, #1
 8007f56:	bf14      	ite	ne
 8007f58:	2301      	movne	r3, #1
 8007f5a:	2300      	moveq	r3, #0
 8007f5c:	b2db      	uxtb	r3, r3
 8007f5e:	e008      	b.n	8007f72 <HAL_TIM_PWM_Start+0x6a>
 8007f60:	687b      	ldr	r3, [r7, #4]
 8007f62:	f893 3041 	ldrb.w	r3, [r3, #65]	; 0x41
 8007f66:	b2db      	uxtb	r3, r3
 8007f68:	2b01      	cmp	r3, #1
 8007f6a:	bf14      	ite	ne
 8007f6c:	2301      	movne	r3, #1
 8007f6e:	2300      	moveq	r3, #0
 8007f70:	b2db      	uxtb	r3, r3
 8007f72:	2b00      	cmp	r3, #0
 8007f74:	d001      	beq.n	8007f7a <HAL_TIM_PWM_Start+0x72>
 8007f76:	2301      	movs	r3, #1
 8007f78:	e05e      	b.n	8008038 <HAL_TIM_PWM_Start+0x130>
 8007f7a:	683b      	ldr	r3, [r7, #0]
 8007f7c:	2b00      	cmp	r3, #0
 8007f7e:	d104      	bne.n	8007f8a <HAL_TIM_PWM_Start+0x82>
 8007f80:	687b      	ldr	r3, [r7, #4]
 8007f82:	2202      	movs	r2, #2
 8007f84:	f883 203e 	strb.w	r2, [r3, #62]	; 0x3e
 8007f88:	e013      	b.n	8007fb2 <HAL_TIM_PWM_Start+0xaa>
 8007f8a:	683b      	ldr	r3, [r7, #0]
 8007f8c:	2b04      	cmp	r3, #4
 8007f8e:	d104      	bne.n	8007f9a <HAL_TIM_PWM_Start+0x92>
 8007f90:	687b      	ldr	r3, [r7, #4]
 8007f92:	2202      	movs	r2, #2
 8007f94:	f883 203f 	strb.w	r2, [r3, #63]	; 0x3f
 8007f98:	e00b      	b.n	8007fb2 <HAL_TIM_PWM_Start+0xaa>
 8007f9a:	683b      	ldr	r3, [r7, #0]
 8007f9c:	2b08      	cmp	r3, #8
 8007f9e:	d104      	bne.n	8007faa <HAL_TIM_PWM_Start+0xa2>
 8007fa0:	687b      	ldr	r3, [r7, #4]
 8007fa2:	2202      	movs	r2, #2
 8007fa4:	f883 2040 	strb.w	r2, [r3, #64]	; 0x40
 8007fa8:	e003      	b.n	8007fb2 <HAL_TIM_PWM_Start+0xaa>
 8007faa:	687b      	ldr	r3, [r7, #4]
 8007fac:	2202      	movs	r2, #2
 8007fae:	f883 2041 	strb.w	r2, [r3, #65]	; 0x41
 8007fb2:	687b      	ldr	r3, [r7, #4]
 8007fb4:	681b      	ldr	r3, [r3, #0]
 8007fb6:	2201      	movs	r2, #1
 8007fb8:	6839      	ldr	r1, [r7, #0]
 8007fba:	4618      	mov	r0, r3
 8007fbc:	f000 fdd8 	bl	8008b70 <TIM_CCxChannelCmd>
 8007fc0:	687b      	ldr	r3, [r7, #4]
 8007fc2:	681b      	ldr	r3, [r3, #0]
 8007fc4:	4a1e      	ldr	r2, [pc, #120]	; (8008040 <HAL_TIM_PWM_Start+0x138>)
 8007fc6:	4293      	cmp	r3, r2
 8007fc8:	d107      	bne.n	8007fda <HAL_TIM_PWM_Start+0xd2>
 8007fca:	687b      	ldr	r3, [r7, #4]
 8007fcc:	681b      	ldr	r3, [r3, #0]
 8007fce:	6c5a      	ldr	r2, [r3, #68]	; 0x44
 8007fd0:	687b      	ldr	r3, [r7, #4]
 8007fd2:	681b      	ldr	r3, [r3, #0]
 8007fd4:	f442 4200 	orr.w	r2, r2, #32768	; 0x8000
 8007fd8:	645a      	str	r2, [r3, #68]	; 0x44
 8007fda:	687b      	ldr	r3, [r7, #4]
 8007fdc:	681b      	ldr	r3, [r3, #0]
 8007fde:	4a18      	ldr	r2, [pc, #96]	; (8008040 <HAL_TIM_PWM_Start+0x138>)
 8007fe0:	4293      	cmp	r3, r2
 8007fe2:	d00e      	beq.n	8008002 <HAL_TIM_PWM_Start+0xfa>
 8007fe4:	687b      	ldr	r3, [r7, #4]
 8007fe6:	681b      	ldr	r3, [r3, #0]
 8007fe8:	f1b3 4f80 	cmp.w	r3, #1073741824	; 0x40000000
 8007fec:	d009      	beq.n	8008002 <HAL_TIM_PWM_Start+0xfa>
 8007fee:	687b      	ldr	r3, [r7, #4]
 8007ff0:	681b      	ldr	r3, [r3, #0]
 8007ff2:	4a14      	ldr	r2, [pc, #80]	; (8008044 <HAL_TIM_PWM_Start+0x13c>)
 8007ff4:	4293      	cmp	r3, r2
 8007ff6:	d004      	beq.n	8008002 <HAL_TIM_PWM_Start+0xfa>
 8007ff8:	687b      	ldr	r3, [r7, #4]
 8007ffa:	681b      	ldr	r3, [r3, #0]
 8007ffc:	4a12      	ldr	r2, [pc, #72]	; (8008048 <HAL_TIM_PWM_Start+0x140>)
 8007ffe:	4293      	cmp	r3, r2
 8008000:	d111      	bne.n	8008026 <HAL_TIM_PWM_Start+0x11e>
 8008002:	687b      	ldr	r3, [r7, #4]
 8008004:	681b      	ldr	r3, [r3, #0]
 8008006:	689b      	ldr	r3, [r3, #8]
 8008008:	f003 0307 	and.w	r3, r3, #7
 800800c:	60fb      	str	r3, [r7, #12]
 800800e:	68fb      	ldr	r3, [r7, #12]
 8008010:	2b06      	cmp	r3, #6
 8008012:	d010      	beq.n	8008036 <HAL_TIM_PWM_Start+0x12e>
 8008014:	687b      	ldr	r3, [r7, #4]
 8008016:	681b      	ldr	r3, [r3, #0]
 8008018:	681a      	ldr	r2, [r3, #0]
 800801a:	687b      	ldr	r3, [r7, #4]
 800801c:	681b      	ldr	r3, [r3, #0]
 800801e:	f042 0201 	orr.w	r2, r2, #1
 8008022:	601a      	str	r2, [r3, #0]
 8008024:	e007      	b.n	8008036 <HAL_TIM_PWM_Start+0x12e>
 8008026:	687b      	ldr	r3, [r7, #4]
 8008028:	681b      	ldr	r3, [r3, #0]
 800802a:	681a      	ldr	r2, [r3, #0]
 800802c:	687b      	ldr	r3, [r7, #4]
 800802e:	681b      	ldr	r3, [r3, #0]
 8008030:	f042 0201 	orr.w	r2, r2, #1
 8008034:	601a      	str	r2, [r3, #0]
 8008036:	2300      	movs	r3, #0
 8008038:	4618      	mov	r0, r3
 800803a:	3710      	adds	r7, #16
 800803c:	46bd      	mov	sp, r7
 800803e:	bd80      	pop	{r7, pc}
 8008040:	40012c00 	.word	0x40012c00
 8008044:	40000400 	.word	0x40000400
 8008048:	40000800 	.word	0x40000800

0800804c <HAL_TIM_PWM_Stop>:
 800804c:	b580      	push	{r7, lr}
 800804e:	b082      	sub	sp, #8
 8008050:	af00      	add	r7, sp, #0
 8008052:	6078      	str	r0, [r7, #4]
 8008054:	6039      	str	r1, [r7, #0]
 8008056:	687b      	ldr	r3, [r7, #4]
 8008058:	681b      	ldr	r3, [r3, #0]
 800805a:	2200      	movs	r2, #0
 800805c:	6839      	ldr	r1, [r7, #0]
 800805e:	4618      	mov	r0, r3
 8008060:	f000 fd86 	bl	8008b70 <TIM_CCxChannelCmd>
 8008064:	687b      	ldr	r3, [r7, #4]
 8008066:	681b      	ldr	r3, [r3, #0]
 8008068:	4a29      	ldr	r2, [pc, #164]	; (8008110 <HAL_TIM_PWM_Stop+0xc4>)
 800806a:	4293      	cmp	r3, r2
 800806c:	d117      	bne.n	800809e <HAL_TIM_PWM_Stop+0x52>
 800806e:	687b      	ldr	r3, [r7, #4]
 8008070:	681b      	ldr	r3, [r3, #0]
 8008072:	6a1a      	ldr	r2, [r3, #32]
 8008074:	f241 1311 	movw	r3, #4369	; 0x1111
 8008078:	4013      	ands	r3, r2
 800807a:	2b00      	cmp	r3, #0
 800807c:	d10f      	bne.n	800809e <HAL_TIM_PWM_Stop+0x52>
 800807e:	687b      	ldr	r3, [r7, #4]
 8008080:	681b      	ldr	r3, [r3, #0]
 8008082:	6a1a      	ldr	r2, [r3, #32]
 8008084:	f240 4344 	movw	r3, #1092	; 0x444
 8008088:	4013      	ands	r3, r2
 800808a:	2b00      	cmp	r3, #0
 800808c:	d107      	bne.n	800809e <HAL_TIM_PWM_Stop+0x52>
 800808e:	687b      	ldr	r3, [r7, #4]
 8008090:	681b      	ldr	r3, [r3, #0]
 8008092:	6c5a      	ldr	r2, [r3, #68]	; 0x44
 8008094:	687b      	ldr	r3, [r7, #4]
 8008096:	681b      	ldr	r3, [r3, #0]
 8008098:	f422 4200 	bic.w	r2, r2, #32768	; 0x8000
 800809c:	645a      	str	r2, [r3, #68]	; 0x44
 800809e:	687b      	ldr	r3, [r7, #4]
 80080a0:	681b      	ldr	r3, [r3, #0]
 80080a2:	6a1a      	ldr	r2, [r3, #32]
 80080a4:	f241 1311 	movw	r3, #4369	; 0x1111
 80080a8:	4013      	ands	r3, r2
 80080aa:	2b00      	cmp	r3, #0
 80080ac:	d10f      	bne.n	80080ce <HAL_TIM_PWM_Stop+0x82>
 80080ae:	687b      	ldr	r3, [r7, #4]
 80080b0:	681b      	ldr	r3, [r3, #0]
 80080b2:	6a1a      	ldr	r2, [r3, #32]
 80080b4:	f240 4344 	movw	r3, #1092	; 0x444
 80080b8:	4013      	ands	r3, r2
 80080ba:	2b00      	cmp	r3, #0
 80080bc:	d107      	bne.n	80080ce <HAL_TIM_PWM_Stop+0x82>
 80080be:	687b      	ldr	r3, [r7, #4]
 80080c0:	681b      	ldr	r3, [r3, #0]
 80080c2:	681a      	ldr	r2, [r3, #0]
 80080c4:	687b      	ldr	r3, [r7, #4]
 80080c6:	681b      	ldr	r3, [r3, #0]
 80080c8:	f022 0201 	bic.w	r2, r2, #1
 80080cc:	601a      	str	r2, [r3, #0]
 80080ce:	683b      	ldr	r3, [r7, #0]
 80080d0:	2b00      	cmp	r3, #0
 80080d2:	d104      	bne.n	80080de <HAL_TIM_PWM_Stop+0x92>
 80080d4:	687b      	ldr	r3, [r7, #4]
 80080d6:	2201      	movs	r2, #1
 80080d8:	f883 203e 	strb.w	r2, [r3, #62]	; 0x3e
 80080dc:	e013      	b.n	8008106 <HAL_TIM_PWM_Stop+0xba>
 80080de:	683b      	ldr	r3, [r7, #0]
 80080e0:	2b04      	cmp	r3, #4
 80080e2:	d104      	bne.n	80080ee <HAL_TIM_PWM_Stop+0xa2>
 80080e4:	687b      	ldr	r3, [r7, #4]
 80080e6:	2201      	movs	r2, #1
 80080e8:	f883 203f 	strb.w	r2, [r3, #63]	; 0x3f
 80080ec:	e00b      	b.n	8008106 <HAL_TIM_PWM_Stop+0xba>
 80080ee:	683b      	ldr	r3, [r7, #0]
 80080f0:	2b08      	cmp	r3, #8
 80080f2:	d104      	bne.n	80080fe <HAL_TIM_PWM_Stop+0xb2>
 80080f4:	687b      	ldr	r3, [r7, #4]
 80080f6:	2201      	movs	r2, #1
 80080f8:	f883 2040 	strb.w	r2, [r3, #64]	; 0x40
 80080fc:	e003      	b.n	8008106 <HAL_TIM_PWM_Stop+0xba>
 80080fe:	687b      	ldr	r3, [r7, #4]
 8008100:	2201      	movs	r2, #1
 8008102:	f883 2041 	strb.w	r2, [r3, #65]	; 0x41
 8008106:	2300      	movs	r3, #0
 8008108:	4618      	mov	r0, r3
 800810a:	3708      	adds	r7, #8
 800810c:	46bd      	mov	sp, r7
 800810e:	bd80      	pop	{r7, pc}
 8008110:	40012c00 	.word	0x40012c00

08008114 <HAL_TIM_IRQHandler>:
 8008114:	b580      	push	{r7, lr}
 8008116:	b082      	sub	sp, #8
 8008118:	af00      	add	r7, sp, #0
 800811a:	6078      	str	r0, [r7, #4]
 800811c:	687b      	ldr	r3, [r7, #4]
 800811e:	681b      	ldr	r3, [r3, #0]
 8008120:	691b      	ldr	r3, [r3, #16]
 8008122:	f003 0302 	and.w	r3, r3, #2
 8008126:	2b02      	cmp	r3, #2
 8008128:	d122      	bne.n	8008170 <HAL_TIM_IRQHandler+0x5c>
 800812a:	687b      	ldr	r3, [r7, #4]
 800812c:	681b      	ldr	r3, [r3, #0]
 800812e:	68db      	ldr	r3, [r3, #12]
 8008130:	f003 0302 	and.w	r3, r3, #2
 8008134:	2b02      	cmp	r3, #2
 8008136:	d11b      	bne.n	8008170 <HAL_TIM_IRQHandler+0x5c>
 8008138:	687b      	ldr	r3, [r7, #4]
 800813a:	681b      	ldr	r3, [r3, #0]
 800813c:	f06f 0202 	mvn.w	r2, #2
 8008140:	611a      	str	r2, [r3, #16]
 8008142:	687b      	ldr	r3, [r7, #4]
 8008144:	2201      	movs	r2, #1
 8008146:	771a      	strb	r2, [r3, #28]
 8008148:	687b      	ldr	r3, [r7, #4]
 800814a:	681b      	ldr	r3, [r3, #0]
 800814c:	699b      	ldr	r3, [r3, #24]
 800814e:	f003 0303 	and.w	r3, r3, #3
 8008152:	2b00      	cmp	r3, #0
 8008154:	d003      	beq.n	800815e <HAL_TIM_IRQHandler+0x4a>
 8008156:	6878      	ldr	r0, [r7, #4]
 8008158:	f000 fa6f 	bl	800863a <HAL_TIM_IC_CaptureCallback>
 800815c:	e005      	b.n	800816a <HAL_TIM_IRQHandler+0x56>
 800815e:	6878      	ldr	r0, [r7, #4]
 8008160:	f000 fa62 	bl	8008628 <HAL_TIM_OC_DelayElapsedCallback>
 8008164:	6878      	ldr	r0, [r7, #4]
 8008166:	f000 fa71 	bl	800864c <HAL_TIM_PWM_PulseFinishedCallback>
 800816a:	687b      	ldr	r3, [r7, #4]
 800816c:	2200      	movs	r2, #0
 800816e:	771a      	strb	r2, [r3, #28]
 8008170:	687b      	ldr	r3, [r7, #4]
 8008172:	681b      	ldr	r3, [r3, #0]
 8008174:	691b      	ldr	r3, [r3, #16]
 8008176:	f003 0304 	and.w	r3, r3, #4
 800817a:	2b04      	cmp	r3, #4
 800817c:	d122      	bne.n	80081c4 <HAL_TIM_IRQHandler+0xb0>
 800817e:	687b      	ldr	r3, [r7, #4]
 8008180:	681b      	ldr	r3, [r3, #0]
 8008182:	68db      	ldr	r3, [r3, #12]
 8008184:	f003 0304 	and.w	r3, r3, #4
 8008188:	2b04      	cmp	r3, #4
 800818a:	d11b      	bne.n	80081c4 <HAL_TIM_IRQHandler+0xb0>
 800818c:	687b      	ldr	r3, [r7, #4]
 800818e:	681b      	ldr	r3, [r3, #0]
 8008190:	f06f 0204 	mvn.w	r2, #4
 8008194:	611a      	str	r2, [r3, #16]
 8008196:	687b      	ldr	r3, [r7, #4]
 8008198:	2202      	movs	r2, #2
 800819a:	771a      	strb	r2, [r3, #28]
 800819c:	687b      	ldr	r3, [r7, #4]
 800819e:	681b      	ldr	r3, [r3, #0]
 80081a0:	699b      	ldr	r3, [r3, #24]
 80081a2:	f403 7340 	and.w	r3, r3, #768	; 0x300
 80081a6:	2b00      	cmp	r3, #0
 80081a8:	d003      	beq.n	80081b2 <HAL_TIM_IRQHandler+0x9e>
 80081aa:	6878      	ldr	r0, [r7, #4]
 80081ac:	f000 fa45 	bl	800863a <HAL_TIM_IC_CaptureCallback>
 80081b0:	e005      	b.n	80081be <HAL_TIM_IRQHandler+0xaa>
 80081b2:	6878      	ldr	r0, [r7, #4]
 80081b4:	f000 fa38 	bl	8008628 <HAL_TIM_OC_DelayElapsedCallback>
 80081b8:	6878      	ldr	r0, [r7, #4]
 80081ba:	f000 fa47 	bl	800864c <HAL_TIM_PWM_PulseFinishedCallback>
 80081be:	687b      	ldr	r3, [r7, #4]
 80081c0:	2200      	movs	r2, #0
 80081c2:	771a      	strb	r2, [r3, #28]
 80081c4:	687b      	ldr	r3, [r7, #4]
 80081c6:	681b      	ldr	r3, [r3, #0]
 80081c8:	691b      	ldr	r3, [r3, #16]
 80081ca:	f003 0308 	and.w	r3, r3, #8
 80081ce:	2b08      	cmp	r3, #8
 80081d0:	d122      	bne.n	8008218 <HAL_TIM_IRQHandler+0x104>
 80081d2:	687b      	ldr	r3, [r7, #4]
 80081d4:	681b      	ldr	r3, [r3, #0]
 80081d6:	68db      	ldr	r3, [r3, #12]
 80081d8:	f003 0308 	and.w	r3, r3, #8
 80081dc:	2b08      	cmp	r3, #8
 80081de:	d11b      	bne.n	8008218 <HAL_TIM_IRQHandler+0x104>
 80081e0:	687b      	ldr	r3, [r7, #4]
 80081e2:	681b      	ldr	r3, [r3, #0]
 80081e4:	f06f 0208 	mvn.w	r2, #8
 80081e8:	611a      	str	r2, [r3, #16]
 80081ea:	687b      	ldr	r3, [r7, #4]
 80081ec:	2204      	movs	r2, #4
 80081ee:	771a      	strb	r2, [r3, #28]
 80081f0:	687b      	ldr	r3, [r7, #4]
 80081f2:	681b      	ldr	r3, [r3, #0]
 80081f4:	69db      	ldr	r3, [r3, #28]
 80081f6:	f003 0303 	and.w	r3, r3, #3
 80081fa:	2b00      	cmp	r3, #0
 80081fc:	d003      	beq.n	8008206 <HAL_TIM_IRQHandler+0xf2>
 80081fe:	6878      	ldr	r0, [r7, #4]
 8008200:	f000 fa1b 	bl	800863a <HAL_TIM_IC_CaptureCallback>
 8008204:	e005      	b.n	8008212 <HAL_TIM_IRQHandler+0xfe>
 8008206:	6878      	ldr	r0, [r7, #4]
 8008208:	f000 fa0e 	bl	8008628 <HAL_TIM_OC_DelayElapsedCallback>
 800820c:	6878      	ldr	r0, [r7, #4]
 800820e:	f000 fa1d 	bl	800864c <HAL_TIM_PWM_PulseFinishedCallback>
 8008212:	687b      	ldr	r3, [r7, #4]
 8008214:	2200      	movs	r2, #0
 8008216:	771a      	strb	r2, [r3, #28]
 8008218:	687b      	ldr	r3, [r7, #4]
 800821a:	681b      	ldr	r3, [r3, #0]
 800821c:	691b      	ldr	r3, [r3, #16]
 800821e:	f003 0310 	and.w	r3, r3, #16
 8008222:	2b10      	cmp	r3, #16
 8008224:	d122      	bne.n	800826c <HAL_TIM_IRQHandler+0x158>
 8008226:	687b      	ldr	r3, [r7, #4]
 8008228:	681b      	ldr	r3, [r3, #0]
 800822a:	68db      	ldr	r3, [r3, #12]
 800822c:	f003 0310 	and.w	r3, r3, #16
 8008230:	2b10      	cmp	r3, #16
 8008232:	d11b      	bne.n	800826c <HAL_TIM_IRQHandler+0x158>
 8008234:	687b      	ldr	r3, [r7, #4]
 8008236:	681b      	ldr	r3, [r3, #0]
 8008238:	f06f 0210 	mvn.w	r2, #16
 800823c:	611a      	str	r2, [r3, #16]
 800823e:	687b      	ldr	r3, [r7, #4]
 8008240:	2208      	movs	r2, #8
 8008242:	771a      	strb	r2, [r3, #28]
 8008244:	687b      	ldr	r3, [r7, #4]
 8008246:	681b      	ldr	r3, [r3, #0]
 8008248:	69db      	ldr	r3, [r3, #28]
 800824a:	f403 7340 	and.w	r3, r3, #768	; 0x300
 800824e:	2b00      	cmp	r3, #0
 8008250:	d003      	beq.n	800825a <HAL_TIM_IRQHandler+0x146>
 8008252:	6878      	ldr	r0, [r7, #4]
 8008254:	f000 f9f1 	bl	800863a <HAL_TIM_IC_CaptureCallback>
 8008258:	e005      	b.n	8008266 <HAL_TIM_IRQHandler+0x152>
 800825a:	6878      	ldr	r0, [r7, #4]
 800825c:	f000 f9e4 	bl	8008628 <HAL_TIM_OC_DelayElapsedCallback>
 8008260:	6878      	ldr	r0, [r7, #4]
 8008262:	f000 f9f3 	bl	800864c <HAL_TIM_PWM_PulseFinishedCallback>
 8008266:	687b      	ldr	r3, [r7, #4]
 8008268:	2200      	movs	r2, #0
 800826a:	771a      	strb	r2, [r3, #28]
 800826c:	687b      	ldr	r3, [r7, #4]
 800826e:	681b      	ldr	r3, [r3, #0]
 8008270:	691b      	ldr	r3, [r3, #16]
 8008272:	f003 0301 	and.w	r3, r3, #1
 8008276:	2b01      	cmp	r3, #1
 8008278:	d10e      	bne.n	8008298 <HAL_TIM_IRQHandler+0x184>
 800827a:	687b      	ldr	r3, [r7, #4]
 800827c:	681b      	ldr	r3, [r3, #0]
 800827e:	68db      	ldr	r3, [r3, #12]
 8008280:	f003 0301 	and.w	r3, r3, #1
 8008284:	2b01      	cmp	r3, #1
 8008286:	d107      	bne.n	8008298 <HAL_TIM_IRQHandler+0x184>
 8008288:	687b      	ldr	r3, [r7, #4]
 800828a:	681b      	ldr	r3, [r3, #0]
 800828c:	f06f 0201 	mvn.w	r2, #1
 8008290:	611a      	str	r2, [r3, #16]
 8008292:	6878      	ldr	r0, [r7, #4]
 8008294:	f7fb fab4 	bl	8003800 <HAL_TIM_PeriodElapsedCallback>
 8008298:	687b      	ldr	r3, [r7, #4]
 800829a:	681b      	ldr	r3, [r3, #0]
 800829c:	691b      	ldr	r3, [r3, #16]
 800829e:	f003 0380 	and.w	r3, r3, #128	; 0x80
 80082a2:	2b80      	cmp	r3, #128	; 0x80
 80082a4:	d10e      	bne.n	80082c4 <HAL_TIM_IRQHandler+0x1b0>
 80082a6:	687b      	ldr	r3, [r7, #4]
 80082a8:	681b      	ldr	r3, [r3, #0]
 80082aa:	68db      	ldr	r3, [r3, #12]
 80082ac:	f003 0380 	and.w	r3, r3, #128	; 0x80
 80082b0:	2b80      	cmp	r3, #128	; 0x80
 80082b2:	d107      	bne.n	80082c4 <HAL_TIM_IRQHandler+0x1b0>
 80082b4:	687b      	ldr	r3, [r7, #4]
 80082b6:	681b      	ldr	r3, [r3, #0]
 80082b8:	f06f 0280 	mvn.w	r2, #128	; 0x80
 80082bc:	611a      	str	r2, [r3, #16]
 80082be:	6878      	ldr	r0, [r7, #4]
 80082c0:	f000 fce1 	bl	8008c86 <HAL_TIMEx_BreakCallback>
 80082c4:	687b      	ldr	r3, [r7, #4]
 80082c6:	681b      	ldr	r3, [r3, #0]
 80082c8:	691b      	ldr	r3, [r3, #16]
 80082ca:	f003 0340 	and.w	r3, r3, #64	; 0x40
 80082ce:	2b40      	cmp	r3, #64	; 0x40
 80082d0:	d10e      	bne.n	80082f0 <HAL_TIM_IRQHandler+0x1dc>
 80082d2:	687b      	ldr	r3, [r7, #4]
 80082d4:	681b      	ldr	r3, [r3, #0]
 80082d6:	68db      	ldr	r3, [r3, #12]
 80082d8:	f003 0340 	and.w	r3, r3, #64	; 0x40
 80082dc:	2b40      	cmp	r3, #64	; 0x40
 80082de:	d107      	bne.n	80082f0 <HAL_TIM_IRQHandler+0x1dc>
 80082e0:	687b      	ldr	r3, [r7, #4]
 80082e2:	681b      	ldr	r3, [r3, #0]
 80082e4:	f06f 0240 	mvn.w	r2, #64	; 0x40
 80082e8:	611a      	str	r2, [r3, #16]
 80082ea:	6878      	ldr	r0, [r7, #4]
 80082ec:	f000 f9b7 	bl	800865e <HAL_TIM_TriggerCallback>
 80082f0:	687b      	ldr	r3, [r7, #4]
 80082f2:	681b      	ldr	r3, [r3, #0]
 80082f4:	691b      	ldr	r3, [r3, #16]
 80082f6:	f003 0320 	and.w	r3, r3, #32
 80082fa:	2b20      	cmp	r3, #32
 80082fc:	d10e      	bne.n	800831c <HAL_TIM_IRQHandler+0x208>
 80082fe:	687b      	ldr	r3, [r7, #4]
 8008300:	681b      	ldr	r3, [r3, #0]
 8008302:	68db      	ldr	r3, [r3, #12]
 8008304:	f003 0320 	and.w	r3, r3, #32
 8008308:	2b20      	cmp	r3, #32
 800830a:	d107      	bne.n	800831c <HAL_TIM_IRQHandler+0x208>
 800830c:	687b      	ldr	r3, [r7, #4]
 800830e:	681b      	ldr	r3, [r3, #0]
 8008310:	f06f 0220 	mvn.w	r2, #32
 8008314:	611a      	str	r2, [r3, #16]
 8008316:	6878      	ldr	r0, [r7, #4]
 8008318:	f000 fcac 	bl	8008c74 <HAL_TIMEx_CommutCallback>
 800831c:	bf00      	nop
 800831e:	3708      	adds	r7, #8
 8008320:	46bd      	mov	sp, r7
 8008322:	bd80      	pop	{r7, pc}

08008324 <HAL_TIM_PWM_ConfigChannel>:
 8008324:	b580      	push	{r7, lr}
 8008326:	b084      	sub	sp, #16
 8008328:	af00      	add	r7, sp, #0
 800832a:	60f8      	str	r0, [r7, #12]
 800832c:	60b9      	str	r1, [r7, #8]
 800832e:	607a      	str	r2, [r7, #4]
 8008330:	68fb      	ldr	r3, [r7, #12]
 8008332:	f893 303c 	ldrb.w	r3, [r3, #60]	; 0x3c
 8008336:	2b01      	cmp	r3, #1
 8008338:	d101      	bne.n	800833e <HAL_TIM_PWM_ConfigChannel+0x1a>
 800833a:	2302      	movs	r3, #2
 800833c:	e0ac      	b.n	8008498 <HAL_TIM_PWM_ConfigChannel+0x174>
 800833e:	68fb      	ldr	r3, [r7, #12]
 8008340:	2201      	movs	r2, #1
 8008342:	f883 203c 	strb.w	r2, [r3, #60]	; 0x3c
 8008346:	687b      	ldr	r3, [r7, #4]
 8008348:	2b0c      	cmp	r3, #12
 800834a:	f200 809f 	bhi.w	800848c <HAL_TIM_PWM_ConfigChannel+0x168>
 800834e:	a201      	add	r2, pc, #4	; (adr r2, 8008354 <HAL_TIM_PWM_ConfigChannel+0x30>)
 8008350:	f852 f023 	ldr.w	pc, [r2, r3, lsl #2]
 8008354:	08008389 	.word	0x08008389
 8008358:	0800848d 	.word	0x0800848d
 800835c:	0800848d 	.word	0x0800848d
 8008360:	0800848d 	.word	0x0800848d
 8008364:	080083c9 	.word	0x080083c9
 8008368:	0800848d 	.word	0x0800848d
 800836c:	0800848d 	.word	0x0800848d
 8008370:	0800848d 	.word	0x0800848d
 8008374:	0800840b 	.word	0x0800840b
 8008378:	0800848d 	.word	0x0800848d
 800837c:	0800848d 	.word	0x0800848d
 8008380:	0800848d 	.word	0x0800848d
 8008384:	0800844b 	.word	0x0800844b
 8008388:	68fb      	ldr	r3, [r7, #12]
 800838a:	681b      	ldr	r3, [r3, #0]
 800838c:	68b9      	ldr	r1, [r7, #8]
 800838e:	4618      	mov	r0, r3
 8008390:	f000 f9d0 	bl	8008734 <TIM_OC1_SetConfig>
 8008394:	68fb      	ldr	r3, [r7, #12]
 8008396:	681b      	ldr	r3, [r3, #0]
 8008398:	699a      	ldr	r2, [r3, #24]
 800839a:	68fb      	ldr	r3, [r7, #12]
 800839c:	681b      	ldr	r3, [r3, #0]
 800839e:	f042 0208 	orr.w	r2, r2, #8
 80083a2:	619a      	str	r2, [r3, #24]
 80083a4:	68fb      	ldr	r3, [r7, #12]
 80083a6:	681b      	ldr	r3, [r3, #0]
 80083a8:	699a      	ldr	r2, [r3, #24]
 80083aa:	68fb      	ldr	r3, [r7, #12]
 80083ac:	681b      	ldr	r3, [r3, #0]
 80083ae:	f022 0204 	bic.w	r2, r2, #4
 80083b2:	619a      	str	r2, [r3, #24]
 80083b4:	68fb      	ldr	r3, [r7, #12]
 80083b6:	681b      	ldr	r3, [r3, #0]
 80083b8:	6999      	ldr	r1, [r3, #24]
 80083ba:	68bb      	ldr	r3, [r7, #8]
 80083bc:	691a      	ldr	r2, [r3, #16]
 80083be:	68fb      	ldr	r3, [r7, #12]
 80083c0:	681b      	ldr	r3, [r3, #0]
 80083c2:	430a      	orrs	r2, r1
 80083c4:	619a      	str	r2, [r3, #24]
 80083c6:	e062      	b.n	800848e <HAL_TIM_PWM_ConfigChannel+0x16a>
 80083c8:	68fb      	ldr	r3, [r7, #12]
 80083ca:	681b      	ldr	r3, [r3, #0]
 80083cc:	68b9      	ldr	r1, [r7, #8]
 80083ce:	4618      	mov	r0, r3
 80083d0:	f000 fa16 	bl	8008800 <TIM_OC2_SetConfig>
 80083d4:	68fb      	ldr	r3, [r7, #12]
 80083d6:	681b      	ldr	r3, [r3, #0]
 80083d8:	699a      	ldr	r2, [r3, #24]
 80083da:	68fb      	ldr	r3, [r7, #12]
 80083dc:	681b      	ldr	r3, [r3, #0]
 80083de:	f442 6200 	orr.w	r2, r2, #2048	; 0x800
 80083e2:	619a      	str	r2, [r3, #24]
 80083e4:	68fb      	ldr	r3, [r7, #12]
 80083e6:	681b      	ldr	r3, [r3, #0]
 80083e8:	699a      	ldr	r2, [r3, #24]
 80083ea:	68fb      	ldr	r3, [r7, #12]
 80083ec:	681b      	ldr	r3, [r3, #0]
 80083ee:	f422 6280 	bic.w	r2, r2, #1024	; 0x400
 80083f2:	619a      	str	r2, [r3, #24]
 80083f4:	68fb      	ldr	r3, [r7, #12]
 80083f6:	681b      	ldr	r3, [r3, #0]
 80083f8:	6999      	ldr	r1, [r3, #24]
 80083fa:	68bb      	ldr	r3, [r7, #8]
 80083fc:	691b      	ldr	r3, [r3, #16]
 80083fe:	021a      	lsls	r2, r3, #8
 8008400:	68fb      	ldr	r3, [r7, #12]
 8008402:	681b      	ldr	r3, [r3, #0]
 8008404:	430a      	orrs	r2, r1
 8008406:	619a      	str	r2, [r3, #24]
 8008408:	e041      	b.n	800848e <HAL_TIM_PWM_ConfigChannel+0x16a>
 800840a:	68fb      	ldr	r3, [r7, #12]
 800840c:	681b      	ldr	r3, [r3, #0]
 800840e:	68b9      	ldr	r1, [r7, #8]
 8008410:	4618      	mov	r0, r3
 8008412:	f000 fa5f 	bl	80088d4 <TIM_OC3_SetConfig>
 8008416:	68fb      	ldr	r3, [r7, #12]
 8008418:	681b      	ldr	r3, [r3, #0]
 800841a:	69da      	ldr	r2, [r3, #28]
 800841c:	68fb      	ldr	r3, [r7, #12]
 800841e:	681b      	ldr	r3, [r3, #0]
 8008420:	f042 0208 	orr.w	r2, r2, #8
 8008424:	61da      	str	r2, [r3, #28]
 8008426:	68fb      	ldr	r3, [r7, #12]
 8008428:	681b      	ldr	r3, [r3, #0]
 800842a:	69da      	ldr	r2, [r3, #28]
 800842c:	68fb      	ldr	r3, [r7, #12]
 800842e:	681b      	ldr	r3, [r3, #0]
 8008430:	f022 0204 	bic.w	r2, r2, #4
 8008434:	61da      	str	r2, [r3, #28]
 8008436:	68fb      	ldr	r3, [r7, #12]
 8008438:	681b      	ldr	r3, [r3, #0]
 800843a:	69d9      	ldr	r1, [r3, #28]
 800843c:	68bb      	ldr	r3, [r7, #8]
 800843e:	691a      	ldr	r2, [r3, #16]
 8008440:	68fb      	ldr	r3, [r7, #12]
 8008442:	681b      	ldr	r3, [r3, #0]
 8008444:	430a      	orrs	r2, r1
 8008446:	61da      	str	r2, [r3, #28]
 8008448:	e021      	b.n	800848e <HAL_TIM_PWM_ConfigChannel+0x16a>
 800844a:	68fb      	ldr	r3, [r7, #12]
 800844c:	681b      	ldr	r3, [r3, #0]
 800844e:	68b9      	ldr	r1, [r7, #8]
 8008450:	4618      	mov	r0, r3
 8008452:	f000 faa9 	bl	80089a8 <TIM_OC4_SetConfig>
 8008456:	68fb      	ldr	r3, [r7, #12]
 8008458:	681b      	ldr	r3, [r3, #0]
 800845a:	69da      	ldr	r2, [r3, #28]
 800845c:	68fb      	ldr	r3, [r7, #12]
 800845e:	681b      	ldr	r3, [r3, #0]
 8008460:	f442 6200 	orr.w	r2, r2, #2048	; 0x800
 8008464:	61da      	str	r2, [r3, #28]
 8008466:	68fb      	ldr	r3, [r7, #12]
 8008468:	681b      	ldr	r3, [r3, #0]
 800846a:	69da      	ldr	r2, [r3, #28]
 800846c:	68fb      	ldr	r3, [r7, #12]
 800846e:	681b      	ldr	r3, [r3, #0]
 8008470:	f422 6280 	bic.w	r2, r2, #1024	; 0x400
 8008474:	61da      	str	r2, [r3, #28]
 8008476:	68fb      	ldr	r3, [r7, #12]
 8008478:	681b      	ldr	r3, [r3, #0]
 800847a:	69d9      	ldr	r1, [r3, #28]
 800847c:	68bb      	ldr	r3, [r7, #8]
 800847e:	691b      	ldr	r3, [r3, #16]
 8008480:	021a      	lsls	r2, r3, #8
 8008482:	68fb      	ldr	r3, [r7, #12]
 8008484:	681b      	ldr	r3, [r3, #0]
 8008486:	430a      	orrs	r2, r1
 8008488:	61da      	str	r2, [r3, #28]
 800848a:	e000      	b.n	800848e <HAL_TIM_PWM_ConfigChannel+0x16a>
 800848c:	bf00      	nop
 800848e:	68fb      	ldr	r3, [r7, #12]
 8008490:	2200      	movs	r2, #0
 8008492:	f883 203c 	strb.w	r2, [r3, #60]	; 0x3c
 8008496:	2300      	movs	r3, #0
 8008498:	4618      	mov	r0, r3
 800849a:	3710      	adds	r7, #16
 800849c:	46bd      	mov	sp, r7
 800849e:	bd80      	pop	{r7, pc}

080084a0 <HAL_TIM_ConfigClockSource>:
 80084a0:	b580      	push	{r7, lr}
 80084a2:	b084      	sub	sp, #16
 80084a4:	af00      	add	r7, sp, #0
 80084a6:	6078      	str	r0, [r7, #4]
 80084a8:	6039      	str	r1, [r7, #0]
 80084aa:	687b      	ldr	r3, [r7, #4]
 80084ac:	f893 303c 	ldrb.w	r3, [r3, #60]	; 0x3c
 80084b0:	2b01      	cmp	r3, #1
 80084b2:	d101      	bne.n	80084b8 <HAL_TIM_ConfigClockSource+0x18>
 80084b4:	2302      	movs	r3, #2
 80084b6:	e0b3      	b.n	8008620 <HAL_TIM_ConfigClockSource+0x180>
 80084b8:	687b      	ldr	r3, [r7, #4]
 80084ba:	2201      	movs	r2, #1
 80084bc:	f883 203c 	strb.w	r2, [r3, #60]	; 0x3c
 80084c0:	687b      	ldr	r3, [r7, #4]
 80084c2:	2202      	movs	r2, #2
 80084c4:	f883 203d 	strb.w	r2, [r3, #61]	; 0x3d
 80084c8:	687b      	ldr	r3, [r7, #4]
 80084ca:	681b      	ldr	r3, [r3, #0]
 80084cc:	689b      	ldr	r3, [r3, #8]
 80084ce:	60fb      	str	r3, [r7, #12]
 80084d0:	68fb      	ldr	r3, [r7, #12]
 80084d2:	f023 0377 	bic.w	r3, r3, #119	; 0x77
 80084d6:	60fb      	str	r3, [r7, #12]
 80084d8:	68fb      	ldr	r3, [r7, #12]
 80084da:	f423 437f 	bic.w	r3, r3, #65280	; 0xff00
 80084de:	60fb      	str	r3, [r7, #12]
 80084e0:	687b      	ldr	r3, [r7, #4]
 80084e2:	681b      	ldr	r3, [r3, #0]
 80084e4:	68fa      	ldr	r2, [r7, #12]
 80084e6:	609a      	str	r2, [r3, #8]
 80084e8:	683b      	ldr	r3, [r7, #0]
 80084ea:	681b      	ldr	r3, [r3, #0]
 80084ec:	f5b3 5f00 	cmp.w	r3, #8192	; 0x2000
 80084f0:	d03e      	beq.n	8008570 <HAL_TIM_ConfigClockSource+0xd0>
 80084f2:	f5b3 5f00 	cmp.w	r3, #8192	; 0x2000
 80084f6:	f200 8087 	bhi.w	8008608 <HAL_TIM_ConfigClockSource+0x168>
 80084fa:	f5b3 5f80 	cmp.w	r3, #4096	; 0x1000
 80084fe:	f000 8085 	beq.w	800860c <HAL_TIM_ConfigClockSource+0x16c>
 8008502:	f5b3 5f80 	cmp.w	r3, #4096	; 0x1000
 8008506:	d87f      	bhi.n	8008608 <HAL_TIM_ConfigClockSource+0x168>
 8008508:	2b70      	cmp	r3, #112	; 0x70
 800850a:	d01a      	beq.n	8008542 <HAL_TIM_ConfigClockSource+0xa2>
 800850c:	2b70      	cmp	r3, #112	; 0x70
 800850e:	d87b      	bhi.n	8008608 <HAL_TIM_ConfigClockSource+0x168>
 8008510:	2b60      	cmp	r3, #96	; 0x60
 8008512:	d050      	beq.n	80085b6 <HAL_TIM_ConfigClockSource+0x116>
 8008514:	2b60      	cmp	r3, #96	; 0x60
 8008516:	d877      	bhi.n	8008608 <HAL_TIM_ConfigClockSource+0x168>
 8008518:	2b50      	cmp	r3, #80	; 0x50
 800851a:	d03c      	beq.n	8008596 <HAL_TIM_ConfigClockSource+0xf6>
 800851c:	2b50      	cmp	r3, #80	; 0x50
 800851e:	d873      	bhi.n	8008608 <HAL_TIM_ConfigClockSource+0x168>
 8008520:	2b40      	cmp	r3, #64	; 0x40
 8008522:	d058      	beq.n	80085d6 <HAL_TIM_ConfigClockSource+0x136>
 8008524:	2b40      	cmp	r3, #64	; 0x40
 8008526:	d86f      	bhi.n	8008608 <HAL_TIM_ConfigClockSource+0x168>
 8008528:	2b30      	cmp	r3, #48	; 0x30
 800852a:	d064      	beq.n	80085f6 <HAL_TIM_ConfigClockSource+0x156>
 800852c:	2b30      	cmp	r3, #48	; 0x30
 800852e:	d86b      	bhi.n	8008608 <HAL_TIM_ConfigClockSource+0x168>
 8008530:	2b20      	cmp	r3, #32
 8008532:	d060      	beq.n	80085f6 <HAL_TIM_ConfigClockSource+0x156>
 8008534:	2b20      	cmp	r3, #32
 8008536:	d867      	bhi.n	8008608 <HAL_TIM_ConfigClockSource+0x168>
 8008538:	2b00      	cmp	r3, #0
 800853a:	d05c      	beq.n	80085f6 <HAL_TIM_ConfigClockSource+0x156>
 800853c:	2b10      	cmp	r3, #16
 800853e:	d05a      	beq.n	80085f6 <HAL_TIM_ConfigClockSource+0x156>
 8008540:	e062      	b.n	8008608 <HAL_TIM_ConfigClockSource+0x168>
 8008542:	687b      	ldr	r3, [r7, #4]
 8008544:	6818      	ldr	r0, [r3, #0]
 8008546:	683b      	ldr	r3, [r7, #0]
 8008548:	6899      	ldr	r1, [r3, #8]
 800854a:	683b      	ldr	r3, [r7, #0]
 800854c:	685a      	ldr	r2, [r3, #4]
 800854e:	683b      	ldr	r3, [r7, #0]
 8008550:	68db      	ldr	r3, [r3, #12]
 8008552:	f000 faee 	bl	8008b32 <TIM_ETR_SetConfig>
 8008556:	687b      	ldr	r3, [r7, #4]
 8008558:	681b      	ldr	r3, [r3, #0]
 800855a:	689b      	ldr	r3, [r3, #8]
 800855c:	60fb      	str	r3, [r7, #12]
 800855e:	68fb      	ldr	r3, [r7, #12]
 8008560:	f043 0377 	orr.w	r3, r3, #119	; 0x77
 8008564:	60fb      	str	r3, [r7, #12]
 8008566:	687b      	ldr	r3, [r7, #4]
 8008568:	681b      	ldr	r3, [r3, #0]
 800856a:	68fa      	ldr	r2, [r7, #12]
 800856c:	609a      	str	r2, [r3, #8]
 800856e:	e04e      	b.n	800860e <HAL_TIM_ConfigClockSource+0x16e>
 8008570:	687b      	ldr	r3, [r7, #4]
 8008572:	6818      	ldr	r0, [r3, #0]
 8008574:	683b      	ldr	r3, [r7, #0]
 8008576:	6899      	ldr	r1, [r3, #8]
 8008578:	683b      	ldr	r3, [r7, #0]
 800857a:	685a      	ldr	r2, [r3, #4]
 800857c:	683b      	ldr	r3, [r7, #0]
 800857e:	68db      	ldr	r3, [r3, #12]
 8008580:	f000 fad7 	bl	8008b32 <TIM_ETR_SetConfig>
 8008584:	687b      	ldr	r3, [r7, #4]
 8008586:	681b      	ldr	r3, [r3, #0]
 8008588:	689a      	ldr	r2, [r3, #8]
 800858a:	687b      	ldr	r3, [r7, #4]
 800858c:	681b      	ldr	r3, [r3, #0]
 800858e:	f442 4280 	orr.w	r2, r2, #16384	; 0x4000
 8008592:	609a      	str	r2, [r3, #8]
 8008594:	e03b      	b.n	800860e <HAL_TIM_ConfigClockSource+0x16e>
 8008596:	687b      	ldr	r3, [r7, #4]
 8008598:	6818      	ldr	r0, [r3, #0]
 800859a:	683b      	ldr	r3, [r7, #0]
 800859c:	6859      	ldr	r1, [r3, #4]
 800859e:	683b      	ldr	r3, [r7, #0]
 80085a0:	68db      	ldr	r3, [r3, #12]
 80085a2:	461a      	mov	r2, r3
 80085a4:	f000 fa4e 	bl	8008a44 <TIM_TI1_ConfigInputStage>
 80085a8:	687b      	ldr	r3, [r7, #4]
 80085aa:	681b      	ldr	r3, [r3, #0]
 80085ac:	2150      	movs	r1, #80	; 0x50
 80085ae:	4618      	mov	r0, r3
 80085b0:	f000 faa5 	bl	8008afe <TIM_ITRx_SetConfig>
 80085b4:	e02b      	b.n	800860e <HAL_TIM_ConfigClockSource+0x16e>
 80085b6:	687b      	ldr	r3, [r7, #4]
 80085b8:	6818      	ldr	r0, [r3, #0]
 80085ba:	683b      	ldr	r3, [r7, #0]
 80085bc:	6859      	ldr	r1, [r3, #4]
 80085be:	683b      	ldr	r3, [r7, #0]
 80085c0:	68db      	ldr	r3, [r3, #12]
 80085c2:	461a      	mov	r2, r3
 80085c4:	f000 fa6c 	bl	8008aa0 <TIM_TI2_ConfigInputStage>
 80085c8:	687b      	ldr	r3, [r7, #4]
 80085ca:	681b      	ldr	r3, [r3, #0]
 80085cc:	2160      	movs	r1, #96	; 0x60
 80085ce:	4618      	mov	r0, r3
 80085d0:	f000 fa95 	bl	8008afe <TIM_ITRx_SetConfig>
 80085d4:	e01b      	b.n	800860e <HAL_TIM_ConfigClockSource+0x16e>
 80085d6:	687b      	ldr	r3, [r7, #4]
 80085d8:	6818      	ldr	r0, [r3, #0]
 80085da:	683b      	ldr	r3, [r7, #0]
 80085dc:	6859      	ldr	r1, [r3, #4]
 80085de:	683b      	ldr	r3, [r7, #0]
 80085e0:	68db      	ldr	r3, [r3, #12]
 80085e2:	461a      	mov	r2, r3
 80085e4:	f000 fa2e 	bl	8008a44 <TIM_TI1_ConfigInputStage>
 80085e8:	687b      	ldr	r3, [r7, #4]
 80085ea:	681b      	ldr	r3, [r3, #0]
 80085ec:	2140      	movs	r1, #64	; 0x40
 80085ee:	4618      	mov	r0, r3
 80085f0:	f000 fa85 	bl	8008afe <TIM_ITRx_SetConfig>
 80085f4:	e00b      	b.n	800860e <HAL_TIM_ConfigClockSource+0x16e>
 80085f6:	687b      	ldr	r3, [r7, #4]
 80085f8:	681a      	ldr	r2, [r3, #0]
 80085fa:	683b      	ldr	r3, [r7, #0]
 80085fc:	681b      	ldr	r3, [r3, #0]
 80085fe:	4619      	mov	r1, r3
 8008600:	4610      	mov	r0, r2
 8008602:	f000 fa7c 	bl	8008afe <TIM_ITRx_SetConfig>
 8008606:	e002      	b.n	800860e <HAL_TIM_ConfigClockSource+0x16e>
 8008608:	bf00      	nop
 800860a:	e000      	b.n	800860e <HAL_TIM_ConfigClockSource+0x16e>
 800860c:	bf00      	nop
 800860e:	687b      	ldr	r3, [r7, #4]
 8008610:	2201      	movs	r2, #1
 8008612:	f883 203d 	strb.w	r2, [r3, #61]	; 0x3d
 8008616:	687b      	ldr	r3, [r7, #4]
 8008618:	2200      	movs	r2, #0
 800861a:	f883 203c 	strb.w	r2, [r3, #60]	; 0x3c
 800861e:	2300      	movs	r3, #0
 8008620:	4618      	mov	r0, r3
 8008622:	3710      	adds	r7, #16
 8008624:	46bd      	mov	sp, r7
 8008626:	bd80      	pop	{r7, pc}

08008628 <HAL_TIM_OC_DelayElapsedCallback>:
 8008628:	b480      	push	{r7}
 800862a:	b083      	sub	sp, #12
 800862c:	af00      	add	r7, sp, #0
 800862e:	6078      	str	r0, [r7, #4]
 8008630:	bf00      	nop
 8008632:	370c      	adds	r7, #12
 8008634:	46bd      	mov	sp, r7
 8008636:	bc80      	pop	{r7}
 8008638:	4770      	bx	lr

0800863a <HAL_TIM_IC_CaptureCallback>:
 800863a:	b480      	push	{r7}
 800863c:	b083      	sub	sp, #12
 800863e:	af00      	add	r7, sp, #0
 8008640:	6078      	str	r0, [r7, #4]
 8008642:	bf00      	nop
 8008644:	370c      	adds	r7, #12
 8008646:	46bd      	mov	sp, r7
 8008648:	bc80      	pop	{r7}
 800864a:	4770      	bx	lr

0800864c <HAL_TIM_PWM_PulseFinishedCallback>:
 800864c:	b480      	push	{r7}
 800864e:	b083      	sub	sp, #12
 8008650:	af00      	add	r7, sp, #0
 8008652:	6078      	str	r0, [r7, #4]
 8008654:	bf00      	nop
 8008656:	370c      	adds	r7, #12
 8008658:	46bd      	mov	sp, r7
 800865a:	bc80      	pop	{r7}
 800865c:	4770      	bx	lr

0800865e <HAL_TIM_TriggerCallback>:
 800865e:	b480      	push	{r7}
 8008660:	b083      	sub	sp, #12
 8008662:	af00      	add	r7, sp, #0
 8008664:	6078      	str	r0, [r7, #4]
 8008666:	bf00      	nop
 8008668:	370c      	adds	r7, #12
 800866a:	46bd      	mov	sp, r7
 800866c:	bc80      	pop	{r7}
 800866e:	4770      	bx	lr

08008670 <TIM_Base_SetConfig>:
 8008670:	b480      	push	{r7}
 8008672:	b085      	sub	sp, #20
 8008674:	af00      	add	r7, sp, #0
 8008676:	6078      	str	r0, [r7, #4]
 8008678:	6039      	str	r1, [r7, #0]
 800867a:	687b      	ldr	r3, [r7, #4]
 800867c:	681b      	ldr	r3, [r3, #0]
 800867e:	60fb      	str	r3, [r7, #12]
 8008680:	687b      	ldr	r3, [r7, #4]
 8008682:	4a29      	ldr	r2, [pc, #164]	; (8008728 <TIM_Base_SetConfig+0xb8>)
 8008684:	4293      	cmp	r3, r2
 8008686:	d00b      	beq.n	80086a0 <TIM_Base_SetConfig+0x30>
 8008688:	687b      	ldr	r3, [r7, #4]
 800868a:	f1b3 4f80 	cmp.w	r3, #1073741824	; 0x40000000
 800868e:	d007      	beq.n	80086a0 <TIM_Base_SetConfig+0x30>
 8008690:	687b      	ldr	r3, [r7, #4]
 8008692:	4a26      	ldr	r2, [pc, #152]	; (800872c <TIM_Base_SetConfig+0xbc>)
 8008694:	4293      	cmp	r3, r2
 8008696:	d003      	beq.n	80086a0 <TIM_Base_SetConfig+0x30>
 8008698:	687b      	ldr	r3, [r7, #4]
 800869a:	4a25      	ldr	r2, [pc, #148]	; (8008730 <TIM_Base_SetConfig+0xc0>)
 800869c:	4293      	cmp	r3, r2
 800869e:	d108      	bne.n	80086b2 <TIM_Base_SetConfig+0x42>
 80086a0:	68fb      	ldr	r3, [r7, #12]
 80086a2:	f023 0370 	bic.w	r3, r3, #112	; 0x70
 80086a6:	60fb      	str	r3, [r7, #12]
 80086a8:	683b      	ldr	r3, [r7, #0]
 80086aa:	685b      	ldr	r3, [r3, #4]
 80086ac:	68fa      	ldr	r2, [r7, #12]
 80086ae:	4313      	orrs	r3, r2
 80086b0:	60fb      	str	r3, [r7, #12]
 80086b2:	687b      	ldr	r3, [r7, #4]
 80086b4:	4a1c      	ldr	r2, [pc, #112]	; (8008728 <TIM_Base_SetConfig+0xb8>)
 80086b6:	4293      	cmp	r3, r2
 80086b8:	d00b      	beq.n	80086d2 <TIM_Base_SetConfig+0x62>
 80086ba:	687b      	ldr	r3, [r7, #4]
 80086bc:	f1b3 4f80 	cmp.w	r3, #1073741824	; 0x40000000
 80086c0:	d007      	beq.n	80086d2 <TIM_Base_SetConfig+0x62>
 80086c2:	687b      	ldr	r3, [r7, #4]
 80086c4:	4a19      	ldr	r2, [pc, #100]	; (800872c <TIM_Base_SetConfig+0xbc>)
 80086c6:	4293      	cmp	r3, r2
 80086c8:	d003      	beq.n	80086d2 <TIM_Base_SetConfig+0x62>
 80086ca:	687b      	ldr	r3, [r7, #4]
 80086cc:	4a18      	ldr	r2, [pc, #96]	; (8008730 <TIM_Base_SetConfig+0xc0>)
 80086ce:	4293      	cmp	r3, r2
 80086d0:	d108      	bne.n	80086e4 <TIM_Base_SetConfig+0x74>
 80086d2:	68fb      	ldr	r3, [r7, #12]
 80086d4:	f423 7340 	bic.w	r3, r3, #768	; 0x300
 80086d8:	60fb      	str	r3, [r7, #12]
 80086da:	683b      	ldr	r3, [r7, #0]
 80086dc:	68db      	ldr	r3, [r3, #12]
 80086de:	68fa      	ldr	r2, [r7, #12]
 80086e0:	4313      	orrs	r3, r2
 80086e2:	60fb      	str	r3, [r7, #12]
 80086e4:	68fb      	ldr	r3, [r7, #12]
 80086e6:	f023 0280 	bic.w	r2, r3, #128	; 0x80
 80086ea:	683b      	ldr	r3, [r7, #0]
 80086ec:	695b      	ldr	r3, [r3, #20]
 80086ee:	4313      	orrs	r3, r2
 80086f0:	60fb      	str	r3, [r7, #12]
 80086f2:	687b      	ldr	r3, [r7, #4]
 80086f4:	68fa      	ldr	r2, [r7, #12]
 80086f6:	601a      	str	r2, [r3, #0]
 80086f8:	683b      	ldr	r3, [r7, #0]
 80086fa:	689a      	ldr	r2, [r3, #8]
 80086fc:	687b      	ldr	r3, [r7, #4]
 80086fe:	62da      	str	r2, [r3, #44]	; 0x2c
 8008700:	683b      	ldr	r3, [r7, #0]
 8008702:	681a      	ldr	r2, [r3, #0]
 8008704:	687b      	ldr	r3, [r7, #4]
 8008706:	629a      	str	r2, [r3, #40]	; 0x28
 8008708:	687b      	ldr	r3, [r7, #4]
 800870a:	4a07      	ldr	r2, [pc, #28]	; (8008728 <TIM_Base_SetConfig+0xb8>)
 800870c:	4293      	cmp	r3, r2
 800870e:	d103      	bne.n	8008718 <TIM_Base_SetConfig+0xa8>
 8008710:	683b      	ldr	r3, [r7, #0]
 8008712:	691a      	ldr	r2, [r3, #16]
 8008714:	687b      	ldr	r3, [r7, #4]
 8008716:	631a      	str	r2, [r3, #48]	; 0x30
 8008718:	687b      	ldr	r3, [r7, #4]
 800871a:	2201      	movs	r2, #1
 800871c:	615a      	str	r2, [r3, #20]
 800871e:	bf00      	nop
 8008720:	3714      	adds	r7, #20
 8008722:	46bd      	mov	sp, r7
 8008724:	bc80      	pop	{r7}
 8008726:	4770      	bx	lr
 8008728:	40012c00 	.word	0x40012c00
 800872c:	40000400 	.word	0x40000400
 8008730:	40000800 	.word	0x40000800

08008734 <TIM_OC1_SetConfig>:
 8008734:	b480      	push	{r7}
 8008736:	b087      	sub	sp, #28
 8008738:	af00      	add	r7, sp, #0
 800873a:	6078      	str	r0, [r7, #4]
 800873c:	6039      	str	r1, [r7, #0]
 800873e:	687b      	ldr	r3, [r7, #4]
 8008740:	6a1b      	ldr	r3, [r3, #32]
 8008742:	f023 0201 	bic.w	r2, r3, #1
 8008746:	687b      	ldr	r3, [r7, #4]
 8008748:	621a      	str	r2, [r3, #32]
 800874a:	687b      	ldr	r3, [r7, #4]
 800874c:	6a1b      	ldr	r3, [r3, #32]
 800874e:	617b      	str	r3, [r7, #20]
 8008750:	687b      	ldr	r3, [r7, #4]
 8008752:	685b      	ldr	r3, [r3, #4]
 8008754:	613b      	str	r3, [r7, #16]
 8008756:	687b      	ldr	r3, [r7, #4]
 8008758:	699b      	ldr	r3, [r3, #24]
 800875a:	60fb      	str	r3, [r7, #12]
 800875c:	68fb      	ldr	r3, [r7, #12]
 800875e:	f023 0370 	bic.w	r3, r3, #112	; 0x70
 8008762:	60fb      	str	r3, [r7, #12]
 8008764:	68fb      	ldr	r3, [r7, #12]
 8008766:	f023 0303 	bic.w	r3, r3, #3
 800876a:	60fb      	str	r3, [r7, #12]
 800876c:	683b      	ldr	r3, [r7, #0]
 800876e:	681b      	ldr	r3, [r3, #0]
 8008770:	68fa      	ldr	r2, [r7, #12]
 8008772:	4313      	orrs	r3, r2
 8008774:	60fb      	str	r3, [r7, #12]
 8008776:	697b      	ldr	r3, [r7, #20]
 8008778:	f023 0302 	bic.w	r3, r3, #2
 800877c:	617b      	str	r3, [r7, #20]
 800877e:	683b      	ldr	r3, [r7, #0]
 8008780:	689b      	ldr	r3, [r3, #8]
 8008782:	697a      	ldr	r2, [r7, #20]
 8008784:	4313      	orrs	r3, r2
 8008786:	617b      	str	r3, [r7, #20]
 8008788:	687b      	ldr	r3, [r7, #4]
 800878a:	4a1c      	ldr	r2, [pc, #112]	; (80087fc <TIM_OC1_SetConfig+0xc8>)
 800878c:	4293      	cmp	r3, r2
 800878e:	d10c      	bne.n	80087aa <TIM_OC1_SetConfig+0x76>
 8008790:	697b      	ldr	r3, [r7, #20]
 8008792:	f023 0308 	bic.w	r3, r3, #8
 8008796:	617b      	str	r3, [r7, #20]
 8008798:	683b      	ldr	r3, [r7, #0]
 800879a:	68db      	ldr	r3, [r3, #12]
 800879c:	697a      	ldr	r2, [r7, #20]
 800879e:	4313      	orrs	r3, r2
 80087a0:	617b      	str	r3, [r7, #20]
 80087a2:	697b      	ldr	r3, [r7, #20]
 80087a4:	f023 0304 	bic.w	r3, r3, #4
 80087a8:	617b      	str	r3, [r7, #20]
 80087aa:	687b      	ldr	r3, [r7, #4]
 80087ac:	4a13      	ldr	r2, [pc, #76]	; (80087fc <TIM_OC1_SetConfig+0xc8>)
 80087ae:	4293      	cmp	r3, r2
 80087b0:	d111      	bne.n	80087d6 <TIM_OC1_SetConfig+0xa2>
 80087b2:	693b      	ldr	r3, [r7, #16]
 80087b4:	f423 7380 	bic.w	r3, r3, #256	; 0x100
 80087b8:	613b      	str	r3, [r7, #16]
 80087ba:	693b      	ldr	r3, [r7, #16]
 80087bc:	f423 7300 	bic.w	r3, r3, #512	; 0x200
 80087c0:	613b      	str	r3, [r7, #16]
 80087c2:	683b      	ldr	r3, [r7, #0]
 80087c4:	695b      	ldr	r3, [r3, #20]
 80087c6:	693a      	ldr	r2, [r7, #16]
 80087c8:	4313      	orrs	r3, r2
 80087ca:	613b      	str	r3, [r7, #16]
 80087cc:	683b      	ldr	r3, [r7, #0]
 80087ce:	699b      	ldr	r3, [r3, #24]
 80087d0:	693a      	ldr	r2, [r7, #16]
 80087d2:	4313      	orrs	r3, r2
 80087d4:	613b      	str	r3, [r7, #16]
 80087d6:	687b      	ldr	r3, [r7, #4]
 80087d8:	693a      	ldr	r2, [r7, #16]
 80087da:	605a      	str	r2, [r3, #4]
 80087dc:	687b      	ldr	r3, [r7, #4]
 80087de:	68fa      	ldr	r2, [r7, #12]
 80087e0:	619a      	str	r2, [r3, #24]
 80087e2:	683b      	ldr	r3, [r7, #0]
 80087e4:	685a      	ldr	r2, [r3, #4]
 80087e6:	687b      	ldr	r3, [r7, #4]
 80087e8:	635a      	str	r2, [r3, #52]	; 0x34
 80087ea:	687b      	ldr	r3, [r7, #4]
 80087ec:	697a      	ldr	r2, [r7, #20]
 80087ee:	621a      	str	r2, [r3, #32]
 80087f0:	bf00      	nop
 80087f2:	371c      	adds	r7, #28
 80087f4:	46bd      	mov	sp, r7
 80087f6:	bc80      	pop	{r7}
 80087f8:	4770      	bx	lr
 80087fa:	bf00      	nop
 80087fc:	40012c00 	.word	0x40012c00

08008800 <TIM_OC2_SetConfig>:
 8008800:	b480      	push	{r7}
 8008802:	b087      	sub	sp, #28
 8008804:	af00      	add	r7, sp, #0
 8008806:	6078      	str	r0, [r7, #4]
 8008808:	6039      	str	r1, [r7, #0]
 800880a:	687b      	ldr	r3, [r7, #4]
 800880c:	6a1b      	ldr	r3, [r3, #32]
 800880e:	f023 0210 	bic.w	r2, r3, #16
 8008812:	687b      	ldr	r3, [r7, #4]
 8008814:	621a      	str	r2, [r3, #32]
 8008816:	687b      	ldr	r3, [r7, #4]
 8008818:	6a1b      	ldr	r3, [r3, #32]
 800881a:	617b      	str	r3, [r7, #20]
 800881c:	687b      	ldr	r3, [r7, #4]
 800881e:	685b      	ldr	r3, [r3, #4]
 8008820:	613b      	str	r3, [r7, #16]
 8008822:	687b      	ldr	r3, [r7, #4]
 8008824:	699b      	ldr	r3, [r3, #24]
 8008826:	60fb      	str	r3, [r7, #12]
 8008828:	68fb      	ldr	r3, [r7, #12]
 800882a:	f423 43e0 	bic.w	r3, r3, #28672	; 0x7000
 800882e:	60fb      	str	r3, [r7, #12]
 8008830:	68fb      	ldr	r3, [r7, #12]
 8008832:	f423 7340 	bic.w	r3, r3, #768	; 0x300
 8008836:	60fb      	str	r3, [r7, #12]
 8008838:	683b      	ldr	r3, [r7, #0]
 800883a:	681b      	ldr	r3, [r3, #0]
 800883c:	021b      	lsls	r3, r3, #8
 800883e:	68fa      	ldr	r2, [r7, #12]
 8008840:	4313      	orrs	r3, r2
 8008842:	60fb      	str	r3, [r7, #12]
 8008844:	697b      	ldr	r3, [r7, #20]
 8008846:	f023 0320 	bic.w	r3, r3, #32
 800884a:	617b      	str	r3, [r7, #20]
 800884c:	683b      	ldr	r3, [r7, #0]
 800884e:	689b      	ldr	r3, [r3, #8]
 8008850:	011b      	lsls	r3, r3, #4
 8008852:	697a      	ldr	r2, [r7, #20]
 8008854:	4313      	orrs	r3, r2
 8008856:	617b      	str	r3, [r7, #20]
 8008858:	687b      	ldr	r3, [r7, #4]
 800885a:	4a1d      	ldr	r2, [pc, #116]	; (80088d0 <TIM_OC2_SetConfig+0xd0>)
 800885c:	4293      	cmp	r3, r2
 800885e:	d10d      	bne.n	800887c <TIM_OC2_SetConfig+0x7c>
 8008860:	697b      	ldr	r3, [r7, #20]
 8008862:	f023 0380 	bic.w	r3, r3, #128	; 0x80
 8008866:	617b      	str	r3, [r7, #20]
 8008868:	683b      	ldr	r3, [r7, #0]
 800886a:	68db      	ldr	r3, [r3, #12]
 800886c:	011b      	lsls	r3, r3, #4
 800886e:	697a      	ldr	r2, [r7, #20]
 8008870:	4313      	orrs	r3, r2
 8008872:	617b      	str	r3, [r7, #20]
 8008874:	697b      	ldr	r3, [r7, #20]
 8008876:	f023 0340 	bic.w	r3, r3, #64	; 0x40
 800887a:	617b      	str	r3, [r7, #20]
 800887c:	687b      	ldr	r3, [r7, #4]
 800887e:	4a14      	ldr	r2, [pc, #80]	; (80088d0 <TIM_OC2_SetConfig+0xd0>)
 8008880:	4293      	cmp	r3, r2
 8008882:	d113      	bne.n	80088ac <TIM_OC2_SetConfig+0xac>
 8008884:	693b      	ldr	r3, [r7, #16]
 8008886:	f423 6380 	bic.w	r3, r3, #1024	; 0x400
 800888a:	613b      	str	r3, [r7, #16]
 800888c:	693b      	ldr	r3, [r7, #16]
 800888e:	f423 6300 	bic.w	r3, r3, #2048	; 0x800
 8008892:	613b      	str	r3, [r7, #16]
 8008894:	683b      	ldr	r3, [r7, #0]
 8008896:	695b      	ldr	r3, [r3, #20]
 8008898:	009b      	lsls	r3, r3, #2
 800889a:	693a      	ldr	r2, [r7, #16]
 800889c:	4313      	orrs	r3, r2
 800889e:	613b      	str	r3, [r7, #16]
 80088a0:	683b      	ldr	r3, [r7, #0]
 80088a2:	699b      	ldr	r3, [r3, #24]
 80088a4:	009b      	lsls	r3, r3, #2
 80088a6:	693a      	ldr	r2, [r7, #16]
 80088a8:	4313      	orrs	r3, r2
 80088aa:	613b      	str	r3, [r7, #16]
 80088ac:	687b      	ldr	r3, [r7, #4]
 80088ae:	693a      	ldr	r2, [r7, #16]
 80088b0:	605a      	str	r2, [r3, #4]
 80088b2:	687b      	ldr	r3, [r7, #4]
 80088b4:	68fa      	ldr	r2, [r7, #12]
 80088b6:	619a      	str	r2, [r3, #24]
 80088b8:	683b      	ldr	r3, [r7, #0]
 80088ba:	685a      	ldr	r2, [r3, #4]
 80088bc:	687b      	ldr	r3, [r7, #4]
 80088be:	639a      	str	r2, [r3, #56]	; 0x38
 80088c0:	687b      	ldr	r3, [r7, #4]
 80088c2:	697a      	ldr	r2, [r7, #20]
 80088c4:	621a      	str	r2, [r3, #32]
 80088c6:	bf00      	nop
 80088c8:	371c      	adds	r7, #28
 80088ca:	46bd      	mov	sp, r7
 80088cc:	bc80      	pop	{r7}
 80088ce:	4770      	bx	lr
 80088d0:	40012c00 	.word	0x40012c00

080088d4 <TIM_OC3_SetConfig>:
 80088d4:	b480      	push	{r7}
 80088d6:	b087      	sub	sp, #28
 80088d8:	af00      	add	r7, sp, #0
 80088da:	6078      	str	r0, [r7, #4]
 80088dc:	6039      	str	r1, [r7, #0]
 80088de:	687b      	ldr	r3, [r7, #4]
 80088e0:	6a1b      	ldr	r3, [r3, #32]
 80088e2:	f423 7280 	bic.w	r2, r3, #256	; 0x100
 80088e6:	687b      	ldr	r3, [r7, #4]
 80088e8:	621a      	str	r2, [r3, #32]
 80088ea:	687b      	ldr	r3, [r7, #4]
 80088ec:	6a1b      	ldr	r3, [r3, #32]
 80088ee:	617b      	str	r3, [r7, #20]
 80088f0:	687b      	ldr	r3, [r7, #4]
 80088f2:	685b      	ldr	r3, [r3, #4]
 80088f4:	613b      	str	r3, [r7, #16]
 80088f6:	687b      	ldr	r3, [r7, #4]
 80088f8:	69db      	ldr	r3, [r3, #28]
 80088fa:	60fb      	str	r3, [r7, #12]
 80088fc:	68fb      	ldr	r3, [r7, #12]
 80088fe:	f023 0370 	bic.w	r3, r3, #112	; 0x70
 8008902:	60fb      	str	r3, [r7, #12]
 8008904:	68fb      	ldr	r3, [r7, #12]
 8008906:	f023 0303 	bic.w	r3, r3, #3
 800890a:	60fb      	str	r3, [r7, #12]
 800890c:	683b      	ldr	r3, [r7, #0]
 800890e:	681b      	ldr	r3, [r3, #0]
 8008910:	68fa      	ldr	r2, [r7, #12]
 8008912:	4313      	orrs	r3, r2
 8008914:	60fb      	str	r3, [r7, #12]
 8008916:	697b      	ldr	r3, [r7, #20]
 8008918:	f423 7300 	bic.w	r3, r3, #512	; 0x200
 800891c:	617b      	str	r3, [r7, #20]
 800891e:	683b      	ldr	r3, [r7, #0]
 8008920:	689b      	ldr	r3, [r3, #8]
 8008922:	021b      	lsls	r3, r3, #8
 8008924:	697a      	ldr	r2, [r7, #20]
 8008926:	4313      	orrs	r3, r2
 8008928:	617b      	str	r3, [r7, #20]
 800892a:	687b      	ldr	r3, [r7, #4]
 800892c:	4a1d      	ldr	r2, [pc, #116]	; (80089a4 <TIM_OC3_SetConfig+0xd0>)
 800892e:	4293      	cmp	r3, r2
 8008930:	d10d      	bne.n	800894e <TIM_OC3_SetConfig+0x7a>
 8008932:	697b      	ldr	r3, [r7, #20]
 8008934:	f423 6300 	bic.w	r3, r3, #2048	; 0x800
 8008938:	617b      	str	r3, [r7, #20]
 800893a:	683b      	ldr	r3, [r7, #0]
 800893c:	68db      	ldr	r3, [r3, #12]
 800893e:	021b      	lsls	r3, r3, #8
 8008940:	697a      	ldr	r2, [r7, #20]
 8008942:	4313      	orrs	r3, r2
 8008944:	617b      	str	r3, [r7, #20]
 8008946:	697b      	ldr	r3, [r7, #20]
 8008948:	f423 6380 	bic.w	r3, r3, #1024	; 0x400
 800894c:	617b      	str	r3, [r7, #20]
 800894e:	687b      	ldr	r3, [r7, #4]
 8008950:	4a14      	ldr	r2, [pc, #80]	; (80089a4 <TIM_OC3_SetConfig+0xd0>)
 8008952:	4293      	cmp	r3, r2
 8008954:	d113      	bne.n	800897e <TIM_OC3_SetConfig+0xaa>
 8008956:	693b      	ldr	r3, [r7, #16]
 8008958:	f423 5380 	bic.w	r3, r3, #4096	; 0x1000
 800895c:	613b      	str	r3, [r7, #16]
 800895e:	693b      	ldr	r3, [r7, #16]
 8008960:	f423 5300 	bic.w	r3, r3, #8192	; 0x2000
 8008964:	613b      	str	r3, [r7, #16]
 8008966:	683b      	ldr	r3, [r7, #0]
 8008968:	695b      	ldr	r3, [r3, #20]
 800896a:	011b      	lsls	r3, r3, #4
 800896c:	693a      	ldr	r2, [r7, #16]
 800896e:	4313      	orrs	r3, r2
 8008970:	613b      	str	r3, [r7, #16]
 8008972:	683b      	ldr	r3, [r7, #0]
 8008974:	699b      	ldr	r3, [r3, #24]
 8008976:	011b      	lsls	r3, r3, #4
 8008978:	693a      	ldr	r2, [r7, #16]
 800897a:	4313      	orrs	r3, r2
 800897c:	613b      	str	r3, [r7, #16]
 800897e:	687b      	ldr	r3, [r7, #4]
 8008980:	693a      	ldr	r2, [r7, #16]
 8008982:	605a      	str	r2, [r3, #4]
 8008984:	687b      	ldr	r3, [r7, #4]
 8008986:	68fa      	ldr	r2, [r7, #12]
 8008988:	61da      	str	r2, [r3, #28]
 800898a:	683b      	ldr	r3, [r7, #0]
 800898c:	685a      	ldr	r2, [r3, #4]
 800898e:	687b      	ldr	r3, [r7, #4]
 8008990:	63da      	str	r2, [r3, #60]	; 0x3c
 8008992:	687b      	ldr	r3, [r7, #4]
 8008994:	697a      	ldr	r2, [r7, #20]
 8008996:	621a      	str	r2, [r3, #32]
 8008998:	bf00      	nop
 800899a:	371c      	adds	r7, #28
 800899c:	46bd      	mov	sp, r7
 800899e:	bc80      	pop	{r7}
 80089a0:	4770      	bx	lr
 80089a2:	bf00      	nop
 80089a4:	40012c00 	.word	0x40012c00

080089a8 <TIM_OC4_SetConfig>:
 80089a8:	b480      	push	{r7}
 80089aa:	b087      	sub	sp, #28
 80089ac:	af00      	add	r7, sp, #0
 80089ae:	6078      	str	r0, [r7, #4]
 80089b0:	6039      	str	r1, [r7, #0]
 80089b2:	687b      	ldr	r3, [r7, #4]
 80089b4:	6a1b      	ldr	r3, [r3, #32]
 80089b6:	f423 5280 	bic.w	r2, r3, #4096	; 0x1000
 80089ba:	687b      	ldr	r3, [r7, #4]
 80089bc:	621a      	str	r2, [r3, #32]
 80089be:	687b      	ldr	r3, [r7, #4]
 80089c0:	6a1b      	ldr	r3, [r3, #32]
 80089c2:	613b      	str	r3, [r7, #16]
 80089c4:	687b      	ldr	r3, [r7, #4]
 80089c6:	685b      	ldr	r3, [r3, #4]
 80089c8:	617b      	str	r3, [r7, #20]
 80089ca:	687b      	ldr	r3, [r7, #4]
 80089cc:	69db      	ldr	r3, [r3, #28]
 80089ce:	60fb      	str	r3, [r7, #12]
 80089d0:	68fb      	ldr	r3, [r7, #12]
 80089d2:	f423 43e0 	bic.w	r3, r3, #28672	; 0x7000
 80089d6:	60fb      	str	r3, [r7, #12]
 80089d8:	68fb      	ldr	r3, [r7, #12]
 80089da:	f423 7340 	bic.w	r3, r3, #768	; 0x300
 80089de:	60fb      	str	r3, [r7, #12]
 80089e0:	683b      	ldr	r3, [r7, #0]
 80089e2:	681b      	ldr	r3, [r3, #0]
 80089e4:	021b      	lsls	r3, r3, #8
 80089e6:	68fa      	ldr	r2, [r7, #12]
 80089e8:	4313      	orrs	r3, r2
 80089ea:	60fb      	str	r3, [r7, #12]
 80089ec:	693b      	ldr	r3, [r7, #16]
 80089ee:	f423 5300 	bic.w	r3, r3, #8192	; 0x2000
 80089f2:	613b      	str	r3, [r7, #16]
 80089f4:	683b      	ldr	r3, [r7, #0]
 80089f6:	689b      	ldr	r3, [r3, #8]
 80089f8:	031b      	lsls	r3, r3, #12
 80089fa:	693a      	ldr	r2, [r7, #16]
 80089fc:	4313      	orrs	r3, r2
 80089fe:	613b      	str	r3, [r7, #16]
 8008a00:	687b      	ldr	r3, [r7, #4]
 8008a02:	4a0f      	ldr	r2, [pc, #60]	; (8008a40 <TIM_OC4_SetConfig+0x98>)
 8008a04:	4293      	cmp	r3, r2
 8008a06:	d109      	bne.n	8008a1c <TIM_OC4_SetConfig+0x74>
 8008a08:	697b      	ldr	r3, [r7, #20]
 8008a0a:	f423 4380 	bic.w	r3, r3, #16384	; 0x4000
 8008a0e:	617b      	str	r3, [r7, #20]
 8008a10:	683b      	ldr	r3, [r7, #0]
 8008a12:	695b      	ldr	r3, [r3, #20]
 8008a14:	019b      	lsls	r3, r3, #6
 8008a16:	697a      	ldr	r2, [r7, #20]
 8008a18:	4313      	orrs	r3, r2
 8008a1a:	617b      	str	r3, [r7, #20]
 8008a1c:	687b      	ldr	r3, [r7, #4]
 8008a1e:	697a      	ldr	r2, [r7, #20]
 8008a20:	605a      	str	r2, [r3, #4]
 8008a22:	687b      	ldr	r3, [r7, #4]
 8008a24:	68fa      	ldr	r2, [r7, #12]
 8008a26:	61da      	str	r2, [r3, #28]
 8008a28:	683b      	ldr	r3, [r7, #0]
 8008a2a:	685a      	ldr	r2, [r3, #4]
 8008a2c:	687b      	ldr	r3, [r7, #4]
 8008a2e:	641a      	str	r2, [r3, #64]	; 0x40
 8008a30:	687b      	ldr	r3, [r7, #4]
 8008a32:	693a      	ldr	r2, [r7, #16]
 8008a34:	621a      	str	r2, [r3, #32]
 8008a36:	bf00      	nop
 8008a38:	371c      	adds	r7, #28
 8008a3a:	46bd      	mov	sp, r7
 8008a3c:	bc80      	pop	{r7}
 8008a3e:	4770      	bx	lr
 8008a40:	40012c00 	.word	0x40012c00

08008a44 <TIM_TI1_ConfigInputStage>:
 8008a44:	b480      	push	{r7}
 8008a46:	b087      	sub	sp, #28
 8008a48:	af00      	add	r7, sp, #0
 8008a4a:	60f8      	str	r0, [r7, #12]
 8008a4c:	60b9      	str	r1, [r7, #8]
 8008a4e:	607a      	str	r2, [r7, #4]
 8008a50:	68fb      	ldr	r3, [r7, #12]
 8008a52:	6a1b      	ldr	r3, [r3, #32]
 8008a54:	617b      	str	r3, [r7, #20]
 8008a56:	68fb      	ldr	r3, [r7, #12]
 8008a58:	6a1b      	ldr	r3, [r3, #32]
 8008a5a:	f023 0201 	bic.w	r2, r3, #1
 8008a5e:	68fb      	ldr	r3, [r7, #12]
 8008a60:	621a      	str	r2, [r3, #32]
 8008a62:	68fb      	ldr	r3, [r7, #12]
 8008a64:	699b      	ldr	r3, [r3, #24]
 8008a66:	613b      	str	r3, [r7, #16]
 8008a68:	693b      	ldr	r3, [r7, #16]
 8008a6a:	f023 03f0 	bic.w	r3, r3, #240	; 0xf0
 8008a6e:	613b      	str	r3, [r7, #16]
 8008a70:	687b      	ldr	r3, [r7, #4]
 8008a72:	011b      	lsls	r3, r3, #4
 8008a74:	693a      	ldr	r2, [r7, #16]
 8008a76:	4313      	orrs	r3, r2
 8008a78:	613b      	str	r3, [r7, #16]
 8008a7a:	697b      	ldr	r3, [r7, #20]
 8008a7c:	f023 030a 	bic.w	r3, r3, #10
 8008a80:	617b      	str	r3, [r7, #20]
 8008a82:	697a      	ldr	r2, [r7, #20]
 8008a84:	68bb      	ldr	r3, [r7, #8]
 8008a86:	4313      	orrs	r3, r2
 8008a88:	617b      	str	r3, [r7, #20]
 8008a8a:	68fb      	ldr	r3, [r7, #12]
 8008a8c:	693a      	ldr	r2, [r7, #16]
 8008a8e:	619a      	str	r2, [r3, #24]
 8008a90:	68fb      	ldr	r3, [r7, #12]
 8008a92:	697a      	ldr	r2, [r7, #20]
 8008a94:	621a      	str	r2, [r3, #32]
 8008a96:	bf00      	nop
 8008a98:	371c      	adds	r7, #28
 8008a9a:	46bd      	mov	sp, r7
 8008a9c:	bc80      	pop	{r7}
 8008a9e:	4770      	bx	lr

08008aa0 <TIM_TI2_ConfigInputStage>:
 8008aa0:	b480      	push	{r7}
 8008aa2:	b087      	sub	sp, #28
 8008aa4:	af00      	add	r7, sp, #0
 8008aa6:	60f8      	str	r0, [r7, #12]
 8008aa8:	60b9      	str	r1, [r7, #8]
 8008aaa:	607a      	str	r2, [r7, #4]
 8008aac:	68fb      	ldr	r3, [r7, #12]
 8008aae:	6a1b      	ldr	r3, [r3, #32]
 8008ab0:	f023 0210 	bic.w	r2, r3, #16
 8008ab4:	68fb      	ldr	r3, [r7, #12]
 8008ab6:	621a      	str	r2, [r3, #32]
 8008ab8:	68fb      	ldr	r3, [r7, #12]
 8008aba:	699b      	ldr	r3, [r3, #24]
 8008abc:	617b      	str	r3, [r7, #20]
 8008abe:	68fb      	ldr	r3, [r7, #12]
 8008ac0:	6a1b      	ldr	r3, [r3, #32]
 8008ac2:	613b      	str	r3, [r7, #16]
 8008ac4:	697b      	ldr	r3, [r7, #20]
 8008ac6:	f423 4370 	bic.w	r3, r3, #61440	; 0xf000
 8008aca:	617b      	str	r3, [r7, #20]
 8008acc:	687b      	ldr	r3, [r7, #4]
 8008ace:	031b      	lsls	r3, r3, #12
 8008ad0:	697a      	ldr	r2, [r7, #20]
 8008ad2:	4313      	orrs	r3, r2
 8008ad4:	617b      	str	r3, [r7, #20]
 8008ad6:	693b      	ldr	r3, [r7, #16]
 8008ad8:	f023 03a0 	bic.w	r3, r3, #160	; 0xa0
 8008adc:	613b      	str	r3, [r7, #16]
 8008ade:	68bb      	ldr	r3, [r7, #8]
 8008ae0:	011b      	lsls	r3, r3, #4
 8008ae2:	693a      	ldr	r2, [r7, #16]
 8008ae4:	4313      	orrs	r3, r2
 8008ae6:	613b      	str	r3, [r7, #16]
 8008ae8:	68fb      	ldr	r3, [r7, #12]
 8008aea:	697a      	ldr	r2, [r7, #20]
 8008aec:	619a      	str	r2, [r3, #24]
 8008aee:	68fb      	ldr	r3, [r7, #12]
 8008af0:	693a      	ldr	r2, [r7, #16]
 8008af2:	621a      	str	r2, [r3, #32]
 8008af4:	bf00      	nop
 8008af6:	371c      	adds	r7, #28
 8008af8:	46bd      	mov	sp, r7
 8008afa:	bc80      	pop	{r7}
 8008afc:	4770      	bx	lr

08008afe <TIM_ITRx_SetConfig>:
 8008afe:	b480      	push	{r7}
 8008b00:	b085      	sub	sp, #20
 8008b02:	af00      	add	r7, sp, #0
 8008b04:	6078      	str	r0, [r7, #4]
 8008b06:	6039      	str	r1, [r7, #0]
 8008b08:	687b      	ldr	r3, [r7, #4]
 8008b0a:	689b      	ldr	r3, [r3, #8]
 8008b0c:	60fb      	str	r3, [r7, #12]
 8008b0e:	68fb      	ldr	r3, [r7, #12]
 8008b10:	f023 0370 	bic.w	r3, r3, #112	; 0x70
 8008b14:	60fb      	str	r3, [r7, #12]
 8008b16:	683a      	ldr	r2, [r7, #0]
 8008b18:	68fb      	ldr	r3, [r7, #12]
 8008b1a:	4313      	orrs	r3, r2
 8008b1c:	f043 0307 	orr.w	r3, r3, #7
 8008b20:	60fb      	str	r3, [r7, #12]
 8008b22:	687b      	ldr	r3, [r7, #4]
 8008b24:	68fa      	ldr	r2, [r7, #12]
 8008b26:	609a      	str	r2, [r3, #8]
 8008b28:	bf00      	nop
 8008b2a:	3714      	adds	r7, #20
 8008b2c:	46bd      	mov	sp, r7
 8008b2e:	bc80      	pop	{r7}
 8008b30:	4770      	bx	lr

08008b32 <TIM_ETR_SetConfig>:
 8008b32:	b480      	push	{r7}
 8008b34:	b087      	sub	sp, #28
 8008b36:	af00      	add	r7, sp, #0
 8008b38:	60f8      	str	r0, [r7, #12]
 8008b3a:	60b9      	str	r1, [r7, #8]
 8008b3c:	607a      	str	r2, [r7, #4]
 8008b3e:	603b      	str	r3, [r7, #0]
 8008b40:	68fb      	ldr	r3, [r7, #12]
 8008b42:	689b      	ldr	r3, [r3, #8]
 8008b44:	617b      	str	r3, [r7, #20]
 8008b46:	697b      	ldr	r3, [r7, #20]
 8008b48:	f423 437f 	bic.w	r3, r3, #65280	; 0xff00
 8008b4c:	617b      	str	r3, [r7, #20]
 8008b4e:	683b      	ldr	r3, [r7, #0]
 8008b50:	021a      	lsls	r2, r3, #8
 8008b52:	687b      	ldr	r3, [r7, #4]
 8008b54:	431a      	orrs	r2, r3
 8008b56:	68bb      	ldr	r3, [r7, #8]
 8008b58:	4313      	orrs	r3, r2
 8008b5a:	697a      	ldr	r2, [r7, #20]
 8008b5c:	4313      	orrs	r3, r2
 8008b5e:	617b      	str	r3, [r7, #20]
 8008b60:	68fb      	ldr	r3, [r7, #12]
 8008b62:	697a      	ldr	r2, [r7, #20]
 8008b64:	609a      	str	r2, [r3, #8]
 8008b66:	bf00      	nop
 8008b68:	371c      	adds	r7, #28
 8008b6a:	46bd      	mov	sp, r7
 8008b6c:	bc80      	pop	{r7}
 8008b6e:	4770      	bx	lr

08008b70 <TIM_CCxChannelCmd>:
 8008b70:	b480      	push	{r7}
 8008b72:	b087      	sub	sp, #28
 8008b74:	af00      	add	r7, sp, #0
 8008b76:	60f8      	str	r0, [r7, #12]
 8008b78:	60b9      	str	r1, [r7, #8]
 8008b7a:	607a      	str	r2, [r7, #4]
 8008b7c:	68bb      	ldr	r3, [r7, #8]
 8008b7e:	f003 031f 	and.w	r3, r3, #31
 8008b82:	2201      	movs	r2, #1
 8008b84:	fa02 f303 	lsl.w	r3, r2, r3
 8008b88:	617b      	str	r3, [r7, #20]
 8008b8a:	68fb      	ldr	r3, [r7, #12]
 8008b8c:	6a1a      	ldr	r2, [r3, #32]
 8008b8e:	697b      	ldr	r3, [r7, #20]
 8008b90:	43db      	mvns	r3, r3
 8008b92:	401a      	ands	r2, r3
 8008b94:	68fb      	ldr	r3, [r7, #12]
 8008b96:	621a      	str	r2, [r3, #32]
 8008b98:	68fb      	ldr	r3, [r7, #12]
 8008b9a:	6a1a      	ldr	r2, [r3, #32]
 8008b9c:	68bb      	ldr	r3, [r7, #8]
 8008b9e:	f003 031f 	and.w	r3, r3, #31
 8008ba2:	6879      	ldr	r1, [r7, #4]
 8008ba4:	fa01 f303 	lsl.w	r3, r1, r3
 8008ba8:	431a      	orrs	r2, r3
 8008baa:	68fb      	ldr	r3, [r7, #12]
 8008bac:	621a      	str	r2, [r3, #32]
 8008bae:	bf00      	nop
 8008bb0:	371c      	adds	r7, #28
 8008bb2:	46bd      	mov	sp, r7
 8008bb4:	bc80      	pop	{r7}
 8008bb6:	4770      	bx	lr

08008bb8 <HAL_TIMEx_MasterConfigSynchronization>:
 8008bb8:	b480      	push	{r7}
 8008bba:	b085      	sub	sp, #20
 8008bbc:	af00      	add	r7, sp, #0
 8008bbe:	6078      	str	r0, [r7, #4]
 8008bc0:	6039      	str	r1, [r7, #0]
 8008bc2:	687b      	ldr	r3, [r7, #4]
 8008bc4:	f893 303c 	ldrb.w	r3, [r3, #60]	; 0x3c
 8008bc8:	2b01      	cmp	r3, #1
 8008bca:	d101      	bne.n	8008bd0 <HAL_TIMEx_MasterConfigSynchronization+0x18>
 8008bcc:	2302      	movs	r3, #2
 8008bce:	e046      	b.n	8008c5e <HAL_TIMEx_MasterConfigSynchronization+0xa6>
 8008bd0:	687b      	ldr	r3, [r7, #4]
 8008bd2:	2201      	movs	r2, #1
 8008bd4:	f883 203c 	strb.w	r2, [r3, #60]	; 0x3c
 8008bd8:	687b      	ldr	r3, [r7, #4]
 8008bda:	2202      	movs	r2, #2
 8008bdc:	f883 203d 	strb.w	r2, [r3, #61]	; 0x3d
 8008be0:	687b      	ldr	r3, [r7, #4]
 8008be2:	681b      	ldr	r3, [r3, #0]
 8008be4:	685b      	ldr	r3, [r3, #4]
 8008be6:	60fb      	str	r3, [r7, #12]
 8008be8:	687b      	ldr	r3, [r7, #4]
 8008bea:	681b      	ldr	r3, [r3, #0]
 8008bec:	689b      	ldr	r3, [r3, #8]
 8008bee:	60bb      	str	r3, [r7, #8]
 8008bf0:	68fb      	ldr	r3, [r7, #12]
 8008bf2:	f023 0370 	bic.w	r3, r3, #112	; 0x70
 8008bf6:	60fb      	str	r3, [r7, #12]
 8008bf8:	683b      	ldr	r3, [r7, #0]
 8008bfa:	681b      	ldr	r3, [r3, #0]
 8008bfc:	68fa      	ldr	r2, [r7, #12]
 8008bfe:	4313      	orrs	r3, r2
 8008c00:	60fb      	str	r3, [r7, #12]
 8008c02:	687b      	ldr	r3, [r7, #4]
 8008c04:	681b      	ldr	r3, [r3, #0]
 8008c06:	68fa      	ldr	r2, [r7, #12]
 8008c08:	605a      	str	r2, [r3, #4]
 8008c0a:	687b      	ldr	r3, [r7, #4]
 8008c0c:	681b      	ldr	r3, [r3, #0]
 8008c0e:	4a16      	ldr	r2, [pc, #88]	; (8008c68 <HAL_TIMEx_MasterConfigSynchronization+0xb0>)
 8008c10:	4293      	cmp	r3, r2
 8008c12:	d00e      	beq.n	8008c32 <HAL_TIMEx_MasterConfigSynchronization+0x7a>
 8008c14:	687b      	ldr	r3, [r7, #4]
 8008c16:	681b      	ldr	r3, [r3, #0]
 8008c18:	f1b3 4f80 	cmp.w	r3, #1073741824	; 0x40000000
 8008c1c:	d009      	beq.n	8008c32 <HAL_TIMEx_MasterConfigSynchronization+0x7a>
 8008c1e:	687b      	ldr	r3, [r7, #4]
 8008c20:	681b      	ldr	r3, [r3, #0]
 8008c22:	4a12      	ldr	r2, [pc, #72]	; (8008c6c <HAL_TIMEx_MasterConfigSynchronization+0xb4>)
 8008c24:	4293      	cmp	r3, r2
 8008c26:	d004      	beq.n	8008c32 <HAL_TIMEx_MasterConfigSynchronization+0x7a>
 8008c28:	687b      	ldr	r3, [r7, #4]
 8008c2a:	681b      	ldr	r3, [r3, #0]
 8008c2c:	4a10      	ldr	r2, [pc, #64]	; (8008c70 <HAL_TIMEx_MasterConfigSynchronization+0xb8>)
 8008c2e:	4293      	cmp	r3, r2
 8008c30:	d10c      	bne.n	8008c4c <HAL_TIMEx_MasterConfigSynchronization+0x94>
 8008c32:	68bb      	ldr	r3, [r7, #8]
 8008c34:	f023 0380 	bic.w	r3, r3, #128	; 0x80
 8008c38:	60bb      	str	r3, [r7, #8]
 8008c3a:	683b      	ldr	r3, [r7, #0]
 8008c3c:	685b      	ldr	r3, [r3, #4]
 8008c3e:	68ba      	ldr	r2, [r7, #8]
 8008c40:	4313      	orrs	r3, r2
 8008c42:	60bb      	str	r3, [r7, #8]
 8008c44:	687b      	ldr	r3, [r7, #4]
 8008c46:	681b      	ldr	r3, [r3, #0]
 8008c48:	68ba      	ldr	r2, [r7, #8]
 8008c4a:	609a      	str	r2, [r3, #8]
 8008c4c:	687b      	ldr	r3, [r7, #4]
 8008c4e:	2201      	movs	r2, #1
 8008c50:	f883 203d 	strb.w	r2, [r3, #61]	; 0x3d
 8008c54:	687b      	ldr	r3, [r7, #4]
 8008c56:	2200      	movs	r2, #0
 8008c58:	f883 203c 	strb.w	r2, [r3, #60]	; 0x3c
 8008c5c:	2300      	movs	r3, #0
 8008c5e:	4618      	mov	r0, r3
 8008c60:	3714      	adds	r7, #20
 8008c62:	46bd      	mov	sp, r7
 8008c64:	bc80      	pop	{r7}
 8008c66:	4770      	bx	lr
 8008c68:	40012c00 	.word	0x40012c00
 8008c6c:	40000400 	.word	0x40000400
 8008c70:	40000800 	.word	0x40000800

08008c74 <HAL_TIMEx_CommutCallback>:
 8008c74:	b480      	push	{r7}
 8008c76:	b083      	sub	sp, #12
 8008c78:	af00      	add	r7, sp, #0
 8008c7a:	6078      	str	r0, [r7, #4]
 8008c7c:	bf00      	nop
 8008c7e:	370c      	adds	r7, #12
 8008c80:	46bd      	mov	sp, r7
 8008c82:	bc80      	pop	{r7}
 8008c84:	4770      	bx	lr

08008c86 <HAL_TIMEx_BreakCallback>:
 8008c86:	b480      	push	{r7}
 8008c88:	b083      	sub	sp, #12
 8008c8a:	af00      	add	r7, sp, #0
 8008c8c:	6078      	str	r0, [r7, #4]
 8008c8e:	bf00      	nop
 8008c90:	370c      	adds	r7, #12
 8008c92:	46bd      	mov	sp, r7
 8008c94:	bc80      	pop	{r7}
 8008c96:	4770      	bx	lr

08008c98 <malloc>:
 8008c98:	4b02      	ldr	r3, [pc, #8]	; (8008ca4 <malloc+0xc>)
 8008c9a:	4601      	mov	r1, r0
 8008c9c:	6818      	ldr	r0, [r3, #0]
 8008c9e:	f000 b823 	b.w	8008ce8 <_malloc_r>
 8008ca2:	bf00      	nop
 8008ca4:	200004d4 	.word	0x200004d4

08008ca8 <sbrk_aligned>:
 8008ca8:	b570      	push	{r4, r5, r6, lr}
 8008caa:	4e0e      	ldr	r6, [pc, #56]	; (8008ce4 <sbrk_aligned+0x3c>)
 8008cac:	460c      	mov	r4, r1
 8008cae:	6831      	ldr	r1, [r6, #0]
 8008cb0:	4605      	mov	r5, r0
 8008cb2:	b911      	cbnz	r1, 8008cba <sbrk_aligned+0x12>
 8008cb4:	f000 f8ac 	bl	8008e10 <_sbrk_r>
 8008cb8:	6030      	str	r0, [r6, #0]
 8008cba:	4621      	mov	r1, r4
 8008cbc:	4628      	mov	r0, r5
 8008cbe:	f000 f8a7 	bl	8008e10 <_sbrk_r>
 8008cc2:	1c43      	adds	r3, r0, #1
 8008cc4:	d00a      	beq.n	8008cdc <sbrk_aligned+0x34>
 8008cc6:	1cc4      	adds	r4, r0, #3
 8008cc8:	f024 0403 	bic.w	r4, r4, #3
 8008ccc:	42a0      	cmp	r0, r4
 8008cce:	d007      	beq.n	8008ce0 <sbrk_aligned+0x38>
 8008cd0:	1a21      	subs	r1, r4, r0
 8008cd2:	4628      	mov	r0, r5
 8008cd4:	f000 f89c 	bl	8008e10 <_sbrk_r>
 8008cd8:	3001      	adds	r0, #1
 8008cda:	d101      	bne.n	8008ce0 <sbrk_aligned+0x38>
 8008cdc:	f04f 34ff 	mov.w	r4, #4294967295
 8008ce0:	4620      	mov	r0, r4
 8008ce2:	bd70      	pop	{r4, r5, r6, pc}
 8008ce4:	20000a34 	.word	0x20000a34

08008ce8 <_malloc_r>:
 8008ce8:	e92d 43f8 	stmdb	sp!, {r3, r4, r5, r6, r7, r8, r9, lr}
 8008cec:	1ccd      	adds	r5, r1, #3
 8008cee:	f025 0503 	bic.w	r5, r5, #3
 8008cf2:	3508      	adds	r5, #8
 8008cf4:	2d0c      	cmp	r5, #12
 8008cf6:	bf38      	it	cc
 8008cf8:	250c      	movcc	r5, #12
 8008cfa:	2d00      	cmp	r5, #0
 8008cfc:	4607      	mov	r7, r0
 8008cfe:	db01      	blt.n	8008d04 <_malloc_r+0x1c>
 8008d00:	42a9      	cmp	r1, r5
 8008d02:	d905      	bls.n	8008d10 <_malloc_r+0x28>
 8008d04:	230c      	movs	r3, #12
 8008d06:	2600      	movs	r6, #0
 8008d08:	603b      	str	r3, [r7, #0]
 8008d0a:	4630      	mov	r0, r6
 8008d0c:	e8bd 83f8 	ldmia.w	sp!, {r3, r4, r5, r6, r7, r8, r9, pc}
 8008d10:	f8df 80d0 	ldr.w	r8, [pc, #208]	; 8008de4 <_malloc_r+0xfc>
 8008d14:	f000 f868 	bl	8008de8 <__malloc_lock>
 8008d18:	f8d8 3000 	ldr.w	r3, [r8]
 8008d1c:	461c      	mov	r4, r3
 8008d1e:	bb5c      	cbnz	r4, 8008d78 <_malloc_r+0x90>
 8008d20:	4629      	mov	r1, r5
 8008d22:	4638      	mov	r0, r7
 8008d24:	f7ff ffc0 	bl	8008ca8 <sbrk_aligned>
 8008d28:	1c43      	adds	r3, r0, #1
 8008d2a:	4604      	mov	r4, r0
 8008d2c:	d155      	bne.n	8008dda <_malloc_r+0xf2>
 8008d2e:	f8d8 4000 	ldr.w	r4, [r8]
 8008d32:	4626      	mov	r6, r4
 8008d34:	2e00      	cmp	r6, #0
 8008d36:	d145      	bne.n	8008dc4 <_malloc_r+0xdc>
 8008d38:	2c00      	cmp	r4, #0
 8008d3a:	d048      	beq.n	8008dce <_malloc_r+0xe6>
 8008d3c:	6823      	ldr	r3, [r4, #0]
 8008d3e:	4631      	mov	r1, r6
 8008d40:	4638      	mov	r0, r7
 8008d42:	eb04 0903 	add.w	r9, r4, r3
 8008d46:	f000 f863 	bl	8008e10 <_sbrk_r>
 8008d4a:	4581      	cmp	r9, r0
 8008d4c:	d13f      	bne.n	8008dce <_malloc_r+0xe6>
 8008d4e:	6821      	ldr	r1, [r4, #0]
 8008d50:	4638      	mov	r0, r7
 8008d52:	1a6d      	subs	r5, r5, r1
 8008d54:	4629      	mov	r1, r5
 8008d56:	f7ff ffa7 	bl	8008ca8 <sbrk_aligned>
 8008d5a:	3001      	adds	r0, #1
 8008d5c:	d037      	beq.n	8008dce <_malloc_r+0xe6>
 8008d5e:	6823      	ldr	r3, [r4, #0]
 8008d60:	442b      	add	r3, r5
 8008d62:	6023      	str	r3, [r4, #0]
 8008d64:	f8d8 3000 	ldr.w	r3, [r8]
 8008d68:	2b00      	cmp	r3, #0
 8008d6a:	d038      	beq.n	8008dde <_malloc_r+0xf6>
 8008d6c:	685a      	ldr	r2, [r3, #4]
 8008d6e:	42a2      	cmp	r2, r4
 8008d70:	d12b      	bne.n	8008dca <_malloc_r+0xe2>
 8008d72:	2200      	movs	r2, #0
 8008d74:	605a      	str	r2, [r3, #4]
 8008d76:	e00f      	b.n	8008d98 <_malloc_r+0xb0>
 8008d78:	6822      	ldr	r2, [r4, #0]
 8008d7a:	1b52      	subs	r2, r2, r5
 8008d7c:	d41f      	bmi.n	8008dbe <_malloc_r+0xd6>
 8008d7e:	2a0b      	cmp	r2, #11
 8008d80:	d917      	bls.n	8008db2 <_malloc_r+0xca>
 8008d82:	1961      	adds	r1, r4, r5
 8008d84:	42a3      	cmp	r3, r4
 8008d86:	6025      	str	r5, [r4, #0]
 8008d88:	bf18      	it	ne
 8008d8a:	6059      	strne	r1, [r3, #4]
 8008d8c:	6863      	ldr	r3, [r4, #4]
 8008d8e:	bf08      	it	eq
 8008d90:	f8c8 1000 	streq.w	r1, [r8]
 8008d94:	5162      	str	r2, [r4, r5]
 8008d96:	604b      	str	r3, [r1, #4]
 8008d98:	4638      	mov	r0, r7
 8008d9a:	f104 060b 	add.w	r6, r4, #11
 8008d9e:	f000 f829 	bl	8008df4 <__malloc_unlock>
 8008da2:	f026 0607 	bic.w	r6, r6, #7
 8008da6:	1d23      	adds	r3, r4, #4
 8008da8:	1af2      	subs	r2, r6, r3
 8008daa:	d0ae      	beq.n	8008d0a <_malloc_r+0x22>
 8008dac:	1b9b      	subs	r3, r3, r6
 8008dae:	50a3      	str	r3, [r4, r2]
 8008db0:	e7ab      	b.n	8008d0a <_malloc_r+0x22>
 8008db2:	42a3      	cmp	r3, r4
 8008db4:	6862      	ldr	r2, [r4, #4]
 8008db6:	d1dd      	bne.n	8008d74 <_malloc_r+0x8c>
 8008db8:	f8c8 2000 	str.w	r2, [r8]
 8008dbc:	e7ec      	b.n	8008d98 <_malloc_r+0xb0>
 8008dbe:	4623      	mov	r3, r4
 8008dc0:	6864      	ldr	r4, [r4, #4]
 8008dc2:	e7ac      	b.n	8008d1e <_malloc_r+0x36>
 8008dc4:	4634      	mov	r4, r6
 8008dc6:	6876      	ldr	r6, [r6, #4]
 8008dc8:	e7b4      	b.n	8008d34 <_malloc_r+0x4c>
 8008dca:	4613      	mov	r3, r2
 8008dcc:	e7cc      	b.n	8008d68 <_malloc_r+0x80>
 8008dce:	230c      	movs	r3, #12
 8008dd0:	4638      	mov	r0, r7
 8008dd2:	603b      	str	r3, [r7, #0]
 8008dd4:	f000 f80e 	bl	8008df4 <__malloc_unlock>
 8008dd8:	e797      	b.n	8008d0a <_malloc_r+0x22>
 8008dda:	6025      	str	r5, [r4, #0]
 8008ddc:	e7dc      	b.n	8008d98 <_malloc_r+0xb0>
 8008dde:	605b      	str	r3, [r3, #4]
 8008de0:	deff      	udf	#255	; 0xff
 8008de2:	bf00      	nop
 8008de4:	20000a30 	.word	0x20000a30

08008de8 <__malloc_lock>:
 8008de8:	4801      	ldr	r0, [pc, #4]	; (8008df0 <__malloc_lock+0x8>)
 8008dea:	f000 b84b 	b.w	8008e84 <__retarget_lock_acquire_recursive>
 8008dee:	bf00      	nop
 8008df0:	20000b74 	.word	0x20000b74

08008df4 <__malloc_unlock>:
 8008df4:	4801      	ldr	r0, [pc, #4]	; (8008dfc <__malloc_unlock+0x8>)
 8008df6:	f000 b846 	b.w	8008e86 <__retarget_lock_release_recursive>
 8008dfa:	bf00      	nop
 8008dfc:	20000b74 	.word	0x20000b74

08008e00 <memset>:
 8008e00:	4603      	mov	r3, r0
 8008e02:	4402      	add	r2, r0
 8008e04:	4293      	cmp	r3, r2
 8008e06:	d100      	bne.n	8008e0a <memset+0xa>
 8008e08:	4770      	bx	lr
 8008e0a:	f803 1b01 	strb.w	r1, [r3], #1
 8008e0e:	e7f9      	b.n	8008e04 <memset+0x4>

08008e10 <_sbrk_r>:
 8008e10:	b538      	push	{r3, r4, r5, lr}
 8008e12:	2300      	movs	r3, #0
 8008e14:	4d05      	ldr	r5, [pc, #20]	; (8008e2c <_sbrk_r+0x1c>)
 8008e16:	4604      	mov	r4, r0
 8008e18:	4608      	mov	r0, r1
 8008e1a:	602b      	str	r3, [r5, #0]
 8008e1c:	f7fc f80a 	bl	8004e34 <_sbrk>
 8008e20:	1c43      	adds	r3, r0, #1
 8008e22:	d102      	bne.n	8008e2a <_sbrk_r+0x1a>
 8008e24:	682b      	ldr	r3, [r5, #0]
 8008e26:	b103      	cbz	r3, 8008e2a <_sbrk_r+0x1a>
 8008e28:	6023      	str	r3, [r4, #0]
 8008e2a:	bd38      	pop	{r3, r4, r5, pc}
 8008e2c:	20000b70 	.word	0x20000b70

08008e30 <__errno>:
 8008e30:	4b01      	ldr	r3, [pc, #4]	; (8008e38 <__errno+0x8>)
 8008e32:	6818      	ldr	r0, [r3, #0]
 8008e34:	4770      	bx	lr
 8008e36:	bf00      	nop
 8008e38:	200004d4 	.word	0x200004d4

08008e3c <__libc_init_array>:
 8008e3c:	b570      	push	{r4, r5, r6, lr}
 8008e3e:	2600      	movs	r6, #0
 8008e40:	4d0c      	ldr	r5, [pc, #48]	; (8008e74 <__libc_init_array+0x38>)
 8008e42:	4c0d      	ldr	r4, [pc, #52]	; (8008e78 <__libc_init_array+0x3c>)
 8008e44:	1b64      	subs	r4, r4, r5
 8008e46:	10a4      	asrs	r4, r4, #2
 8008e48:	42a6      	cmp	r6, r4
 8008e4a:	d109      	bne.n	8008e60 <__libc_init_array+0x24>
 8008e4c:	f000 f832 	bl	8008eb4 <_init>
 8008e50:	2600      	movs	r6, #0
 8008e52:	4d0a      	ldr	r5, [pc, #40]	; (8008e7c <__libc_init_array+0x40>)
 8008e54:	4c0a      	ldr	r4, [pc, #40]	; (8008e80 <__libc_init_array+0x44>)
 8008e56:	1b64      	subs	r4, r4, r5
 8008e58:	10a4      	asrs	r4, r4, #2
 8008e5a:	42a6      	cmp	r6, r4
 8008e5c:	d105      	bne.n	8008e6a <__libc_init_array+0x2e>
 8008e5e:	bd70      	pop	{r4, r5, r6, pc}
 8008e60:	f855 3b04 	ldr.w	r3, [r5], #4
 8008e64:	4798      	blx	r3
 8008e66:	3601      	adds	r6, #1
 8008e68:	e7ee      	b.n	8008e48 <__libc_init_array+0xc>
 8008e6a:	f855 3b04 	ldr.w	r3, [r5], #4
 8008e6e:	4798      	blx	r3
 8008e70:	3601      	adds	r6, #1
 8008e72:	e7f2      	b.n	8008e5a <__libc_init_array+0x1e>
 8008e74:	08009000 	.word	0x08009000
 8008e78:	08009000 	.word	0x08009000
 8008e7c:	08009000 	.word	0x08009000
 8008e80:	08009004 	.word	0x08009004

08008e84 <__retarget_lock_acquire_recursive>:
 8008e84:	4770      	bx	lr

08008e86 <__retarget_lock_release_recursive>:
 8008e86:	4770      	bx	lr

08008e88 <strcpy>:
 8008e88:	4603      	mov	r3, r0
 8008e8a:	f811 2b01 	ldrb.w	r2, [r1], #1
 8008e8e:	f803 2b01 	strb.w	r2, [r3], #1
 8008e92:	2a00      	cmp	r2, #0
 8008e94:	d1f9      	bne.n	8008e8a <strcpy+0x2>
 8008e96:	4770      	bx	lr

08008e98 <memcpy>:
 8008e98:	440a      	add	r2, r1
 8008e9a:	4291      	cmp	r1, r2
 8008e9c:	f100 33ff 	add.w	r3, r0, #4294967295
 8008ea0:	d100      	bne.n	8008ea4 <memcpy+0xc>
 8008ea2:	4770      	bx	lr
 8008ea4:	b510      	push	{r4, lr}
 8008ea6:	f811 4b01 	ldrb.w	r4, [r1], #1
 8008eaa:	4291      	cmp	r1, r2
 8008eac:	f803 4f01 	strb.w	r4, [r3, #1]!
 8008eb0:	d1f9      	bne.n	8008ea6 <memcpy+0xe>
 8008eb2:	bd10      	pop	{r4, pc}

08008eb4 <_init>:
 8008eb4:	b5f8      	push	{r3, r4, r5, r6, r7, lr}
 8008eb6:	bf00      	nop
 8008eb8:	bcf8      	pop	{r3, r4, r5, r6, r7}
 8008eba:	bc08      	pop	{r3}
 8008ebc:	469e      	mov	lr, r3
 8008ebe:	4770      	bx	lr

08008ec0 <_fini>:
 8008ec0:	b5f8      	push	{r3, r4, r5, r6, r7, lr}
 8008ec2:	bf00      	nop
 8008ec4:	bcf8      	pop	{r3, r4, r5, r6, r7}
 8008ec6:	bc08      	pop	{r3}
 8008ec8:	469e      	mov	lr, r3
 8008eca:	4770      	bx	lr
